
MyFirstBootedApp.elf:     file format elf32-littlearm

Sections:
Idx Name          Size      VMA       LMA       File off  Algn
  0 .image_hdr    00000035  08020000  08020000  00010000  2**0
                  CONTENTS, ALLOC, LOAD, DATA
  1 .isr_vector   00000298  08020200  08020200  00010200  2**9
                  CONTENTS, ALLOC, LOAD, READONLY, DATA
  2 .text         00006630  080204a0  080204a0  000104a0  2**4
                  CONTENTS, ALLOC, LOAD, READONLY, CODE
  3 .rodata       00000270  08026ad0  08026ad0  00016ad0  2**2
                  CONTENTS, ALLOC, LOAD, READONLY, DATA
  4 .ARM          00000008  08026d40  08026d40  00016d40  2**2
                  CONTENTS, ALLOC, LOAD, READONLY, DATA
  5 .init_array   00000004  08026d48  08026d48  00016d48  2**2
                  CONTENTS, ALLOC, LOAD, DATA
  6 .fini_array   00000004  08026d4c  08026d4c  00016d4c  2**2
                  CONTENTS, ALLOC, LOAD, DATA
  7 .data         0000008c  20000000  08026d50  00020000  2**2
                  CONTENTS, ALLOC, LOAD, DATA
  8 .RxDecripSection 00000060  2000008c  08026ddc  0002008c  2**2
                  CONTENTS, ALLOC, LOAD, DATA
  9 .TxDecripSection 00000060  200000ec  08026e3c  000200ec  2**2
                  CONTENTS, ALLOC, LOAD, DATA
 10 .bss          000026bc  2000014c  08026e9c  0002014c  2**2
                  ALLOC
 11 ._user_heap_stack 00000600  20002808  08026e9c  00022808  2**0
                  ALLOC
 12 .ARM.attributes 0000002e  00000000  00000000  0002014c  2**0
                  CONTENTS, READONLY
 13 .comment      00000053  00000000  00000000  0002017a  2**0
                  CONTENTS, READONLY
 14 .debug_frame  000008d0  00000000  00000000  000201d0  2**2
                  CONTENTS, READONLY, DEBUGGING, OCTETS

Disassembly of section .text:

080204a0 <__do_global_dtors_aux>:
 80204a0:	b510      	push	{r4, lr}
 80204a2:	4c05      	ldr	r4, [pc, #20]	; (80204b8 <__do_global_dtors_aux+0x18>)
 80204a4:	7823      	ldrb	r3, [r4, #0]
 80204a6:	b933      	cbnz	r3, 80204b6 <__do_global_dtors_aux+0x16>
 80204a8:	4b04      	ldr	r3, [pc, #16]	; (80204bc <__do_global_dtors_aux+0x1c>)
 80204aa:	b113      	cbz	r3, 80204b2 <__do_global_dtors_aux+0x12>
 80204ac:	4804      	ldr	r0, [pc, #16]	; (80204c0 <__do_global_dtors_aux+0x20>)
 80204ae:	f3af 8000 	nop.w
 80204b2:	2301      	movs	r3, #1
 80204b4:	7023      	strb	r3, [r4, #0]
 80204b6:	bd10      	pop	{r4, pc}
 80204b8:	2000014c 	.word	0x2000014c
 80204bc:	00000000 	.word	0x00000000
 80204c0:	08026ab8 	.word	0x08026ab8

080204c4 <frame_dummy>:
 80204c4:	b508      	push	{r3, lr}
 80204c6:	4b03      	ldr	r3, [pc, #12]	; (80204d4 <frame_dummy+0x10>)
 80204c8:	b11b      	cbz	r3, 80204d2 <frame_dummy+0xe>
 80204ca:	4903      	ldr	r1, [pc, #12]	; (80204d8 <frame_dummy+0x14>)
 80204cc:	4803      	ldr	r0, [pc, #12]	; (80204dc <frame_dummy+0x18>)
 80204ce:	f3af 8000 	nop.w
 80204d2:	bd08      	pop	{r3, pc}
 80204d4:	00000000 	.word	0x00000000
 80204d8:	20000150 	.word	0x20000150
 80204dc:	08026ab8 	.word	0x08026ab8

080204e0 <strlen>:
 80204e0:	4603      	mov	r3, r0
 80204e2:	f813 2b01 	ldrb.w	r2, [r3], #1
 80204e6:	2a00      	cmp	r2, #0
 80204e8:	d1fb      	bne.n	80204e2 <strlen+0x2>
 80204ea:	1a18      	subs	r0, r3, r0
 80204ec:	3801      	subs	r0, #1
 80204ee:	4770      	bx	lr

080204f0 <memchr>:
 80204f0:	f001 01ff 	and.w	r1, r1, #255	; 0xff
 80204f4:	2a10      	cmp	r2, #16
 80204f6:	db2b      	blt.n	8020550 <memchr+0x60>
 80204f8:	f010 0f07 	tst.w	r0, #7
 80204fc:	d008      	beq.n	8020510 <memchr+0x20>
 80204fe:	f810 3b01 	ldrb.w	r3, [r0], #1
 8020502:	3a01      	subs	r2, #1
 8020504:	428b      	cmp	r3, r1
 8020506:	d02d      	beq.n	8020564 <memchr+0x74>
 8020508:	f010 0f07 	tst.w	r0, #7
 802050c:	b342      	cbz	r2, 8020560 <memchr+0x70>
 802050e:	d1f6      	bne.n	80204fe <memchr+0xe>
 8020510:	b4f0      	push	{r4, r5, r6, r7}
 8020512:	ea41 2101 	orr.w	r1, r1, r1, lsl #8
 8020516:	ea41 4101 	orr.w	r1, r1, r1, lsl #16
 802051a:	f022 0407 	bic.w	r4, r2, #7
 802051e:	f07f 0700 	mvns.w	r7, #0
 8020522:	2300      	movs	r3, #0
 8020524:	e8f0 5602 	ldrd	r5, r6, [r0], #8
 8020528:	3c08      	subs	r4, #8
 802052a:	ea85 0501 	eor.w	r5, r5, r1
 802052e:	ea86 0601 	eor.w	r6, r6, r1
 8020532:	fa85 f547 	uadd8	r5, r5, r7
 8020536:	faa3 f587 	sel	r5, r3, r7
 802053a:	fa86 f647 	uadd8	r6, r6, r7
 802053e:	faa5 f687 	sel	r6, r5, r7
 8020542:	b98e      	cbnz	r6, 8020568 <memchr+0x78>
 8020544:	d1ee      	bne.n	8020524 <memchr+0x34>
 8020546:	bcf0      	pop	{r4, r5, r6, r7}
 8020548:	f001 01ff 	and.w	r1, r1, #255	; 0xff
 802054c:	f002 0207 	and.w	r2, r2, #7
 8020550:	b132      	cbz	r2, 8020560 <memchr+0x70>
 8020552:	f810 3b01 	ldrb.w	r3, [r0], #1
 8020556:	3a01      	subs	r2, #1
 8020558:	ea83 0301 	eor.w	r3, r3, r1
 802055c:	b113      	cbz	r3, 8020564 <memchr+0x74>
 802055e:	d1f8      	bne.n	8020552 <memchr+0x62>
 8020560:	2000      	movs	r0, #0
 8020562:	4770      	bx	lr
 8020564:	3801      	subs	r0, #1
 8020566:	4770      	bx	lr
 8020568:	2d00      	cmp	r5, #0
 802056a:	bf06      	itte	eq
 802056c:	4635      	moveq	r5, r6
 802056e:	3803      	subeq	r0, #3
 8020570:	3807      	subne	r0, #7
 8020572:	f015 0f01 	tst.w	r5, #1
 8020576:	d107      	bne.n	8020588 <memchr+0x98>
 8020578:	3001      	adds	r0, #1
 802057a:	f415 7f80 	tst.w	r5, #256	; 0x100
 802057e:	bf02      	ittt	eq
 8020580:	3001      	addeq	r0, #1
 8020582:	f415 3fc0 	tsteq.w	r5, #98304	; 0x18000
 8020586:	3001      	addeq	r0, #1
 8020588:	bcf0      	pop	{r4, r5, r6, r7}
 802058a:	3801      	subs	r0, #1
 802058c:	4770      	bx	lr
 802058e:	bf00      	nop

08020590 <__aeabi_uldivmod>:
 8020590:	b953      	cbnz	r3, 80205a8 <__aeabi_uldivmod+0x18>
 8020592:	b94a      	cbnz	r2, 80205a8 <__aeabi_uldivmod+0x18>
 8020594:	2900      	cmp	r1, #0
 8020596:	bf08      	it	eq
 8020598:	2800      	cmpeq	r0, #0
 802059a:	bf1c      	itt	ne
 802059c:	f04f 31ff 	movne.w	r1, #4294967295	; 0xffffffff
 80205a0:	f04f 30ff 	movne.w	r0, #4294967295	; 0xffffffff
 80205a4:	f000 b96e 	b.w	8020884 <__aeabi_idiv0>
 80205a8:	f1ad 0c08 	sub.w	ip, sp, #8
 80205ac:	e96d ce04 	strd	ip, lr, [sp, #-16]!
 80205b0:	f000 f806 	bl	80205c0 <__udivmoddi4>
 80205b4:	f8dd e004 	ldr.w	lr, [sp, #4]
 80205b8:	e9dd 2302 	ldrd	r2, r3, [sp, #8]
 80205bc:	b004      	add	sp, #16
 80205be:	4770      	bx	lr

080205c0 <__udivmoddi4>:
 80205c0:	e92d 47f0 	stmdb	sp!, {r4, r5, r6, r7, r8, r9, sl, lr}
 80205c4:	9d08      	ldr	r5, [sp, #32]
 80205c6:	4604      	mov	r4, r0
 80205c8:	468c      	mov	ip, r1
 80205ca:	2b00      	cmp	r3, #0
 80205cc:	f040 8083 	bne.w	80206d6 <__udivmoddi4+0x116>
 80205d0:	428a      	cmp	r2, r1
 80205d2:	4617      	mov	r7, r2
 80205d4:	d947      	bls.n	8020666 <__udivmoddi4+0xa6>
 80205d6:	fab2 f282 	clz	r2, r2
 80205da:	b142      	cbz	r2, 80205ee <__udivmoddi4+0x2e>
 80205dc:	f1c2 0020 	rsb	r0, r2, #32
 80205e0:	fa24 f000 	lsr.w	r0, r4, r0
 80205e4:	4091      	lsls	r1, r2
 80205e6:	4097      	lsls	r7, r2
 80205e8:	ea40 0c01 	orr.w	ip, r0, r1
 80205ec:	4094      	lsls	r4, r2
 80205ee:	ea4f 4817 	mov.w	r8, r7, lsr #16
 80205f2:	0c23      	lsrs	r3, r4, #16
 80205f4:	fbbc f6f8 	udiv	r6, ip, r8
 80205f8:	fa1f fe87 	uxth.w	lr, r7
 80205fc:	fb08 c116 	mls	r1, r8, r6, ip
 8020600:	ea43 4301 	orr.w	r3, r3, r1, lsl #16
 8020604:	fb06 f10e 	mul.w	r1, r6, lr
 8020608:	4299      	cmp	r1, r3
 802060a:	d909      	bls.n	8020620 <__udivmoddi4+0x60>
 802060c:	18fb      	adds	r3, r7, r3
 802060e:	f106 30ff 	add.w	r0, r6, #4294967295	; 0xffffffff
 8020612:	f080 8119 	bcs.w	8020848 <__udivmoddi4+0x288>
 8020616:	4299      	cmp	r1, r3
 8020618:	f240 8116 	bls.w	8020848 <__udivmoddi4+0x288>
 802061c:	3e02      	subs	r6, #2
 802061e:	443b      	add	r3, r7
 8020620:	1a5b      	subs	r3, r3, r1
 8020622:	b2a4      	uxth	r4, r4
 8020624:	fbb3 f0f8 	udiv	r0, r3, r8
 8020628:	fb08 3310 	mls	r3, r8, r0, r3
 802062c:	ea44 4403 	orr.w	r4, r4, r3, lsl #16
 8020630:	fb00 fe0e 	mul.w	lr, r0, lr
 8020634:	45a6      	cmp	lr, r4
 8020636:	d909      	bls.n	802064c <__udivmoddi4+0x8c>
 8020638:	193c      	adds	r4, r7, r4
 802063a:	f100 33ff 	add.w	r3, r0, #4294967295	; 0xffffffff
 802063e:	f080 8105 	bcs.w	802084c <__udivmoddi4+0x28c>
 8020642:	45a6      	cmp	lr, r4
 8020644:	f240 8102 	bls.w	802084c <__udivmoddi4+0x28c>
 8020648:	3802      	subs	r0, #2
 802064a:	443c      	add	r4, r7
 802064c:	ea40 4006 	orr.w	r0, r0, r6, lsl #16
 8020650:	eba4 040e 	sub.w	r4, r4, lr
 8020654:	2600      	movs	r6, #0
 8020656:	b11d      	cbz	r5, 8020660 <__udivmoddi4+0xa0>
 8020658:	40d4      	lsrs	r4, r2
 802065a:	2300      	movs	r3, #0
 802065c:	e9c5 4300 	strd	r4, r3, [r5]
 8020660:	4631      	mov	r1, r6
 8020662:	e8bd 87f0 	ldmia.w	sp!, {r4, r5, r6, r7, r8, r9, sl, pc}
 8020666:	b902      	cbnz	r2, 802066a <__udivmoddi4+0xaa>
 8020668:	deff      	udf	#255	; 0xff
 802066a:	fab2 f282 	clz	r2, r2
 802066e:	2a00      	cmp	r2, #0
 8020670:	d150      	bne.n	8020714 <__udivmoddi4+0x154>
 8020672:	1bcb      	subs	r3, r1, r7
 8020674:	ea4f 4e17 	mov.w	lr, r7, lsr #16
 8020678:	fa1f f887 	uxth.w	r8, r7
 802067c:	2601      	movs	r6, #1
 802067e:	fbb3 fcfe 	udiv	ip, r3, lr
 8020682:	0c21      	lsrs	r1, r4, #16
 8020684:	fb0e 331c 	mls	r3, lr, ip, r3
 8020688:	ea41 4103 	orr.w	r1, r1, r3, lsl #16
 802068c:	fb08 f30c 	mul.w	r3, r8, ip
 8020690:	428b      	cmp	r3, r1
 8020692:	d907      	bls.n	80206a4 <__udivmoddi4+0xe4>
 8020694:	1879      	adds	r1, r7, r1
 8020696:	f10c 30ff 	add.w	r0, ip, #4294967295	; 0xffffffff
 802069a:	d202      	bcs.n	80206a2 <__udivmoddi4+0xe2>
 802069c:	428b      	cmp	r3, r1
 802069e:	f200 80e9 	bhi.w	8020874 <__udivmoddi4+0x2b4>
 80206a2:	4684      	mov	ip, r0
 80206a4:	1ac9      	subs	r1, r1, r3
 80206a6:	b2a3      	uxth	r3, r4
 80206a8:	fbb1 f0fe 	udiv	r0, r1, lr
 80206ac:	fb0e 1110 	mls	r1, lr, r0, r1
 80206b0:	ea43 4401 	orr.w	r4, r3, r1, lsl #16
 80206b4:	fb08 f800 	mul.w	r8, r8, r0
 80206b8:	45a0      	cmp	r8, r4
 80206ba:	d907      	bls.n	80206cc <__udivmoddi4+0x10c>
 80206bc:	193c      	adds	r4, r7, r4
 80206be:	f100 33ff 	add.w	r3, r0, #4294967295	; 0xffffffff
 80206c2:	d202      	bcs.n	80206ca <__udivmoddi4+0x10a>
 80206c4:	45a0      	cmp	r8, r4
 80206c6:	f200 80d9 	bhi.w	802087c <__udivmoddi4+0x2bc>
 80206ca:	4618      	mov	r0, r3
 80206cc:	eba4 0408 	sub.w	r4, r4, r8
 80206d0:	ea40 400c 	orr.w	r0, r0, ip, lsl #16
 80206d4:	e7bf      	b.n	8020656 <__udivmoddi4+0x96>
 80206d6:	428b      	cmp	r3, r1
 80206d8:	d909      	bls.n	80206ee <__udivmoddi4+0x12e>
 80206da:	2d00      	cmp	r5, #0
 80206dc:	f000 80b1 	beq.w	8020842 <__udivmoddi4+0x282>
 80206e0:	2600      	movs	r6, #0
 80206e2:	e9c5 0100 	strd	r0, r1, [r5]
 80206e6:	4630      	mov	r0, r6
 80206e8:	4631      	mov	r1, r6
 80206ea:	e8bd 87f0 	ldmia.w	sp!, {r4, r5, r6, r7, r8, r9, sl, pc}
 80206ee:	fab3 f683 	clz	r6, r3
 80206f2:	2e00      	cmp	r6, #0
 80206f4:	d14a      	bne.n	802078c <__udivmoddi4+0x1cc>
 80206f6:	428b      	cmp	r3, r1
 80206f8:	d302      	bcc.n	8020700 <__udivmoddi4+0x140>
 80206fa:	4282      	cmp	r2, r0
 80206fc:	f200 80b8 	bhi.w	8020870 <__udivmoddi4+0x2b0>
 8020700:	1a84      	subs	r4, r0, r2
 8020702:	eb61 0103 	sbc.w	r1, r1, r3
 8020706:	2001      	movs	r0, #1
 8020708:	468c      	mov	ip, r1
 802070a:	2d00      	cmp	r5, #0
 802070c:	d0a8      	beq.n	8020660 <__udivmoddi4+0xa0>
 802070e:	e9c5 4c00 	strd	r4, ip, [r5]
 8020712:	e7a5      	b.n	8020660 <__udivmoddi4+0xa0>
 8020714:	f1c2 0320 	rsb	r3, r2, #32
 8020718:	fa20 f603 	lsr.w	r6, r0, r3
 802071c:	4097      	lsls	r7, r2
 802071e:	fa01 f002 	lsl.w	r0, r1, r2
 8020722:	ea4f 4e17 	mov.w	lr, r7, lsr #16
 8020726:	40d9      	lsrs	r1, r3
 8020728:	4330      	orrs	r0, r6
 802072a:	0c03      	lsrs	r3, r0, #16
 802072c:	fbb1 f6fe 	udiv	r6, r1, lr
 8020730:	fa1f f887 	uxth.w	r8, r7
 8020734:	fb0e 1116 	mls	r1, lr, r6, r1
 8020738:	ea43 4301 	orr.w	r3, r3, r1, lsl #16
 802073c:	fb06 f108 	mul.w	r1, r6, r8
 8020740:	4299      	cmp	r1, r3
 8020742:	fa04 f402 	lsl.w	r4, r4, r2
 8020746:	d909      	bls.n	802075c <__udivmoddi4+0x19c>
 8020748:	18fb      	adds	r3, r7, r3
 802074a:	f106 3cff 	add.w	ip, r6, #4294967295	; 0xffffffff
 802074e:	f080 808d 	bcs.w	802086c <__udivmoddi4+0x2ac>
 8020752:	4299      	cmp	r1, r3
 8020754:	f240 808a 	bls.w	802086c <__udivmoddi4+0x2ac>
 8020758:	3e02      	subs	r6, #2
 802075a:	443b      	add	r3, r7
 802075c:	1a5b      	subs	r3, r3, r1
 802075e:	b281      	uxth	r1, r0
 8020760:	fbb3 f0fe 	udiv	r0, r3, lr
 8020764:	fb0e 3310 	mls	r3, lr, r0, r3
 8020768:	ea41 4103 	orr.w	r1, r1, r3, lsl #16
 802076c:	fb00 f308 	mul.w	r3, r0, r8
 8020770:	428b      	cmp	r3, r1
 8020772:	d907      	bls.n	8020784 <__udivmoddi4+0x1c4>
 8020774:	1879      	adds	r1, r7, r1
 8020776:	f100 3cff 	add.w	ip, r0, #4294967295	; 0xffffffff
 802077a:	d273      	bcs.n	8020864 <__udivmoddi4+0x2a4>
 802077c:	428b      	cmp	r3, r1
 802077e:	d971      	bls.n	8020864 <__udivmoddi4+0x2a4>
 8020780:	3802      	subs	r0, #2
 8020782:	4439      	add	r1, r7
 8020784:	1acb      	subs	r3, r1, r3
 8020786:	ea40 4606 	orr.w	r6, r0, r6, lsl #16
 802078a:	e778      	b.n	802067e <__udivmoddi4+0xbe>
 802078c:	f1c6 0c20 	rsb	ip, r6, #32
 8020790:	fa03 f406 	lsl.w	r4, r3, r6
 8020794:	fa22 f30c 	lsr.w	r3, r2, ip
 8020798:	431c      	orrs	r4, r3
 802079a:	fa20 f70c 	lsr.w	r7, r0, ip
 802079e:	fa01 f306 	lsl.w	r3, r1, r6
 80207a2:	ea4f 4e14 	mov.w	lr, r4, lsr #16
 80207a6:	fa21 f10c 	lsr.w	r1, r1, ip
 80207aa:	431f      	orrs	r7, r3
 80207ac:	0c3b      	lsrs	r3, r7, #16
 80207ae:	fbb1 f9fe 	udiv	r9, r1, lr
 80207b2:	fa1f f884 	uxth.w	r8, r4
 80207b6:	fb0e 1119 	mls	r1, lr, r9, r1
 80207ba:	ea43 4101 	orr.w	r1, r3, r1, lsl #16
 80207be:	fb09 fa08 	mul.w	sl, r9, r8
 80207c2:	458a      	cmp	sl, r1
 80207c4:	fa02 f206 	lsl.w	r2, r2, r6
 80207c8:	fa00 f306 	lsl.w	r3, r0, r6
 80207cc:	d908      	bls.n	80207e0 <__udivmoddi4+0x220>
 80207ce:	1861      	adds	r1, r4, r1
 80207d0:	f109 30ff 	add.w	r0, r9, #4294967295	; 0xffffffff
 80207d4:	d248      	bcs.n	8020868 <__udivmoddi4+0x2a8>
 80207d6:	458a      	cmp	sl, r1
 80207d8:	d946      	bls.n	8020868 <__udivmoddi4+0x2a8>
 80207da:	f1a9 0902 	sub.w	r9, r9, #2
 80207de:	4421      	add	r1, r4
 80207e0:	eba1 010a 	sub.w	r1, r1, sl
 80207e4:	b2bf      	uxth	r7, r7
 80207e6:	fbb1 f0fe 	udiv	r0, r1, lr
 80207ea:	fb0e 1110 	mls	r1, lr, r0, r1
 80207ee:	ea47 4701 	orr.w	r7, r7, r1, lsl #16
 80207f2:	fb00 f808 	mul.w	r8, r0, r8
 80207f6:	45b8      	cmp	r8, r7
 80207f8:	d907      	bls.n	802080a <__udivmoddi4+0x24a>
 80207fa:	19e7      	adds	r7, r4, r7
 80207fc:	f100 31ff 	add.w	r1, r0, #4294967295	; 0xffffffff
 8020800:	d22e      	bcs.n	8020860 <__udivmoddi4+0x2a0>
 8020802:	45b8      	cmp	r8, r7
 8020804:	d92c      	bls.n	8020860 <__udivmoddi4+0x2a0>
 8020806:	3802      	subs	r0, #2
 8020808:	4427      	add	r7, r4
 802080a:	ea40 4009 	orr.w	r0, r0, r9, lsl #16
 802080e:	eba7 0708 	sub.w	r7, r7, r8
 8020812:	fba0 8902 	umull	r8, r9, r0, r2
 8020816:	454f      	cmp	r7, r9
 8020818:	46c6      	mov	lr, r8
 802081a:	4649      	mov	r1, r9
 802081c:	d31a      	bcc.n	8020854 <__udivmoddi4+0x294>
 802081e:	d017      	beq.n	8020850 <__udivmoddi4+0x290>
 8020820:	b15d      	cbz	r5, 802083a <__udivmoddi4+0x27a>
 8020822:	ebb3 020e 	subs.w	r2, r3, lr
 8020826:	eb67 0701 	sbc.w	r7, r7, r1
 802082a:	fa07 fc0c 	lsl.w	ip, r7, ip
 802082e:	40f2      	lsrs	r2, r6
 8020830:	ea4c 0202 	orr.w	r2, ip, r2
 8020834:	40f7      	lsrs	r7, r6
 8020836:	e9c5 2700 	strd	r2, r7, [r5]
 802083a:	2600      	movs	r6, #0
 802083c:	4631      	mov	r1, r6
 802083e:	e8bd 87f0 	ldmia.w	sp!, {r4, r5, r6, r7, r8, r9, sl, pc}
 8020842:	462e      	mov	r6, r5
 8020844:	4628      	mov	r0, r5
 8020846:	e70b      	b.n	8020660 <__udivmoddi4+0xa0>
 8020848:	4606      	mov	r6, r0
 802084a:	e6e9      	b.n	8020620 <__udivmoddi4+0x60>
 802084c:	4618      	mov	r0, r3
 802084e:	e6fd      	b.n	802064c <__udivmoddi4+0x8c>
 8020850:	4543      	cmp	r3, r8
 8020852:	d2e5      	bcs.n	8020820 <__udivmoddi4+0x260>
 8020854:	ebb8 0e02 	subs.w	lr, r8, r2
 8020858:	eb69 0104 	sbc.w	r1, r9, r4
 802085c:	3801      	subs	r0, #1
 802085e:	e7df      	b.n	8020820 <__udivmoddi4+0x260>
 8020860:	4608      	mov	r0, r1
 8020862:	e7d2      	b.n	802080a <__udivmoddi4+0x24a>
 8020864:	4660      	mov	r0, ip
 8020866:	e78d      	b.n	8020784 <__udivmoddi4+0x1c4>
 8020868:	4681      	mov	r9, r0
 802086a:	e7b9      	b.n	80207e0 <__udivmoddi4+0x220>
 802086c:	4666      	mov	r6, ip
 802086e:	e775      	b.n	802075c <__udivmoddi4+0x19c>
 8020870:	4630      	mov	r0, r6
 8020872:	e74a      	b.n	802070a <__udivmoddi4+0x14a>
 8020874:	f1ac 0c02 	sub.w	ip, ip, #2
 8020878:	4439      	add	r1, r7
 802087a:	e713      	b.n	80206a4 <__udivmoddi4+0xe4>
 802087c:	3802      	subs	r0, #2
 802087e:	443c      	add	r4, r7
 8020880:	e724      	b.n	80206cc <__udivmoddi4+0x10c>
 8020882:	bf00      	nop

08020884 <__aeabi_idiv0>:
 8020884:	4770      	bx	lr
 8020886:	bf00      	nop

08020888 <crc32>:
 8020888:	b5f0      	push	{r4, r5, r6, r7, lr}
 802088a:	4c13      	ldr	r4, [pc, #76]	; (80208d8 <crc32+0x50>)
 802088c:	6865      	ldr	r5, [r4, #4]
 802088e:	b9a5      	cbnz	r5, 80208ba <crc32+0x32>
 8020890:	4627      	mov	r7, r4
 8020892:	f8df c048 	ldr.w	ip, [pc, #72]	; 80208dc <crc32+0x54>
 8020896:	462b      	mov	r3, r5
 8020898:	2608      	movs	r6, #8
 802089a:	f003 0e01 	and.w	lr, r3, #1
 802089e:	085b      	lsrs	r3, r3, #1
 80208a0:	f1be 0f00 	cmp.w	lr, #0
 80208a4:	d001      	beq.n	80208aa <crc32+0x22>
 80208a6:	ea83 030c 	eor.w	r3, r3, ip
 80208aa:	3e01      	subs	r6, #1
 80208ac:	d1f5      	bne.n	802089a <crc32+0x12>
 80208ae:	3501      	adds	r5, #1
 80208b0:	f847 3b04 	str.w	r3, [r7], #4
 80208b4:	f5b5 7f80 	cmp.w	r5, #256	; 0x100
 80208b8:	d1ed      	bne.n	8020896 <crc32+0xe>
 80208ba:	4603      	mov	r3, r0
 80208bc:	4401      	add	r1, r0
 80208be:	4610      	mov	r0, r2
 80208c0:	4299      	cmp	r1, r3
 80208c2:	d100      	bne.n	80208c6 <crc32+0x3e>
 80208c4:	bdf0      	pop	{r4, r5, r6, r7, pc}
 80208c6:	f813 2b01 	ldrb.w	r2, [r3], #1
 80208ca:	4042      	eors	r2, r0
 80208cc:	b2d2      	uxtb	r2, r2
 80208ce:	f854 2022 	ldr.w	r2, [r4, r2, lsl #2]
 80208d2:	ea82 2010 	eor.w	r0, r2, r0, lsr #8
 80208d6:	e7f3      	b.n	80208c0 <crc32+0x38>
 80208d8:	20000168 	.word	0x20000168
 80208dc:	edb88320 	.word	0xedb88320

080208e0 <SystemClock_Config>:
 80208e0:	b530      	push	{r4, r5, lr}
 80208e2:	b09d      	sub	sp, #116	; 0x74
 80208e4:	224c      	movs	r2, #76	; 0x4c
 80208e6:	2100      	movs	r1, #0
 80208e8:	a809      	add	r0, sp, #36	; 0x24
 80208ea:	f005 f8fd 	bl	8025ae8 <memset>
 80208ee:	2220      	movs	r2, #32
 80208f0:	2100      	movs	r1, #0
 80208f2:	a801      	add	r0, sp, #4
 80208f4:	f005 f8f8 	bl	8025ae8 <memset>
 80208f8:	2002      	movs	r0, #2
 80208fa:	f001 f8ab 	bl	8021a54 <HAL_PWREx_ConfigSupply>
 80208fe:	2300      	movs	r3, #0
 8020900:	9300      	str	r3, [sp, #0]
 8020902:	4b1c      	ldr	r3, [pc, #112]	; (8020974 <SystemClock_Config+0x94>)
 8020904:	6ada      	ldr	r2, [r3, #44]	; 0x2c
 8020906:	f022 0201 	bic.w	r2, r2, #1
 802090a:	62da      	str	r2, [r3, #44]	; 0x2c
 802090c:	6adb      	ldr	r3, [r3, #44]	; 0x2c
 802090e:	f003 0301 	and.w	r3, r3, #1
 8020912:	9300      	str	r3, [sp, #0]
 8020914:	4b18      	ldr	r3, [pc, #96]	; (8020978 <SystemClock_Config+0x98>)
 8020916:	699a      	ldr	r2, [r3, #24]
 8020918:	f422 4240 	bic.w	r2, r2, #49152	; 0xc000
 802091c:	f442 4280 	orr.w	r2, r2, #16384	; 0x4000
 8020920:	619a      	str	r2, [r3, #24]
 8020922:	699a      	ldr	r2, [r3, #24]
 8020924:	f402 4240 	and.w	r2, r2, #49152	; 0xc000
 8020928:	9200      	str	r2, [sp, #0]
 802092a:	9a00      	ldr	r2, [sp, #0]
 802092c:	699a      	ldr	r2, [r3, #24]
 802092e:	0492      	lsls	r2, r2, #18
 8020930:	d5fc      	bpl.n	802092c <SystemClock_Config+0x4c>
 8020932:	2322      	movs	r3, #34	; 0x22
 8020934:	2401      	movs	r4, #1
 8020936:	2540      	movs	r5, #64	; 0x40
 8020938:	a809      	add	r0, sp, #36	; 0x24
 802093a:	9309      	str	r3, [sp, #36]	; 0x24
 802093c:	2300      	movs	r3, #0
 802093e:	940f      	str	r4, [sp, #60]	; 0x3c
 8020940:	9312      	str	r3, [sp, #72]	; 0x48
 8020942:	e9cd 450c 	strd	r4, r5, [sp, #48]	; 0x30
 8020946:	f001 f8a9 	bl	8021a9c <HAL_RCC_OscConfig>
 802094a:	b108      	cbz	r0, 8020950 <SystemClock_Config+0x70>
 802094c:	b672      	cpsid	i
 802094e:	e7fe      	b.n	802094e <SystemClock_Config+0x6e>
 8020950:	233f      	movs	r3, #63	; 0x3f
 8020952:	4621      	mov	r1, r4
 8020954:	e9cd 3001 	strd	r3, r0, [sp, #4]
 8020958:	e9cd 0003 	strd	r0, r0, [sp, #12]
 802095c:	e9cd 0505 	strd	r0, r5, [sp, #20]
 8020960:	e9cd 0007 	strd	r0, r0, [sp, #28]
 8020964:	a801      	add	r0, sp, #4
 8020966:	f001 fbd1 	bl	802210c <HAL_RCC_ClockConfig>
 802096a:	b108      	cbz	r0, 8020970 <SystemClock_Config+0x90>
 802096c:	b672      	cpsid	i
 802096e:	e7fe      	b.n	802096e <SystemClock_Config+0x8e>
 8020970:	b01d      	add	sp, #116	; 0x74
 8020972:	bd30      	pop	{r4, r5, pc}
 8020974:	58000400 	.word	0x58000400
 8020978:	58024800 	.word	0x58024800

0802097c <PeriphCommonClock_Config>:
 802097c:	b500      	push	{lr}
 802097e:	b0b1      	sub	sp, #196	; 0xc4
 8020980:	22b8      	movs	r2, #184	; 0xb8
 8020982:	2100      	movs	r1, #0
 8020984:	a802      	add	r0, sp, #8
 8020986:	f005 f8af 	bl	8025ae8 <memset>
 802098a:	f04f 4300 	mov.w	r3, #2147483648	; 0x80000000
 802098e:	a801      	add	r0, sp, #4
 8020990:	9301      	str	r3, [sp, #4]
 8020992:	f001 fe17 	bl	80225c4 <HAL_RCCEx_PeriphCLKConfig>
 8020996:	b108      	cbz	r0, 802099c <PeriphCommonClock_Config+0x20>
 8020998:	b672      	cpsid	i
 802099a:	e7fe      	b.n	802099a <PeriphCommonClock_Config+0x1e>
 802099c:	b031      	add	sp, #196	; 0xc4
 802099e:	f85d fb04 	ldr.w	pc, [sp], #4
	...

080209a4 <main>:
 80209a4:	e92d 41f0 	stmdb	sp!, {r4, r5, r6, r7, r8, lr}
 80209a8:	f5ad 5d03 	sub.w	sp, sp, #8384	; 0x20c0
 80209ac:	2400      	movs	r4, #0
 80209ae:	f000 fc3b 	bl	8021228 <HAL_Init>
 80209b2:	2701      	movs	r7, #1
 80209b4:	f50d 5685 	add.w	r6, sp, #4256	; 0x10a0
 80209b8:	f7ff ff92 	bl	80208e0 <SystemClock_Config>
 80209bc:	f7ff ffde 	bl	802097c <PeriphCommonClock_Config>
 80209c0:	2214      	movs	r2, #20
 80209c2:	f1a6 0514 	sub.w	r5, r6, #20
 80209c6:	2100      	movs	r1, #0
 80209c8:	f04f 0880 	mov.w	r8, #128	; 0x80
 80209cc:	4628      	mov	r0, r5
 80209ce:	f005 f88b 	bl	8025ae8 <memset>
 80209d2:	4ba0      	ldr	r3, [pc, #640]	; (8020c54 <main+0x2b0>)
 80209d4:	f44f 4181 	mov.w	r1, #16512	; 0x4080
 80209d8:	489f      	ldr	r0, [pc, #636]	; (8020c58 <main+0x2b4>)
 80209da:	f8d3 20e0 	ldr.w	r2, [r3, #224]	; 0xe0
 80209de:	f042 0204 	orr.w	r2, r2, #4
 80209e2:	f8c3 20e0 	str.w	r2, [r3, #224]	; 0xe0
 80209e6:	f8d3 20e0 	ldr.w	r2, [r3, #224]	; 0xe0
 80209ea:	f002 0204 	and.w	r2, r2, #4
 80209ee:	9204      	str	r2, [sp, #16]
 80209f0:	9a04      	ldr	r2, [sp, #16]
 80209f2:	f8d3 20e0 	ldr.w	r2, [r3, #224]	; 0xe0
 80209f6:	f042 0280 	orr.w	r2, r2, #128	; 0x80
 80209fa:	f8c3 20e0 	str.w	r2, [r3, #224]	; 0xe0
 80209fe:	f8d3 20e0 	ldr.w	r2, [r3, #224]	; 0xe0
 8020a02:	f002 0280 	and.w	r2, r2, #128	; 0x80
 8020a06:	9205      	str	r2, [sp, #20]
 8020a08:	9a05      	ldr	r2, [sp, #20]
 8020a0a:	f8d3 20e0 	ldr.w	r2, [r3, #224]	; 0xe0
 8020a0e:	f042 0201 	orr.w	r2, r2, #1
 8020a12:	f8c3 20e0 	str.w	r2, [r3, #224]	; 0xe0
 8020a16:	f8d3 20e0 	ldr.w	r2, [r3, #224]	; 0xe0
 8020a1a:	f002 0201 	and.w	r2, r2, #1
 8020a1e:	9206      	str	r2, [sp, #24]
 8020a20:	9a06      	ldr	r2, [sp, #24]
 8020a22:	f8d3 20e0 	ldr.w	r2, [r3, #224]	; 0xe0
 8020a26:	f042 0202 	orr.w	r2, r2, #2
 8020a2a:	f8c3 20e0 	str.w	r2, [r3, #224]	; 0xe0
 8020a2e:	f8d3 20e0 	ldr.w	r2, [r3, #224]	; 0xe0
 8020a32:	f002 0202 	and.w	r2, r2, #2
 8020a36:	9207      	str	r2, [sp, #28]
 8020a38:	9a07      	ldr	r2, [sp, #28]
 8020a3a:	f8d3 20e0 	ldr.w	r2, [r3, #224]	; 0xe0
 8020a3e:	f042 0208 	orr.w	r2, r2, #8
 8020a42:	f8c3 20e0 	str.w	r2, [r3, #224]	; 0xe0
 8020a46:	f8d3 20e0 	ldr.w	r2, [r3, #224]	; 0xe0
 8020a4a:	f002 0208 	and.w	r2, r2, #8
 8020a4e:	9208      	str	r2, [sp, #32]
 8020a50:	9a08      	ldr	r2, [sp, #32]
 8020a52:	f8d3 20e0 	ldr.w	r2, [r3, #224]	; 0xe0
 8020a56:	f042 0240 	orr.w	r2, r2, #64	; 0x40
 8020a5a:	f8c3 20e0 	str.w	r2, [r3, #224]	; 0xe0
 8020a5e:	2200      	movs	r2, #0
 8020a60:	f8d3 30e0 	ldr.w	r3, [r3, #224]	; 0xe0
 8020a64:	f003 0340 	and.w	r3, r3, #64	; 0x40
 8020a68:	9309      	str	r3, [sp, #36]	; 0x24
 8020a6a:	9b09      	ldr	r3, [sp, #36]	; 0x24
 8020a6c:	f000 ffe4 	bl	8021a38 <HAL_GPIO_WritePin>
 8020a70:	2200      	movs	r2, #0
 8020a72:	2140      	movs	r1, #64	; 0x40
 8020a74:	4879      	ldr	r0, [pc, #484]	; (8020c5c <main+0x2b8>)
 8020a76:	f000 ffdf 	bl	8021a38 <HAL_GPIO_WritePin>
 8020a7a:	f44f 5300 	mov.w	r3, #8192	; 0x2000
 8020a7e:	4629      	mov	r1, r5
 8020a80:	4877      	ldr	r0, [pc, #476]	; (8020c60 <main+0x2bc>)
 8020a82:	f846 3c14 	str.w	r3, [r6, #-20]
 8020a86:	4b77      	ldr	r3, [pc, #476]	; (8020c64 <main+0x2c0>)
 8020a88:	e9c5 3401 	strd	r3, r4, [r5, #4]
 8020a8c:	f000 feee 	bl	802186c <HAL_GPIO_Init>
 8020a90:	f44f 4381 	mov.w	r3, #16512	; 0x4080
 8020a94:	4629      	mov	r1, r5
 8020a96:	4870      	ldr	r0, [pc, #448]	; (8020c58 <main+0x2b4>)
 8020a98:	f846 3c14 	str.w	r3, [r6, #-20]
 8020a9c:	60ec      	str	r4, [r5, #12]
 8020a9e:	e9c5 7401 	strd	r7, r4, [r5, #4]
 8020aa2:	f000 fee3 	bl	802186c <HAL_GPIO_Init>
 8020aa6:	2340      	movs	r3, #64	; 0x40
 8020aa8:	4629      	mov	r1, r5
 8020aaa:	486c      	ldr	r0, [pc, #432]	; (8020c5c <main+0x2b8>)
 8020aac:	f846 3c14 	str.w	r3, [r6, #-20]
 8020ab0:	60ec      	str	r4, [r5, #12]
 8020ab2:	e9c5 7401 	strd	r7, r4, [r5, #4]
 8020ab6:	f000 fed9 	bl	802186c <HAL_GPIO_Init>
 8020aba:	4629      	mov	r1, r5
 8020abc:	4867      	ldr	r0, [pc, #412]	; (8020c5c <main+0x2b8>)
 8020abe:	f846 8c14 	str.w	r8, [r6, #-20]
 8020ac2:	e9c5 4401 	strd	r4, r4, [r5, #4]
 8020ac6:	f000 fed1 	bl	802186c <HAL_GPIO_Init>
 8020aca:	f44f 53e8 	mov.w	r3, #7424	; 0x1d00
 8020ace:	4629      	mov	r1, r5
 8020ad0:	4865      	ldr	r0, [pc, #404]	; (8020c68 <main+0x2c4>)
 8020ad2:	f846 3c14 	str.w	r3, [r6, #-20]
 8020ad6:	2302      	movs	r3, #2
 8020ad8:	60ec      	str	r4, [r5, #12]
 8020ada:	e9c5 3401 	strd	r3, r4, [r5, #4]
 8020ade:	230a      	movs	r3, #10
 8020ae0:	612b      	str	r3, [r5, #16]
 8020ae2:	f000 fec3 	bl	802186c <HAL_GPIO_Init>
 8020ae6:	4861      	ldr	r0, [pc, #388]	; (8020c6c <main+0x2c8>)
 8020ae8:	f44f 0180 	mov.w	r1, #4194304	; 0x400000
 8020aec:	4b60      	ldr	r3, [pc, #384]	; (8020c70 <main+0x2cc>)
 8020aee:	6084      	str	r4, [r0, #8]
 8020af0:	6584      	str	r4, [r0, #88]	; 0x58
 8020af2:	e9c0 3400 	strd	r3, r4, [r0]
 8020af6:	2307      	movs	r3, #7
 8020af8:	e9c0 3403 	strd	r3, r4, [r0, #12]
 8020afc:	f240 1307 	movw	r3, #263	; 0x107
 8020b00:	e9c0 4405 	strd	r4, r4, [r0, #20]
 8020b04:	e9c0 4408 	strd	r4, r4, [r0, #32]
 8020b08:	e9c0 130a 	strd	r1, r3, [r0, #40]	; 0x28
 8020b0c:	e9c0 440c 	strd	r4, r4, [r0, #48]	; 0x30
 8020b10:	e9c0 440e 	strd	r4, r4, [r0, #56]	; 0x38
 8020b14:	e9c0 4410 	strd	r4, r4, [r0, #64]	; 0x40
 8020b18:	e9c0 4412 	strd	r4, r4, [r0, #72]	; 0x48
 8020b1c:	e9c0 4414 	strd	r4, r4, [r0, #80]	; 0x50
 8020b20:	f002 fbe2 	bl	80232e8 <HAL_SPI_Init>
 8020b24:	4606      	mov	r6, r0
 8020b26:	b108      	cbz	r0, 8020b2c <main+0x188>
 8020b28:	b672      	cpsid	i
 8020b2a:	e7fe      	b.n	8020b2a <main+0x186>
 8020b2c:	f003 f9a8 	bl	8023e80 <MX_FATFS_Init>
 8020b30:	4c50      	ldr	r4, [pc, #320]	; (8020c74 <main+0x2d0>)
 8020b32:	4a51      	ldr	r2, [pc, #324]	; (8020c78 <main+0x2d4>)
 8020b34:	f44f 33e1 	mov.w	r3, #115200	; 0x1c200
 8020b38:	4620      	mov	r0, r4
 8020b3a:	6126      	str	r6, [r4, #16]
 8020b3c:	e9c4 2300 	strd	r2, r3, [r4]
 8020b40:	230c      	movs	r3, #12
 8020b42:	e9c4 6602 	strd	r6, r6, [r4, #8]
 8020b46:	e9c4 3605 	strd	r3, r6, [r4, #20]
 8020b4a:	e9c4 6607 	strd	r6, r6, [r4, #28]
 8020b4e:	e9c4 6609 	strd	r6, r6, [r4, #36]	; 0x24
 8020b52:	f003 f8df 	bl	8023d14 <HAL_UART_Init>
 8020b56:	4601      	mov	r1, r0
 8020b58:	b108      	cbz	r0, 8020b5e <main+0x1ba>
 8020b5a:	b672      	cpsid	i
 8020b5c:	e7fe      	b.n	8020b5c <main+0x1b8>
 8020b5e:	4620      	mov	r0, r4
 8020b60:	f003 f945 	bl	8023dee <HAL_UARTEx_SetTxFifoThreshold>
 8020b64:	4601      	mov	r1, r0
 8020b66:	b108      	cbz	r0, 8020b6c <main+0x1c8>
 8020b68:	b672      	cpsid	i
 8020b6a:	e7fe      	b.n	8020b6a <main+0x1c6>
 8020b6c:	4620      	mov	r0, r4
 8020b6e:	f003 f962 	bl	8023e36 <HAL_UARTEx_SetRxFifoThreshold>
 8020b72:	b108      	cbz	r0, 8020b78 <main+0x1d4>
 8020b74:	b672      	cpsid	i
 8020b76:	e7fe      	b.n	8020b76 <main+0x1d2>
 8020b78:	4620      	mov	r0, r4
 8020b7a:	f003 f91d 	bl	8023db8 <HAL_UARTEx_DisableFifoMode>
 8020b7e:	4603      	mov	r3, r0
 8020b80:	b108      	cbz	r0, 8020b86 <main+0x1e2>
 8020b82:	b672      	cpsid	i
 8020b84:	e7fe      	b.n	8020b84 <main+0x1e0>
 8020b86:	483d      	ldr	r0, [pc, #244]	; (8020c7c <main+0x2d8>)
 8020b88:	21e1      	movs	r1, #225	; 0xe1
 8020b8a:	4a3d      	ldr	r2, [pc, #244]	; (8020c80 <main+0x2dc>)
 8020b8c:	6002      	str	r2, [r0, #0]
 8020b8e:	6842      	ldr	r2, [r0, #4]
 8020b90:	7013      	strb	r3, [r2, #0]
 8020b92:	6842      	ldr	r2, [r0, #4]
 8020b94:	f882 8001 	strb.w	r8, [r2, #1]
 8020b98:	6842      	ldr	r2, [r0, #4]
 8020b9a:	7091      	strb	r1, [r2, #2]
 8020b9c:	6842      	ldr	r2, [r0, #4]
 8020b9e:	70d3      	strb	r3, [r2, #3]
 8020ba0:	6842      	ldr	r2, [r0, #4]
 8020ba2:	7113      	strb	r3, [r2, #4]
 8020ba4:	6842      	ldr	r2, [r0, #4]
 8020ba6:	7153      	strb	r3, [r2, #5]
 8020ba8:	4b36      	ldr	r3, [pc, #216]	; (8020c84 <main+0x2e0>)
 8020baa:	7207      	strb	r7, [r0, #8]
 8020bac:	60c3      	str	r3, [r0, #12]
 8020bae:	4b36      	ldr	r3, [pc, #216]	; (8020c88 <main+0x2e4>)
 8020bb0:	6103      	str	r3, [r0, #16]
 8020bb2:	f240 53f4 	movw	r3, #1524	; 0x5f4
 8020bb6:	6143      	str	r3, [r0, #20]
 8020bb8:	f000 fd50 	bl	802165c <HAL_ETH_Init>
 8020bbc:	4604      	mov	r4, r0
 8020bbe:	b108      	cbz	r0, 8020bc4 <main+0x220>
 8020bc0:	b672      	cpsid	i
 8020bc2:	e7fe      	b.n	8020bc2 <main+0x21e>
 8020bc4:	4b31      	ldr	r3, [pc, #196]	; (8020c8c <main+0x2e8>)
 8020bc6:	4601      	mov	r1, r0
 8020bc8:	2230      	movs	r2, #48	; 0x30
 8020bca:	4e31      	ldr	r6, [pc, #196]	; (8020c90 <main+0x2ec>)
 8020bcc:	4618      	mov	r0, r3
 8020bce:	f8df 80d8 	ldr.w	r8, [pc, #216]	; 8020ca8 <main+0x304>
 8020bd2:	f004 ff89 	bl	8025ae8 <memset>
 8020bd6:	2121      	movs	r1, #33	; 0x21
 8020bd8:	1f02      	subs	r2, r0, #4
 8020bda:	f44f 3340 	mov.w	r3, #196608	; 0x30000
 8020bde:	f840 1c04 	str.w	r1, [r0, #-4]
 8020be2:	e9c2 4304 	strd	r4, r3, [r2, #16]
 8020be6:	4622      	mov	r2, r4
 8020be8:	6877      	ldr	r7, [r6, #4]
 8020bea:	68b3      	ldr	r3, [r6, #8]
 8020bec:	42a3      	cmp	r3, r4
 8020bee:	d813      	bhi.n	8020c18 <main+0x274>
 8020bf0:	42ba      	cmp	r2, r7
 8020bf2:	d002      	beq.n	8020bfa <main+0x256>
 8020bf4:	4827      	ldr	r0, [pc, #156]	; (8020c94 <main+0x2f0>)
 8020bf6:	f004 ff7f 	bl	8025af8 <iprintf>
 8020bfa:	f44f 707a 	mov.w	r0, #1000	; 0x3e8
 8020bfe:	f000 fb53 	bl	80212a8 <HAL_Delay>
 8020c02:	4925      	ldr	r1, [pc, #148]	; (8020c98 <main+0x2f4>)
 8020c04:	2201      	movs	r2, #1
 8020c06:	4628      	mov	r0, r5
 8020c08:	f004 fb72 	bl	80252f0 <f_mount>
 8020c0c:	4601      	mov	r1, r0
 8020c0e:	b168      	cbz	r0, 8020c2c <main+0x288>
 8020c10:	4822      	ldr	r0, [pc, #136]	; (8020c9c <main+0x2f8>)
 8020c12:	f004 ff71 	bl	8025af8 <iprintf>
 8020c16:	e7fe      	b.n	8020c16 <main+0x272>
 8020c18:	f854 3008 	ldr.w	r3, [r4, r8]
 8020c1c:	2104      	movs	r1, #4
 8020c1e:	4628      	mov	r0, r5
 8020c20:	3404      	adds	r4, #4
 8020c22:	602b      	str	r3, [r5, #0]
 8020c24:	f7ff fe30 	bl	8020888 <crc32>
 8020c28:	4602      	mov	r2, r0
 8020c2a:	e7de      	b.n	8020bea <main+0x246>
 8020c2c:	ab10      	add	r3, sp, #64	; 0x40
 8020c2e:	aa02      	add	r2, sp, #8
 8020c30:	4819      	ldr	r0, [pc, #100]	; (8020c98 <main+0x2f4>)
 8020c32:	f1a3 013c 	sub.w	r1, r3, #60	; 0x3c
 8020c36:	f004 fe7c 	bl	8025932 <f_getfree>
 8020c3a:	4601      	mov	r1, r0
 8020c3c:	b118      	cbz	r0, 8020c46 <main+0x2a2>
 8020c3e:	4818      	ldr	r0, [pc, #96]	; (8020ca0 <main+0x2fc>)
 8020c40:	f004 ff5a 	bl	8025af8 <iprintf>
 8020c44:	e7fe      	b.n	8020c44 <main+0x2a0>
 8020c46:	2201      	movs	r2, #1
 8020c48:	4916      	ldr	r1, [pc, #88]	; (8020ca4 <main+0x300>)
 8020c4a:	a817      	add	r0, sp, #92	; 0x5c
 8020c4c:	f004 fb84 	bl	8025358 <f_open>
 8020c50:	b360      	cbz	r0, 8020cac <main+0x308>
 8020c52:	e7fe      	b.n	8020c52 <main+0x2ae>
 8020c54:	58024400 	.word	0x58024400
 8020c58:	58020400 	.word	0x58020400
 8020c5c:	58021800 	.word	0x58021800
 8020c60:	58020800 	.word	0x58020800
 8020c64:	11110000 	.word	0x11110000
 8020c68:	58020000 	.word	0x58020000
 8020c6c:	2000063c 	.word	0x2000063c
 8020c70:	40013000 	.word	0x40013000
 8020c74:	200005ac 	.word	0x200005ac
 8020c78:	40004800 	.word	0x40004800
 8020c7c:	200006c4 	.word	0x200006c4
 8020c80:	40028000 	.word	0x40028000
 8020c84:	200000ec 	.word	0x200000ec
 8020c88:	2000008c 	.word	0x2000008c
 8020c8c:	20000750 	.word	0x20000750
 8020c90:	08020000 	.word	0x08020000
 8020c94:	08026ad0 	.word	0x08026ad0
 8020c98:	08026b93 	.word	0x08026b93
 8020c9c:	08026af4 	.word	0x08026af4
 8020ca0:	08026b09 	.word	0x08026b09
 8020ca4:	08026b20 	.word	0x08026b20
 8020ca8:	08020200 	.word	0x08020200
 8020cac:	aa17      	add	r2, sp, #92	; 0x5c
 8020cae:	211e      	movs	r1, #30
 8020cb0:	a80f      	add	r0, sp, #60	; 0x3c
 8020cb2:	f004 fea6 	bl	8025a02 <f_gets>
 8020cb6:	a817      	add	r0, sp, #92	; 0x5c
 8020cb8:	f004 fe2a 	bl	8025910 <f_close>
 8020cbc:	4921      	ldr	r1, [pc, #132]	; (8020d44 <main+0x3a0>)
 8020cbe:	221a      	movs	r2, #26
 8020cc0:	a817      	add	r0, sp, #92	; 0x5c
 8020cc2:	f004 fb49 	bl	8025358 <f_open>
 8020cc6:	4601      	mov	r1, r0
 8020cc8:	2800      	cmp	r0, #0
 8020cca:	d136      	bne.n	8020d3a <main+0x396>
 8020ccc:	481e      	ldr	r0, [pc, #120]	; (8020d48 <main+0x3a4>)
 8020cce:	f004 ff99 	bl	8025c04 <puts>
 8020cd2:	4b1e      	ldr	r3, [pc, #120]	; (8020d4c <main+0x3a8>)
 8020cd4:	aa0a      	add	r2, sp, #40	; 0x28
 8020cd6:	f103 0510 	add.w	r5, r3, #16
 8020cda:	6818      	ldr	r0, [r3, #0]
 8020cdc:	3308      	adds	r3, #8
 8020cde:	f853 1c04 	ldr.w	r1, [r3, #-4]
 8020ce2:	4614      	mov	r4, r2
 8020ce4:	42ab      	cmp	r3, r5
 8020ce6:	c403      	stmia	r4!, {r0, r1}
 8020ce8:	4622      	mov	r2, r4
 8020cea:	d1f6      	bne.n	8020cda <main+0x336>
 8020cec:	6818      	ldr	r0, [r3, #0]
 8020cee:	6020      	str	r0, [r4, #0]
 8020cf0:	a80a      	add	r0, sp, #40	; 0x28
 8020cf2:	f7ff fbf5 	bl	80204e0 <strlen>
 8020cf6:	a90a      	add	r1, sp, #40	; 0x28
 8020cf8:	4602      	mov	r2, r0
 8020cfa:	a80f      	add	r0, sp, #60	; 0x3c
 8020cfc:	f004 ff8a 	bl	8025c14 <strncpy>
 8020d00:	ab03      	add	r3, sp, #12
 8020d02:	2213      	movs	r2, #19
 8020d04:	a90f      	add	r1, sp, #60	; 0x3c
 8020d06:	a817      	add	r0, sp, #92	; 0x5c
 8020d08:	f004 fcea 	bl	80256e0 <f_write>
 8020d0c:	b918      	cbnz	r0, 8020d16 <main+0x372>
 8020d0e:	9903      	ldr	r1, [sp, #12]
 8020d10:	480f      	ldr	r0, [pc, #60]	; (8020d50 <main+0x3ac>)
 8020d12:	f004 fef1 	bl	8025af8 <iprintf>
 8020d16:	a817      	add	r0, sp, #92	; 0x5c
 8020d18:	4c0e      	ldr	r4, [pc, #56]	; (8020d54 <main+0x3b0>)
 8020d1a:	f004 fdf9 	bl	8025910 <f_close>
 8020d1e:	2200      	movs	r2, #0
 8020d20:	490d      	ldr	r1, [pc, #52]	; (8020d58 <main+0x3b4>)
 8020d22:	4610      	mov	r0, r2
 8020d24:	f004 fae4 	bl	80252f0 <f_mount>
 8020d28:	4620      	mov	r0, r4
 8020d2a:	2180      	movs	r1, #128	; 0x80
 8020d2c:	f000 fe89 	bl	8021a42 <HAL_GPIO_TogglePin>
 8020d30:	f44f 707a 	mov.w	r0, #1000	; 0x3e8
 8020d34:	f000 fab8 	bl	80212a8 <HAL_Delay>
 8020d38:	e7f6      	b.n	8020d28 <main+0x384>
 8020d3a:	4808      	ldr	r0, [pc, #32]	; (8020d5c <main+0x3b8>)
 8020d3c:	f004 fedc 	bl	8025af8 <iprintf>
 8020d40:	e7c7      	b.n	8020cd2 <main+0x32e>
 8020d42:	bf00      	nop
 8020d44:	08026b29 	.word	0x08026b29
 8020d48:	08026b33 	.word	0x08026b33
 8020d4c:	08026b94 	.word	0x08026b94
 8020d50:	08026b73 	.word	0x08026b73
 8020d54:	58020400 	.word	0x58020400
 8020d58:	08026b93 	.word	0x08026b93
 8020d5c:	08026b5f 	.word	0x08026b5f

08020d60 <Error_Handler>:
 8020d60:	b672      	cpsid	i
 8020d62:	e7fe      	b.n	8020d62 <Error_Handler+0x2>

08020d64 <HAL_MspInit>:
 8020d64:	4b07      	ldr	r3, [pc, #28]	; (8020d84 <HAL_MspInit+0x20>)
 8020d66:	b082      	sub	sp, #8
 8020d68:	f8d3 20f4 	ldr.w	r2, [r3, #244]	; 0xf4
 8020d6c:	f042 0202 	orr.w	r2, r2, #2
 8020d70:	f8c3 20f4 	str.w	r2, [r3, #244]	; 0xf4
 8020d74:	f8d3 30f4 	ldr.w	r3, [r3, #244]	; 0xf4
 8020d78:	f003 0302 	and.w	r3, r3, #2
 8020d7c:	9301      	str	r3, [sp, #4]
 8020d7e:	9b01      	ldr	r3, [sp, #4]
 8020d80:	b002      	add	sp, #8
 8020d82:	4770      	bx	lr
 8020d84:	58024400 	.word	0x58024400

08020d88 <HAL_ETH_MspInit>:
 8020d88:	b570      	push	{r4, r5, r6, lr}
 8020d8a:	b08c      	sub	sp, #48	; 0x30
 8020d8c:	4604      	mov	r4, r0
 8020d8e:	2214      	movs	r2, #20
 8020d90:	2100      	movs	r1, #0
 8020d92:	a807      	add	r0, sp, #28
 8020d94:	f004 fea8 	bl	8025ae8 <memset>
 8020d98:	6822      	ldr	r2, [r4, #0]
 8020d9a:	4b44      	ldr	r3, [pc, #272]	; (8020eac <HAL_ETH_MspInit+0x124>)
 8020d9c:	429a      	cmp	r2, r3
 8020d9e:	f040 8082 	bne.w	8020ea6 <HAL_ETH_MspInit+0x11e>
 8020da2:	4b43      	ldr	r3, [pc, #268]	; (8020eb0 <HAL_ETH_MspInit+0x128>)
 8020da4:	2602      	movs	r6, #2
 8020da6:	2400      	movs	r4, #0
 8020da8:	250b      	movs	r5, #11
 8020daa:	f8d3 20d8 	ldr.w	r2, [r3, #216]	; 0xd8
 8020dae:	a907      	add	r1, sp, #28
 8020db0:	4840      	ldr	r0, [pc, #256]	; (8020eb4 <HAL_ETH_MspInit+0x12c>)
 8020db2:	f442 4200 	orr.w	r2, r2, #32768	; 0x8000
 8020db6:	f8c3 20d8 	str.w	r2, [r3, #216]	; 0xd8
 8020dba:	f8d3 20d8 	ldr.w	r2, [r3, #216]	; 0xd8
 8020dbe:	f402 4200 	and.w	r2, r2, #32768	; 0x8000
 8020dc2:	9200      	str	r2, [sp, #0]
 8020dc4:	9a00      	ldr	r2, [sp, #0]
 8020dc6:	f8d3 20d8 	ldr.w	r2, [r3, #216]	; 0xd8
 8020dca:	f442 3280 	orr.w	r2, r2, #65536	; 0x10000
 8020dce:	f8c3 20d8 	str.w	r2, [r3, #216]	; 0xd8
 8020dd2:	f8d3 20d8 	ldr.w	r2, [r3, #216]	; 0xd8
 8020dd6:	f402 3280 	and.w	r2, r2, #65536	; 0x10000
 8020dda:	9201      	str	r2, [sp, #4]
 8020ddc:	9a01      	ldr	r2, [sp, #4]
 8020dde:	f8d3 20d8 	ldr.w	r2, [r3, #216]	; 0xd8
 8020de2:	f442 3200 	orr.w	r2, r2, #131072	; 0x20000
 8020de6:	f8c3 20d8 	str.w	r2, [r3, #216]	; 0xd8
 8020dea:	f8d3 20d8 	ldr.w	r2, [r3, #216]	; 0xd8
 8020dee:	f402 3200 	and.w	r2, r2, #131072	; 0x20000
 8020df2:	9202      	str	r2, [sp, #8]
 8020df4:	9a02      	ldr	r2, [sp, #8]
 8020df6:	f8d3 20e0 	ldr.w	r2, [r3, #224]	; 0xe0
 8020dfa:	f042 0204 	orr.w	r2, r2, #4
 8020dfe:	f8c3 20e0 	str.w	r2, [r3, #224]	; 0xe0
 8020e02:	f8d3 20e0 	ldr.w	r2, [r3, #224]	; 0xe0
 8020e06:	f002 0204 	and.w	r2, r2, #4
 8020e0a:	9203      	str	r2, [sp, #12]
 8020e0c:	9a03      	ldr	r2, [sp, #12]
 8020e0e:	f8d3 20e0 	ldr.w	r2, [r3, #224]	; 0xe0
 8020e12:	f042 0201 	orr.w	r2, r2, #1
 8020e16:	f8c3 20e0 	str.w	r2, [r3, #224]	; 0xe0
 8020e1a:	f8d3 20e0 	ldr.w	r2, [r3, #224]	; 0xe0
 8020e1e:	f002 0201 	and.w	r2, r2, #1
 8020e22:	9204      	str	r2, [sp, #16]
 8020e24:	9a04      	ldr	r2, [sp, #16]
 8020e26:	f8d3 20e0 	ldr.w	r2, [r3, #224]	; 0xe0
 8020e2a:	f042 0202 	orr.w	r2, r2, #2
 8020e2e:	f8c3 20e0 	str.w	r2, [r3, #224]	; 0xe0
 8020e32:	f8d3 20e0 	ldr.w	r2, [r3, #224]	; 0xe0
 8020e36:	f002 0202 	and.w	r2, r2, #2
 8020e3a:	9205      	str	r2, [sp, #20]
 8020e3c:	9a05      	ldr	r2, [sp, #20]
 8020e3e:	f8d3 20e0 	ldr.w	r2, [r3, #224]	; 0xe0
 8020e42:	f042 0240 	orr.w	r2, r2, #64	; 0x40
 8020e46:	f8c3 20e0 	str.w	r2, [r3, #224]	; 0xe0
 8020e4a:	f8d3 30e0 	ldr.w	r3, [r3, #224]	; 0xe0
 8020e4e:	950b      	str	r5, [sp, #44]	; 0x2c
 8020e50:	f003 0340 	and.w	r3, r3, #64	; 0x40
 8020e54:	9306      	str	r3, [sp, #24]
 8020e56:	9b06      	ldr	r3, [sp, #24]
 8020e58:	2332      	movs	r3, #50	; 0x32
 8020e5a:	e9cd 4409 	strd	r4, r4, [sp, #36]	; 0x24
 8020e5e:	e9cd 3607 	strd	r3, r6, [sp, #28]
 8020e62:	f000 fd03 	bl	802186c <HAL_GPIO_Init>
 8020e66:	2386      	movs	r3, #134	; 0x86
 8020e68:	a907      	add	r1, sp, #28
 8020e6a:	4813      	ldr	r0, [pc, #76]	; (8020eb8 <HAL_ETH_MspInit+0x130>)
 8020e6c:	950b      	str	r5, [sp, #44]	; 0x2c
 8020e6e:	e9cd 3607 	strd	r3, r6, [sp, #28]
 8020e72:	e9cd 4409 	strd	r4, r4, [sp, #36]	; 0x24
 8020e76:	f000 fcf9 	bl	802186c <HAL_GPIO_Init>
 8020e7a:	f44f 5300 	mov.w	r3, #8192	; 0x2000
 8020e7e:	a907      	add	r1, sp, #28
 8020e80:	480e      	ldr	r0, [pc, #56]	; (8020ebc <HAL_ETH_MspInit+0x134>)
 8020e82:	950b      	str	r5, [sp, #44]	; 0x2c
 8020e84:	e9cd 3607 	strd	r3, r6, [sp, #28]
 8020e88:	e9cd 4409 	strd	r4, r4, [sp, #36]	; 0x24
 8020e8c:	f000 fcee 	bl	802186c <HAL_GPIO_Init>
 8020e90:	f44f 5320 	mov.w	r3, #10240	; 0x2800
 8020e94:	a907      	add	r1, sp, #28
 8020e96:	480a      	ldr	r0, [pc, #40]	; (8020ec0 <HAL_ETH_MspInit+0x138>)
 8020e98:	950b      	str	r5, [sp, #44]	; 0x2c
 8020e9a:	e9cd 3607 	strd	r3, r6, [sp, #28]
 8020e9e:	e9cd 4409 	strd	r4, r4, [sp, #36]	; 0x24
 8020ea2:	f000 fce3 	bl	802186c <HAL_GPIO_Init>
 8020ea6:	b00c      	add	sp, #48	; 0x30
 8020ea8:	bd70      	pop	{r4, r5, r6, pc}
 8020eaa:	bf00      	nop
 8020eac:	40028000 	.word	0x40028000
 8020eb0:	58024400 	.word	0x58024400
 8020eb4:	58020800 	.word	0x58020800
 8020eb8:	58020000 	.word	0x58020000
 8020ebc:	58020400 	.word	0x58020400
 8020ec0:	58021800 	.word	0x58021800

08020ec4 <HAL_SPI_MspInit>:
 8020ec4:	b570      	push	{r4, r5, r6, lr}
 8020ec6:	b0b8      	sub	sp, #224	; 0xe0
 8020ec8:	4604      	mov	r4, r0
 8020eca:	2214      	movs	r2, #20
 8020ecc:	2100      	movs	r1, #0
 8020ece:	a804      	add	r0, sp, #16
 8020ed0:	f004 fe0a 	bl	8025ae8 <memset>
 8020ed4:	22bc      	movs	r2, #188	; 0xbc
 8020ed6:	2100      	movs	r1, #0
 8020ed8:	a809      	add	r0, sp, #36	; 0x24
 8020eda:	f004 fe05 	bl	8025ae8 <memset>
 8020ede:	6822      	ldr	r2, [r4, #0]
 8020ee0:	4b26      	ldr	r3, [pc, #152]	; (8020f7c <HAL_SPI_MspInit+0xb8>)
 8020ee2:	429a      	cmp	r2, r3
 8020ee4:	d147      	bne.n	8020f76 <HAL_SPI_MspInit+0xb2>
 8020ee6:	f44f 5380 	mov.w	r3, #4096	; 0x1000
 8020eea:	a809      	add	r0, sp, #36	; 0x24
 8020eec:	9309      	str	r3, [sp, #36]	; 0x24
 8020eee:	f44f 4380 	mov.w	r3, #16384	; 0x4000
 8020ef2:	9320      	str	r3, [sp, #128]	; 0x80
 8020ef4:	f001 fb66 	bl	80225c4 <HAL_RCCEx_PeriphCLKConfig>
 8020ef8:	b108      	cbz	r0, 8020efe <HAL_SPI_MspInit+0x3a>
 8020efa:	f7ff ff31 	bl	8020d60 <Error_Handler>
 8020efe:	4b20      	ldr	r3, [pc, #128]	; (8020f80 <HAL_SPI_MspInit+0xbc>)
 8020f00:	2602      	movs	r6, #2
 8020f02:	2400      	movs	r4, #0
 8020f04:	2505      	movs	r5, #5
 8020f06:	f8d3 20f0 	ldr.w	r2, [r3, #240]	; 0xf0
 8020f0a:	a904      	add	r1, sp, #16
 8020f0c:	481d      	ldr	r0, [pc, #116]	; (8020f84 <HAL_SPI_MspInit+0xc0>)
 8020f0e:	f442 5280 	orr.w	r2, r2, #4096	; 0x1000
 8020f12:	f8c3 20f0 	str.w	r2, [r3, #240]	; 0xf0
 8020f16:	f8d3 20f0 	ldr.w	r2, [r3, #240]	; 0xf0
 8020f1a:	f402 5280 	and.w	r2, r2, #4096	; 0x1000
 8020f1e:	9201      	str	r2, [sp, #4]
 8020f20:	9a01      	ldr	r2, [sp, #4]
 8020f22:	f8d3 20e0 	ldr.w	r2, [r3, #224]	; 0xe0
 8020f26:	f042 0201 	orr.w	r2, r2, #1
 8020f2a:	f8c3 20e0 	str.w	r2, [r3, #224]	; 0xe0
 8020f2e:	f8d3 20e0 	ldr.w	r2, [r3, #224]	; 0xe0
 8020f32:	f002 0201 	and.w	r2, r2, #1
 8020f36:	9202      	str	r2, [sp, #8]
 8020f38:	9a02      	ldr	r2, [sp, #8]
 8020f3a:	f8d3 20e0 	ldr.w	r2, [r3, #224]	; 0xe0
 8020f3e:	f042 0208 	orr.w	r2, r2, #8
 8020f42:	f8c3 20e0 	str.w	r2, [r3, #224]	; 0xe0
 8020f46:	f8d3 30e0 	ldr.w	r3, [r3, #224]	; 0xe0
 8020f4a:	9508      	str	r5, [sp, #32]
 8020f4c:	f003 0308 	and.w	r3, r3, #8
 8020f50:	9303      	str	r3, [sp, #12]
 8020f52:	9b03      	ldr	r3, [sp, #12]
 8020f54:	2370      	movs	r3, #112	; 0x70
 8020f56:	e9cd 4406 	strd	r4, r4, [sp, #24]
 8020f5a:	e9cd 3604 	strd	r3, r6, [sp, #16]
 8020f5e:	f000 fc85 	bl	802186c <HAL_GPIO_Init>
 8020f62:	2380      	movs	r3, #128	; 0x80
 8020f64:	a904      	add	r1, sp, #16
 8020f66:	4808      	ldr	r0, [pc, #32]	; (8020f88 <HAL_SPI_MspInit+0xc4>)
 8020f68:	9508      	str	r5, [sp, #32]
 8020f6a:	e9cd 3604 	strd	r3, r6, [sp, #16]
 8020f6e:	e9cd 4406 	strd	r4, r4, [sp, #24]
 8020f72:	f000 fc7b 	bl	802186c <HAL_GPIO_Init>
 8020f76:	b038      	add	sp, #224	; 0xe0
 8020f78:	bd70      	pop	{r4, r5, r6, pc}
 8020f7a:	bf00      	nop
 8020f7c:	40013000 	.word	0x40013000
 8020f80:	58024400 	.word	0x58024400
 8020f84:	58020000 	.word	0x58020000
 8020f88:	58020c00 	.word	0x58020c00

08020f8c <HAL_UART_MspInit>:
 8020f8c:	b510      	push	{r4, lr}
 8020f8e:	b0b6      	sub	sp, #216	; 0xd8
 8020f90:	4604      	mov	r4, r0
 8020f92:	2214      	movs	r2, #20
 8020f94:	2100      	movs	r1, #0
 8020f96:	a802      	add	r0, sp, #8
 8020f98:	f004 fda6 	bl	8025ae8 <memset>
 8020f9c:	22bc      	movs	r2, #188	; 0xbc
 8020f9e:	2100      	movs	r1, #0
 8020fa0:	a807      	add	r0, sp, #28
 8020fa2:	f004 fda1 	bl	8025ae8 <memset>
 8020fa6:	6822      	ldr	r2, [r4, #0]
 8020fa8:	4b1a      	ldr	r3, [pc, #104]	; (8021014 <HAL_UART_MspInit+0x88>)
 8020faa:	429a      	cmp	r2, r3
 8020fac:	d130      	bne.n	8021010 <HAL_UART_MspInit+0x84>
 8020fae:	2302      	movs	r3, #2
 8020fb0:	a807      	add	r0, sp, #28
 8020fb2:	9307      	str	r3, [sp, #28]
 8020fb4:	2300      	movs	r3, #0
 8020fb6:	9324      	str	r3, [sp, #144]	; 0x90
 8020fb8:	f001 fb04 	bl	80225c4 <HAL_RCCEx_PeriphCLKConfig>
 8020fbc:	b108      	cbz	r0, 8020fc2 <HAL_UART_MspInit+0x36>
 8020fbe:	f7ff fecf 	bl	8020d60 <Error_Handler>
 8020fc2:	4b15      	ldr	r3, [pc, #84]	; (8021018 <HAL_UART_MspInit+0x8c>)
 8020fc4:	a902      	add	r1, sp, #8
 8020fc6:	4815      	ldr	r0, [pc, #84]	; (802101c <HAL_UART_MspInit+0x90>)
 8020fc8:	f8d3 20e8 	ldr.w	r2, [r3, #232]	; 0xe8
 8020fcc:	f442 2280 	orr.w	r2, r2, #262144	; 0x40000
 8020fd0:	f8c3 20e8 	str.w	r2, [r3, #232]	; 0xe8
 8020fd4:	f8d3 20e8 	ldr.w	r2, [r3, #232]	; 0xe8
 8020fd8:	f402 2280 	and.w	r2, r2, #262144	; 0x40000
 8020fdc:	9200      	str	r2, [sp, #0]
 8020fde:	9a00      	ldr	r2, [sp, #0]
 8020fe0:	f8d3 20e0 	ldr.w	r2, [r3, #224]	; 0xe0
 8020fe4:	f042 0208 	orr.w	r2, r2, #8
 8020fe8:	f8c3 20e0 	str.w	r2, [r3, #224]	; 0xe0
 8020fec:	f44f 7240 	mov.w	r2, #768	; 0x300
 8020ff0:	f8d3 30e0 	ldr.w	r3, [r3, #224]	; 0xe0
 8020ff4:	f003 0308 	and.w	r3, r3, #8
 8020ff8:	9301      	str	r3, [sp, #4]
 8020ffa:	9b01      	ldr	r3, [sp, #4]
 8020ffc:	2302      	movs	r3, #2
 8020ffe:	e9cd 2302 	strd	r2, r3, [sp, #8]
 8021002:	2300      	movs	r3, #0
 8021004:	e9cd 3304 	strd	r3, r3, [sp, #16]
 8021008:	2307      	movs	r3, #7
 802100a:	9306      	str	r3, [sp, #24]
 802100c:	f000 fc2e 	bl	802186c <HAL_GPIO_Init>
 8021010:	b036      	add	sp, #216	; 0xd8
 8021012:	bd10      	pop	{r4, pc}
 8021014:	40004800 	.word	0x40004800
 8021018:	58024400 	.word	0x58024400
 802101c:	58020c00 	.word	0x58020c00

08021020 <NMI_Handler>:
 8021020:	e7fe      	b.n	8021020 <NMI_Handler>

08021022 <HardFault_Handler>:
 8021022:	e7fe      	b.n	8021022 <HardFault_Handler>

08021024 <MemManage_Handler>:
 8021024:	e7fe      	b.n	8021024 <MemManage_Handler>

08021026 <BusFault_Handler>:
 8021026:	e7fe      	b.n	8021026 <BusFault_Handler>

08021028 <UsageFault_Handler>:
 8021028:	e7fe      	b.n	8021028 <UsageFault_Handler>

0802102a <SVC_Handler>:
 802102a:	4770      	bx	lr

0802102c <DebugMon_Handler>:
 802102c:	4770      	bx	lr

0802102e <PendSV_Handler>:
 802102e:	4770      	bx	lr

08021030 <SysTick_Handler>:
 8021030:	f000 b928 	b.w	8021284 <HAL_IncTick>

08021034 <_read>:
 8021034:	b570      	push	{r4, r5, r6, lr}
 8021036:	460e      	mov	r6, r1
 8021038:	4614      	mov	r4, r2
 802103a:	2500      	movs	r5, #0
 802103c:	42a5      	cmp	r5, r4
 802103e:	db01      	blt.n	8021044 <_read+0x10>
 8021040:	4620      	mov	r0, r4
 8021042:	bd70      	pop	{r4, r5, r6, pc}
 8021044:	f3af 8000 	nop.w
 8021048:	5570      	strb	r0, [r6, r5]
 802104a:	3501      	adds	r5, #1
 802104c:	e7f6      	b.n	802103c <_read+0x8>

0802104e <_write>:
 802104e:	b570      	push	{r4, r5, r6, lr}
 8021050:	460e      	mov	r6, r1
 8021052:	4614      	mov	r4, r2
 8021054:	2500      	movs	r5, #0
 8021056:	42a5      	cmp	r5, r4
 8021058:	db01      	blt.n	802105e <_write+0x10>
 802105a:	4620      	mov	r0, r4
 802105c:	bd70      	pop	{r4, r5, r6, pc}
 802105e:	5d70      	ldrb	r0, [r6, r5]
 8021060:	3501      	adds	r5, #1
 8021062:	f3af 8000 	nop.w
 8021066:	e7f6      	b.n	8021056 <_write+0x8>

08021068 <_close>:
 8021068:	f04f 30ff 	mov.w	r0, #4294967295	; 0xffffffff
 802106c:	4770      	bx	lr

0802106e <_fstat>:
 802106e:	f44f 5300 	mov.w	r3, #8192	; 0x2000
 8021072:	2000      	movs	r0, #0
 8021074:	604b      	str	r3, [r1, #4]
 8021076:	4770      	bx	lr

08021078 <_isatty>:
 8021078:	2001      	movs	r0, #1
 802107a:	4770      	bx	lr

0802107c <_lseek>:
 802107c:	2000      	movs	r0, #0
 802107e:	4770      	bx	lr

08021080 <_sbrk>:
 8021080:	4b0b      	ldr	r3, [pc, #44]	; (80210b0 <_sbrk+0x30>)
 8021082:	4602      	mov	r2, r0
 8021084:	6819      	ldr	r1, [r3, #0]
 8021086:	b510      	push	{r4, lr}
 8021088:	b909      	cbnz	r1, 802108e <_sbrk+0xe>
 802108a:	490a      	ldr	r1, [pc, #40]	; (80210b4 <_sbrk+0x34>)
 802108c:	6019      	str	r1, [r3, #0]
 802108e:	6818      	ldr	r0, [r3, #0]
 8021090:	4909      	ldr	r1, [pc, #36]	; (80210b8 <_sbrk+0x38>)
 8021092:	4c0a      	ldr	r4, [pc, #40]	; (80210bc <_sbrk+0x3c>)
 8021094:	4402      	add	r2, r0
 8021096:	1b09      	subs	r1, r1, r4
 8021098:	428a      	cmp	r2, r1
 802109a:	d906      	bls.n	80210aa <_sbrk+0x2a>
 802109c:	f004 fcfa 	bl	8025a94 <__errno>
 80210a0:	230c      	movs	r3, #12
 80210a2:	6003      	str	r3, [r0, #0]
 80210a4:	f04f 30ff 	mov.w	r0, #4294967295	; 0xffffffff
 80210a8:	bd10      	pop	{r4, pc}
 80210aa:	601a      	str	r2, [r3, #0]
 80210ac:	e7fc      	b.n	80210a8 <_sbrk+0x28>
 80210ae:	bf00      	nop
 80210b0:	20000568 	.word	0x20000568
 80210b4:	20002808 	.word	0x20002808
 80210b8:	20020000 	.word	0x20020000
 80210bc:	00000400 	.word	0x00000400

080210c0 <SystemInit>:
 80210c0:	4a26      	ldr	r2, [pc, #152]	; (802115c <SystemInit+0x9c>)
 80210c2:	f8d2 3088 	ldr.w	r3, [r2, #136]	; 0x88
 80210c6:	f443 0370 	orr.w	r3, r3, #15728640	; 0xf00000
 80210ca:	f8c2 3088 	str.w	r3, [r2, #136]	; 0x88
 80210ce:	4a24      	ldr	r2, [pc, #144]	; (8021160 <SystemInit+0xa0>)
 80210d0:	6813      	ldr	r3, [r2, #0]
 80210d2:	f003 030f 	and.w	r3, r3, #15
 80210d6:	2b06      	cmp	r3, #6
 80210d8:	d805      	bhi.n	80210e6 <SystemInit+0x26>
 80210da:	6813      	ldr	r3, [r2, #0]
 80210dc:	f023 030f 	bic.w	r3, r3, #15
 80210e0:	f043 0307 	orr.w	r3, r3, #7
 80210e4:	6013      	str	r3, [r2, #0]
 80210e6:	4b1f      	ldr	r3, [pc, #124]	; (8021164 <SystemInit+0xa4>)
 80210e8:	681a      	ldr	r2, [r3, #0]
 80210ea:	f042 0201 	orr.w	r2, r2, #1
 80210ee:	601a      	str	r2, [r3, #0]
 80210f0:	2200      	movs	r2, #0
 80210f2:	611a      	str	r2, [r3, #16]
 80210f4:	4a1c      	ldr	r2, [pc, #112]	; (8021168 <SystemInit+0xa8>)
 80210f6:	6819      	ldr	r1, [r3, #0]
 80210f8:	400a      	ands	r2, r1
 80210fa:	4919      	ldr	r1, [pc, #100]	; (8021160 <SystemInit+0xa0>)
 80210fc:	601a      	str	r2, [r3, #0]
 80210fe:	680a      	ldr	r2, [r1, #0]
 8021100:	0712      	lsls	r2, r2, #28
 8021102:	d505      	bpl.n	8021110 <SystemInit+0x50>
 8021104:	680a      	ldr	r2, [r1, #0]
 8021106:	f022 020f 	bic.w	r2, r2, #15
 802110a:	f042 0207 	orr.w	r2, r2, #7
 802110e:	600a      	str	r2, [r1, #0]
 8021110:	2200      	movs	r2, #0
 8021112:	4916      	ldr	r1, [pc, #88]	; (802116c <SystemInit+0xac>)
 8021114:	619a      	str	r2, [r3, #24]
 8021116:	61da      	str	r2, [r3, #28]
 8021118:	621a      	str	r2, [r3, #32]
 802111a:	6299      	str	r1, [r3, #40]	; 0x28
 802111c:	4914      	ldr	r1, [pc, #80]	; (8021170 <SystemInit+0xb0>)
 802111e:	62d9      	str	r1, [r3, #44]	; 0x2c
 8021120:	4914      	ldr	r1, [pc, #80]	; (8021174 <SystemInit+0xb4>)
 8021122:	6319      	str	r1, [r3, #48]	; 0x30
 8021124:	635a      	str	r2, [r3, #52]	; 0x34
 8021126:	6399      	str	r1, [r3, #56]	; 0x38
 8021128:	63da      	str	r2, [r3, #60]	; 0x3c
 802112a:	6419      	str	r1, [r3, #64]	; 0x40
 802112c:	645a      	str	r2, [r3, #68]	; 0x44
 802112e:	6819      	ldr	r1, [r3, #0]
 8021130:	f421 2180 	bic.w	r1, r1, #262144	; 0x40000
 8021134:	6019      	str	r1, [r3, #0]
 8021136:	661a      	str	r2, [r3, #96]	; 0x60
 8021138:	4b0f      	ldr	r3, [pc, #60]	; (8021178 <SystemInit+0xb8>)
 802113a:	681b      	ldr	r3, [r3, #0]
 802113c:	0c1b      	lsrs	r3, r3, #16
 802113e:	041b      	lsls	r3, r3, #16
 8021140:	f1b3 5f00 	cmp.w	r3, #536870912	; 0x20000000
 8021144:	d202      	bcs.n	802114c <SystemInit+0x8c>
 8021146:	4b0d      	ldr	r3, [pc, #52]	; (802117c <SystemInit+0xbc>)
 8021148:	2201      	movs	r2, #1
 802114a:	601a      	str	r2, [r3, #0]
 802114c:	4b0c      	ldr	r3, [pc, #48]	; (8021180 <SystemInit+0xc0>)
 802114e:	f243 02d2 	movw	r2, #12498	; 0x30d2
 8021152:	601a      	str	r2, [r3, #0]
 8021154:	4b01      	ldr	r3, [pc, #4]	; (802115c <SystemInit+0x9c>)
 8021156:	4a0b      	ldr	r2, [pc, #44]	; (8021184 <SystemInit+0xc4>)
 8021158:	609a      	str	r2, [r3, #8]
 802115a:	4770      	bx	lr
 802115c:	e000ed00 	.word	0xe000ed00
 8021160:	52002000 	.word	0x52002000
 8021164:	58024400 	.word	0x58024400
 8021168:	eaf6ed7f 	.word	0xeaf6ed7f
 802116c:	02020200 	.word	0x02020200
 8021170:	01ff0000 	.word	0x01ff0000
 8021174:	01010280 	.word	0x01010280
 8021178:	5c001000 	.word	0x5c001000
 802117c:	51008108 	.word	0x51008108
 8021180:	52004000 	.word	0x52004000
 8021184:	08020200 	.word	0x08020200

08021188 <Reset_Handler>:
 8021188:	f8df d034 	ldr.w	sp, [pc, #52]	; 80211c0 <LoopFillZerobss+0xe>
 802118c:	f7ff ff98 	bl	80210c0 <SystemInit>
 8021190:	480c      	ldr	r0, [pc, #48]	; (80211c4 <LoopFillZerobss+0x12>)
 8021192:	490d      	ldr	r1, [pc, #52]	; (80211c8 <LoopFillZerobss+0x16>)
 8021194:	4a0d      	ldr	r2, [pc, #52]	; (80211cc <LoopFillZerobss+0x1a>)
 8021196:	2300      	movs	r3, #0
 8021198:	e002      	b.n	80211a0 <LoopCopyDataInit>

0802119a <CopyDataInit>:
 802119a:	58d4      	ldr	r4, [r2, r3]
 802119c:	50c4      	str	r4, [r0, r3]
 802119e:	3304      	adds	r3, #4

080211a0 <LoopCopyDataInit>:
 80211a0:	18c4      	adds	r4, r0, r3
 80211a2:	428c      	cmp	r4, r1
 80211a4:	d3f9      	bcc.n	802119a <CopyDataInit>
 80211a6:	4a0a      	ldr	r2, [pc, #40]	; (80211d0 <LoopFillZerobss+0x1e>)
 80211a8:	4c0a      	ldr	r4, [pc, #40]	; (80211d4 <LoopFillZerobss+0x22>)
 80211aa:	2300      	movs	r3, #0
 80211ac:	e001      	b.n	80211b2 <LoopFillZerobss>

080211ae <FillZerobss>:
 80211ae:	6013      	str	r3, [r2, #0]
 80211b0:	3204      	adds	r2, #4

080211b2 <LoopFillZerobss>:
 80211b2:	42a2      	cmp	r2, r4
 80211b4:	d3fb      	bcc.n	80211ae <FillZerobss>
 80211b6:	f004 fc73 	bl	8025aa0 <__libc_init_array>
 80211ba:	f7ff fbf3 	bl	80209a4 <main>
 80211be:	4770      	bx	lr
 80211c0:	20020000 	.word	0x20020000
 80211c4:	20000000 	.word	0x20000000
 80211c8:	2000008c 	.word	0x2000008c
 80211cc:	08026d50 	.word	0x08026d50
 80211d0:	2000014c 	.word	0x2000014c
 80211d4:	20002808 	.word	0x20002808

080211d8 <ADC3_IRQHandler>:
 80211d8:	e7fe      	b.n	80211d8 <ADC3_IRQHandler>
	...

080211dc <HAL_InitTick>:
 80211dc:	b538      	push	{r3, r4, r5, lr}
 80211de:	4b0f      	ldr	r3, [pc, #60]	; (802121c <HAL_InitTick+0x40>)
 80211e0:	4605      	mov	r5, r0
 80211e2:	7818      	ldrb	r0, [r3, #0]
 80211e4:	b908      	cbnz	r0, 80211ea <HAL_InitTick+0xe>
 80211e6:	2001      	movs	r0, #1
 80211e8:	bd38      	pop	{r3, r4, r5, pc}
 80211ea:	f44f 737a 	mov.w	r3, #1000	; 0x3e8
 80211ee:	4a0c      	ldr	r2, [pc, #48]	; (8021220 <HAL_InitTick+0x44>)
 80211f0:	fbb3 f3f0 	udiv	r3, r3, r0
 80211f4:	6810      	ldr	r0, [r2, #0]
 80211f6:	fbb0 f0f3 	udiv	r0, r0, r3
 80211fa:	f000 f8bb 	bl	8021374 <HAL_SYSTICK_Config>
 80211fe:	4604      	mov	r4, r0
 8021200:	2800      	cmp	r0, #0
 8021202:	d1f0      	bne.n	80211e6 <HAL_InitTick+0xa>
 8021204:	2d0f      	cmp	r5, #15
 8021206:	d8ee      	bhi.n	80211e6 <HAL_InitTick+0xa>
 8021208:	4602      	mov	r2, r0
 802120a:	4629      	mov	r1, r5
 802120c:	f04f 30ff 	mov.w	r0, #4294967295	; 0xffffffff
 8021210:	f000 f87e 	bl	8021310 <HAL_NVIC_SetPriority>
 8021214:	4b03      	ldr	r3, [pc, #12]	; (8021224 <HAL_InitTick+0x48>)
 8021216:	4620      	mov	r0, r4
 8021218:	601d      	str	r5, [r3, #0]
 802121a:	e7e5      	b.n	80211e8 <HAL_InitTick+0xc>
 802121c:	20000008 	.word	0x20000008
 8021220:	20000000 	.word	0x20000000
 8021224:	2000000c 	.word	0x2000000c

08021228 <HAL_Init>:
 8021228:	b510      	push	{r4, lr}
 802122a:	2003      	movs	r0, #3
 802122c:	f000 f85e 	bl	80212ec <HAL_NVIC_SetPriorityGrouping>
 8021230:	f000 fecc 	bl	8021fcc <HAL_RCC_GetSysClockFreq>
 8021234:	490f      	ldr	r1, [pc, #60]	; (8021274 <HAL_Init+0x4c>)
 8021236:	4a10      	ldr	r2, [pc, #64]	; (8021278 <HAL_Init+0x50>)
 8021238:	698b      	ldr	r3, [r1, #24]
 802123a:	f3c3 2303 	ubfx	r3, r3, #8, #4
 802123e:	5cd3      	ldrb	r3, [r2, r3]
 8021240:	f003 031f 	and.w	r3, r3, #31
 8021244:	40d8      	lsrs	r0, r3
 8021246:	698b      	ldr	r3, [r1, #24]
 8021248:	f003 030f 	and.w	r3, r3, #15
 802124c:	5cd3      	ldrb	r3, [r2, r3]
 802124e:	4a0b      	ldr	r2, [pc, #44]	; (802127c <HAL_Init+0x54>)
 8021250:	f003 031f 	and.w	r3, r3, #31
 8021254:	fa20 f303 	lsr.w	r3, r0, r3
 8021258:	6013      	str	r3, [r2, #0]
 802125a:	4b09      	ldr	r3, [pc, #36]	; (8021280 <HAL_Init+0x58>)
 802125c:	6018      	str	r0, [r3, #0]
 802125e:	2000      	movs	r0, #0
 8021260:	f7ff ffbc 	bl	80211dc <HAL_InitTick>
 8021264:	4604      	mov	r4, r0
 8021266:	b918      	cbnz	r0, 8021270 <HAL_Init+0x48>
 8021268:	f7ff fd7c 	bl	8020d64 <HAL_MspInit>
 802126c:	4620      	mov	r0, r4
 802126e:	bd10      	pop	{r4, pc}
 8021270:	2401      	movs	r4, #1
 8021272:	e7fb      	b.n	802126c <HAL_Init+0x44>
 8021274:	58024400 	.word	0x58024400
 8021278:	08026ba8 	.word	0x08026ba8
 802127c:	20000004 	.word	0x20000004
 8021280:	20000000 	.word	0x20000000

08021284 <HAL_IncTick>:
 8021284:	4a03      	ldr	r2, [pc, #12]	; (8021294 <HAL_IncTick+0x10>)
 8021286:	4b04      	ldr	r3, [pc, #16]	; (8021298 <HAL_IncTick+0x14>)
 8021288:	6811      	ldr	r1, [r2, #0]
 802128a:	781b      	ldrb	r3, [r3, #0]
 802128c:	440b      	add	r3, r1
 802128e:	6013      	str	r3, [r2, #0]
 8021290:	4770      	bx	lr
 8021292:	bf00      	nop
 8021294:	20000780 	.word	0x20000780
 8021298:	20000008 	.word	0x20000008

0802129c <HAL_GetTick>:
 802129c:	4b01      	ldr	r3, [pc, #4]	; (80212a4 <HAL_GetTick+0x8>)
 802129e:	6818      	ldr	r0, [r3, #0]
 80212a0:	4770      	bx	lr
 80212a2:	bf00      	nop
 80212a4:	20000780 	.word	0x20000780

080212a8 <HAL_Delay>:
 80212a8:	b538      	push	{r3, r4, r5, lr}
 80212aa:	4604      	mov	r4, r0
 80212ac:	f7ff fff6 	bl	802129c <HAL_GetTick>
 80212b0:	4605      	mov	r5, r0
 80212b2:	1c63      	adds	r3, r4, #1
 80212b4:	bf1e      	ittt	ne
 80212b6:	4b04      	ldrne	r3, [pc, #16]	; (80212c8 <HAL_Delay+0x20>)
 80212b8:	781b      	ldrbne	r3, [r3, #0]
 80212ba:	18e4      	addne	r4, r4, r3
 80212bc:	f7ff ffee 	bl	802129c <HAL_GetTick>
 80212c0:	1b43      	subs	r3, r0, r5
 80212c2:	42a3      	cmp	r3, r4
 80212c4:	d3fa      	bcc.n	80212bc <HAL_Delay+0x14>
 80212c6:	bd38      	pop	{r3, r4, r5, pc}
 80212c8:	20000008 	.word	0x20000008

080212cc <HAL_GetREVID>:
 80212cc:	4b01      	ldr	r3, [pc, #4]	; (80212d4 <HAL_GetREVID+0x8>)
 80212ce:	6818      	ldr	r0, [r3, #0]
 80212d0:	0c00      	lsrs	r0, r0, #16
 80212d2:	4770      	bx	lr
 80212d4:	5c001000 	.word	0x5c001000

080212d8 <HAL_SYSCFG_ETHInterfaceSelect>:
 80212d8:	4a03      	ldr	r2, [pc, #12]	; (80212e8 <HAL_SYSCFG_ETHInterfaceSelect+0x10>)
 80212da:	6853      	ldr	r3, [r2, #4]
 80212dc:	f423 0360 	bic.w	r3, r3, #14680064	; 0xe00000
 80212e0:	4318      	orrs	r0, r3
 80212e2:	6050      	str	r0, [r2, #4]
 80212e4:	4770      	bx	lr
 80212e6:	bf00      	nop
 80212e8:	58000400 	.word	0x58000400

080212ec <HAL_NVIC_SetPriorityGrouping>:
 80212ec:	4907      	ldr	r1, [pc, #28]	; (802130c <HAL_NVIC_SetPriorityGrouping+0x20>)
 80212ee:	0203      	lsls	r3, r0, #8
 80212f0:	68ca      	ldr	r2, [r1, #12]
 80212f2:	f403 63e0 	and.w	r3, r3, #1792	; 0x700
 80212f6:	f422 62e0 	bic.w	r2, r2, #1792	; 0x700
 80212fa:	0412      	lsls	r2, r2, #16
 80212fc:	0c12      	lsrs	r2, r2, #16
 80212fe:	4313      	orrs	r3, r2
 8021300:	f043 63bf 	orr.w	r3, r3, #100139008	; 0x5f80000
 8021304:	f443 3300 	orr.w	r3, r3, #131072	; 0x20000
 8021308:	60cb      	str	r3, [r1, #12]
 802130a:	4770      	bx	lr
 802130c:	e000ed00 	.word	0xe000ed00

08021310 <HAL_NVIC_SetPriority>:
 8021310:	4b16      	ldr	r3, [pc, #88]	; (802136c <HAL_NVIC_SetPriority+0x5c>)
 8021312:	b530      	push	{r4, r5, lr}
 8021314:	68dc      	ldr	r4, [r3, #12]
 8021316:	f3c4 2402 	ubfx	r4, r4, #8, #3
 802131a:	f1c4 0507 	rsb	r5, r4, #7
 802131e:	1d23      	adds	r3, r4, #4
 8021320:	2d04      	cmp	r5, #4
 8021322:	bf28      	it	cs
 8021324:	2504      	movcs	r5, #4
 8021326:	2b06      	cmp	r3, #6
 8021328:	f04f 33ff 	mov.w	r3, #4294967295	; 0xffffffff
 802132c:	bf8c      	ite	hi
 802132e:	3c03      	subhi	r4, #3
 8021330:	2400      	movls	r4, #0
 8021332:	fa03 f505 	lsl.w	r5, r3, r5
 8021336:	2800      	cmp	r0, #0
 8021338:	fa03 f304 	lsl.w	r3, r3, r4
 802133c:	ea21 0105 	bic.w	r1, r1, r5
 8021340:	ea22 0203 	bic.w	r2, r2, r3
 8021344:	fa01 f104 	lsl.w	r1, r1, r4
 8021348:	ea41 0302 	orr.w	r3, r1, r2
 802134c:	ea4f 1303 	mov.w	r3, r3, lsl #4
 8021350:	b2db      	uxtb	r3, r3
 8021352:	db06      	blt.n	8021362 <HAL_NVIC_SetPriority+0x52>
 8021354:	f100 4060 	add.w	r0, r0, #3758096384	; 0xe0000000
 8021358:	f500 4061 	add.w	r0, r0, #57600	; 0xe100
 802135c:	f880 3300 	strb.w	r3, [r0, #768]	; 0x300
 8021360:	bd30      	pop	{r4, r5, pc}
 8021362:	f000 000f 	and.w	r0, r0, #15
 8021366:	4a02      	ldr	r2, [pc, #8]	; (8021370 <HAL_NVIC_SetPriority+0x60>)
 8021368:	5413      	strb	r3, [r2, r0]
 802136a:	e7f9      	b.n	8021360 <HAL_NVIC_SetPriority+0x50>
 802136c:	e000ed00 	.word	0xe000ed00
 8021370:	e000ed14 	.word	0xe000ed14

08021374 <HAL_SYSTICK_Config>:
 8021374:	3801      	subs	r0, #1
 8021376:	f1b0 7f80 	cmp.w	r0, #16777216	; 0x1000000
 802137a:	d20a      	bcs.n	8021392 <HAL_SYSTICK_Config+0x1e>
 802137c:	4b06      	ldr	r3, [pc, #24]	; (8021398 <HAL_SYSTICK_Config+0x24>)
 802137e:	21f0      	movs	r1, #240	; 0xf0
 8021380:	4a06      	ldr	r2, [pc, #24]	; (802139c <HAL_SYSTICK_Config+0x28>)
 8021382:	6058      	str	r0, [r3, #4]
 8021384:	2000      	movs	r0, #0
 8021386:	f882 1023 	strb.w	r1, [r2, #35]	; 0x23
 802138a:	2207      	movs	r2, #7
 802138c:	6098      	str	r0, [r3, #8]
 802138e:	601a      	str	r2, [r3, #0]
 8021390:	4770      	bx	lr
 8021392:	2001      	movs	r0, #1
 8021394:	4770      	bx	lr
 8021396:	bf00      	nop
 8021398:	e000e010 	.word	0xe000e010
 802139c:	e000ed00 	.word	0xe000ed00

080213a0 <ETH_SetMACConfig>:
 80213a0:	688b      	ldr	r3, [r1, #8]
 80213a2:	680a      	ldr	r2, [r1, #0]
 80213a4:	e92d 4ff0 	stmdb	sp!, {r4, r5, r6, r7, r8, r9, sl, fp, lr}
 80213a8:	431a      	orrs	r2, r3
 80213aa:	7c0b      	ldrb	r3, [r1, #16]
 80213ac:	b085      	sub	sp, #20
 80213ae:	f891 a004 	ldrb.w	sl, [r1, #4]
 80213b2:	2b00      	cmp	r3, #0
 80213b4:	f891 900c 	ldrb.w	r9, [r1, #12]
 80213b8:	f891 800d 	ldrb.w	r8, [r1, #13]
 80213bc:	bf0c      	ite	eq
 80213be:	f44f 2300 	moveq.w	r3, #524288	; 0x80000
 80213c2:	2300      	movne	r3, #0
 80213c4:	f891 e00e 	ldrb.w	lr, [r1, #14]
 80213c8:	9301      	str	r3, [sp, #4]
 80213ca:	7c4b      	ldrb	r3, [r1, #17]
 80213cc:	f891 c00f 	ldrb.w	ip, [r1, #15]
 80213d0:	2b00      	cmp	r3, #0
 80213d2:	7c8e      	ldrb	r6, [r1, #18]
 80213d4:	7f0d      	ldrb	r5, [r1, #28]
 80213d6:	bf0c      	ite	eq
 80213d8:	f44f 3300 	moveq.w	r3, #131072	; 0x20000
 80213dc:	2300      	movne	r3, #0
 80213de:	f891 b01d 	ldrb.w	fp, [r1, #29]
 80213e2:	9302      	str	r3, [sp, #8]
 80213e4:	694b      	ldr	r3, [r1, #20]
 80213e6:	431a      	orrs	r2, r3
 80213e8:	698b      	ldr	r3, [r1, #24]
 80213ea:	4313      	orrs	r3, r2
 80213ec:	7f8a      	ldrb	r2, [r1, #30]
 80213ee:	2a00      	cmp	r2, #0
 80213f0:	7fca      	ldrb	r2, [r1, #31]
 80213f2:	9203      	str	r2, [sp, #12]
 80213f4:	bf08      	it	eq
 80213f6:	f44f 6780 	moveq.w	r7, #1024	; 0x400
 80213fa:	f891 2020 	ldrb.w	r2, [r1, #32]
 80213fe:	bf18      	it	ne
 8021400:	2700      	movne	r7, #0
 8021402:	2a00      	cmp	r2, #0
 8021404:	6802      	ldr	r2, [r0, #0]
 8021406:	6810      	ldr	r0, [r2, #0]
 8021408:	bf0c      	ite	eq
 802140a:	f44f 7480 	moveq.w	r4, #256	; 0x100
 802140e:	2400      	movne	r4, #0
 8021410:	9000      	str	r0, [sp, #0]
 8021412:	6a48      	ldr	r0, [r1, #36]	; 0x24
 8021414:	4303      	orrs	r3, r0
 8021416:	6ac8      	ldr	r0, [r1, #44]	; 0x2c
 8021418:	4303      	orrs	r3, r0
 802141a:	9800      	ldr	r0, [sp, #0]
 802141c:	f020 407f 	bic.w	r0, r0, #4278190080	; 0xff000000
 8021420:	f420 007b 	bic.w	r0, r0, #16449536	; 0xfb0000
 8021424:	f420 40fe 	bic.w	r0, r0, #32512	; 0x7f00
 8021428:	f020 007c 	bic.w	r0, r0, #124	; 0x7c
 802142c:	4303      	orrs	r3, r0
 802142e:	9803      	ldr	r0, [sp, #12]
 8021430:	ea43 63ca 	orr.w	r3, r3, sl, lsl #27
 8021434:	ea43 53c9 	orr.w	r3, r3, r9, lsl #23
 8021438:	ea43 5388 	orr.w	r3, r3, r8, lsl #22
 802143c:	ea43 534e 	orr.w	r3, r3, lr, lsl #21
 8021440:	ea43 530c 	orr.w	r3, r3, ip, lsl #20
 8021444:	ea43 4306 	orr.w	r3, r3, r6, lsl #16
 8021448:	ea43 3305 	orr.w	r3, r3, r5, lsl #12
 802144c:	ea43 23cb 	orr.w	r3, r3, fp, lsl #11
 8021450:	f891 b028 	ldrb.w	fp, [r1, #40]	; 0x28
 8021454:	ea43 2340 	orr.w	r3, r3, r0, lsl #9
 8021458:	9801      	ldr	r0, [sp, #4]
 802145a:	ea43 130b 	orr.w	r3, r3, fp, lsl #4
 802145e:	4303      	orrs	r3, r0
 8021460:	9802      	ldr	r0, [sp, #8]
 8021462:	4303      	orrs	r3, r0
 8021464:	433b      	orrs	r3, r7
 8021466:	431c      	orrs	r4, r3
 8021468:	6014      	str	r4, [r2, #0]
 802146a:	6bce      	ldr	r6, [r1, #60]	; 0x3c
 802146c:	f891 3032 	ldrb.w	r3, [r1, #50]	; 0x32
 8021470:	f891 7038 	ldrb.w	r7, [r1, #56]	; 0x38
 8021474:	2b00      	cmp	r3, #0
 8021476:	6853      	ldr	r3, [r2, #4]
 8021478:	f891 5030 	ldrb.w	r5, [r1, #48]	; 0x30
 802147c:	f023 537c 	bic.w	r3, r3, #1056964608	; 0x3f000000
 8021480:	f891 4031 	ldrb.w	r4, [r1, #49]	; 0x31
 8021484:	bf0c      	ite	eq
 8021486:	f44f 3080 	moveq.w	r0, #65536	; 0x10000
 802148a:	2000      	movne	r0, #0
 802148c:	f423 23ef 	bic.w	r3, r3, #489472	; 0x77800
 8021490:	f423 63ff 	bic.w	r3, r3, #2040	; 0x7f8
 8021494:	f023 0307 	bic.w	r3, r3, #7
 8021498:	ea43 6346 	orr.w	r3, r3, r6, lsl #25
 802149c:	6b4e      	ldr	r6, [r1, #52]	; 0x34
 802149e:	4333      	orrs	r3, r6
 80214a0:	6c8e      	ldr	r6, [r1, #72]	; 0x48
 80214a2:	ea43 6307 	orr.w	r3, r3, r7, lsl #24
 80214a6:	ea43 4385 	orr.w	r3, r3, r5, lsl #18
 80214aa:	6d0d      	ldr	r5, [r1, #80]	; 0x50
 80214ac:	ea43 4344 	orr.w	r3, r3, r4, lsl #17
 80214b0:	4303      	orrs	r3, r0
 80214b2:	6c48      	ldr	r0, [r1, #68]	; 0x44
 80214b4:	6053      	str	r3, [r2, #4]
 80214b6:	68d3      	ldr	r3, [r2, #12]
 80214b8:	f423 7387 	bic.w	r3, r3, #270	; 0x10e
 80214bc:	f023 0301 	bic.w	r3, r3, #1
 80214c0:	4303      	orrs	r3, r0
 80214c2:	f891 0040 	ldrb.w	r0, [r1, #64]	; 0x40
 80214c6:	ea43 2300 	orr.w	r3, r3, r0, lsl #8
 80214ca:	60d3      	str	r3, [r2, #12]
 80214cc:	f891 304c 	ldrb.w	r3, [r1, #76]	; 0x4c
 80214d0:	f891 4054 	ldrb.w	r4, [r1, #84]	; 0x54
 80214d4:	2b00      	cmp	r3, #0
 80214d6:	6f13      	ldr	r3, [r2, #112]	; 0x70
 80214d8:	f023 03f2 	bic.w	r3, r3, #242	; 0xf2
 80214dc:	bf0c      	ite	eq
 80214de:	2080      	moveq	r0, #128	; 0x80
 80214e0:	2000      	movne	r0, #0
 80214e2:	041b      	lsls	r3, r3, #16
 80214e4:	0c1b      	lsrs	r3, r3, #16
 80214e6:	ea43 4306 	orr.w	r3, r3, r6, lsl #16
 80214ea:	432b      	orrs	r3, r5
 80214ec:	6dcd      	ldr	r5, [r1, #92]	; 0x5c
 80214ee:	ea43 0344 	orr.w	r3, r3, r4, lsl #1
 80214f2:	4303      	orrs	r3, r0
 80214f4:	6713      	str	r3, [r2, #112]	; 0x70
 80214f6:	f8d2 0090 	ldr.w	r0, [r2, #144]	; 0x90
 80214fa:	f891 3056 	ldrb.w	r3, [r1, #86]	; 0x56
 80214fe:	f020 0003 	bic.w	r0, r0, #3
 8021502:	4303      	orrs	r3, r0
 8021504:	f891 0055 	ldrb.w	r0, [r1, #85]	; 0x55
 8021508:	ea43 0340 	orr.w	r3, r3, r0, lsl #1
 802150c:	6d88      	ldr	r0, [r1, #88]	; 0x58
 802150e:	f8c2 3090 	str.w	r3, [r2, #144]	; 0x90
 8021512:	f8d2 3d00 	ldr.w	r3, [r2, #3328]	; 0xd00
 8021516:	f023 0372 	bic.w	r3, r3, #114	; 0x72
 802151a:	4303      	orrs	r3, r0
 802151c:	f8c2 3d00 	str.w	r3, [r2, #3328]	; 0xd00
 8021520:	f891 3060 	ldrb.w	r3, [r1, #96]	; 0x60
 8021524:	f891 4061 	ldrb.w	r4, [r1, #97]	; 0x61
 8021528:	2b00      	cmp	r3, #0
 802152a:	f8d2 3d30 	ldr.w	r3, [r2, #3376]	; 0xd30
 802152e:	f891 1062 	ldrb.w	r1, [r1, #98]	; 0x62
 8021532:	f023 037b 	bic.w	r3, r3, #123	; 0x7b
 8021536:	bf0c      	ite	eq
 8021538:	2040      	moveq	r0, #64	; 0x40
 802153a:	2000      	movne	r0, #0
 802153c:	432b      	orrs	r3, r5
 802153e:	ea43 1304 	orr.w	r3, r3, r4, lsl #4
 8021542:	ea43 03c1 	orr.w	r3, r3, r1, lsl #3
 8021546:	4303      	orrs	r3, r0
 8021548:	f8c2 3d30 	str.w	r3, [r2, #3376]	; 0xd30
 802154c:	b005      	add	sp, #20
 802154e:	e8bd 8ff0 	ldmia.w	sp!, {r4, r5, r6, r7, r8, r9, sl, fp, pc}
	...

08021554 <ETH_SetDMAConfig>:
 8021554:	6802      	ldr	r2, [r0, #0]
 8021556:	f502 5080 	add.w	r0, r2, #4096	; 0x1000
 802155a:	6803      	ldr	r3, [r0, #0]
 802155c:	f423 43f0 	bic.w	r3, r3, #30720	; 0x7800
 8021560:	b530      	push	{r4, r5, lr}
 8021562:	f023 0302 	bic.w	r3, r3, #2
 8021566:	680c      	ldr	r4, [r1, #0]
 8021568:	4323      	orrs	r3, r4
 802156a:	f241 0404 	movw	r4, #4100	; 0x1004
 802156e:	6003      	str	r3, [r0, #0]
 8021570:	7b0b      	ldrb	r3, [r1, #12]
 8021572:	5910      	ldr	r0, [r2, r4]
 8021574:	790d      	ldrb	r5, [r1, #4]
 8021576:	03db      	lsls	r3, r3, #15
 8021578:	f420 4050 	bic.w	r0, r0, #53248	; 0xd000
 802157c:	ea43 3305 	orr.w	r3, r3, r5, lsl #12
 8021580:	688d      	ldr	r5, [r1, #8]
 8021582:	f020 0001 	bic.w	r0, r0, #1
 8021586:	432b      	orrs	r3, r5
 8021588:	4303      	orrs	r3, r0
 802158a:	5113      	str	r3, [r2, r4]
 802158c:	f502 5488 	add.w	r4, r2, #4352	; 0x1100
 8021590:	7b48      	ldrb	r0, [r1, #13]
 8021592:	6a0b      	ldr	r3, [r1, #32]
 8021594:	6825      	ldr	r5, [r4, #0]
 8021596:	ea43 4300 	orr.w	r3, r3, r0, lsl #16
 802159a:	4810      	ldr	r0, [pc, #64]	; (80215dc <ETH_SetDMAConfig+0x88>)
 802159c:	4028      	ands	r0, r5
 802159e:	4303      	orrs	r3, r0
 80215a0:	6023      	str	r3, [r4, #0]
 80215a2:	f241 1404 	movw	r4, #4356	; 0x1104
 80215a6:	7f4b      	ldrb	r3, [r1, #29]
 80215a8:	7d08      	ldrb	r0, [r1, #20]
 80215aa:	031b      	lsls	r3, r3, #12
 80215ac:	5915      	ldr	r5, [r2, r4]
 80215ae:	ea43 1300 	orr.w	r3, r3, r0, lsl #4
 80215b2:	6908      	ldr	r0, [r1, #16]
 80215b4:	4303      	orrs	r3, r0
 80215b6:	480a      	ldr	r0, [pc, #40]	; (80215e0 <ETH_SetDMAConfig+0x8c>)
 80215b8:	4028      	ands	r0, r5
 80215ba:	4303      	orrs	r3, r0
 80215bc:	5113      	str	r3, [r2, r4]
 80215be:	f241 1408 	movw	r4, #4360	; 0x1108
 80215c2:	7f0d      	ldrb	r5, [r1, #28]
 80215c4:	5910      	ldr	r0, [r2, r4]
 80215c6:	698b      	ldr	r3, [r1, #24]
 80215c8:	f020 4100 	bic.w	r1, r0, #2147483648	; 0x80000000
 80215cc:	ea43 73c5 	orr.w	r3, r3, r5, lsl #31
 80215d0:	f421 117c 	bic.w	r1, r1, #4128768	; 0x3f0000
 80215d4:	430b      	orrs	r3, r1
 80215d6:	5113      	str	r3, [r2, r4]
 80215d8:	bd30      	pop	{r4, r5, pc}
 80215da:	bf00      	nop
 80215dc:	fffec000 	.word	0xfffec000
 80215e0:	ffc0efef 	.word	0xffc0efef

080215e4 <HAL_ETH_SetMDIOClockRange>:
 80215e4:	b538      	push	{r3, r4, r5, lr}
 80215e6:	6803      	ldr	r3, [r0, #0]
 80215e8:	4605      	mov	r5, r0
 80215ea:	f8d3 4200 	ldr.w	r4, [r3, #512]	; 0x200
 80215ee:	f000 feb3 	bl	8022358 <HAL_RCC_GetHCLKFreq>
 80215f2:	4b12      	ldr	r3, [pc, #72]	; (802163c <HAL_ETH_SetMDIOClockRange+0x58>)
 80215f4:	4a12      	ldr	r2, [pc, #72]	; (8021640 <HAL_ETH_SetMDIOClockRange+0x5c>)
 80215f6:	f424 6470 	bic.w	r4, r4, #3840	; 0xf00
 80215fa:	4403      	add	r3, r0
 80215fc:	4293      	cmp	r3, r2
 80215fe:	d205      	bcs.n	802160c <HAL_ETH_SetMDIOClockRange+0x28>
 8021600:	f444 7400 	orr.w	r4, r4, #512	; 0x200
 8021604:	682b      	ldr	r3, [r5, #0]
 8021606:	f8c3 4200 	str.w	r4, [r3, #512]	; 0x200
 802160a:	bd38      	pop	{r3, r4, r5, pc}
 802160c:	4b0d      	ldr	r3, [pc, #52]	; (8021644 <HAL_ETH_SetMDIOClockRange+0x60>)
 802160e:	4a0e      	ldr	r2, [pc, #56]	; (8021648 <HAL_ETH_SetMDIOClockRange+0x64>)
 8021610:	4403      	add	r3, r0
 8021612:	4293      	cmp	r3, r2
 8021614:	d802      	bhi.n	802161c <HAL_ETH_SetMDIOClockRange+0x38>
 8021616:	f444 7440 	orr.w	r4, r4, #768	; 0x300
 802161a:	e7f3      	b.n	8021604 <HAL_ETH_SetMDIOClockRange+0x20>
 802161c:	4b0b      	ldr	r3, [pc, #44]	; (802164c <HAL_ETH_SetMDIOClockRange+0x68>)
 802161e:	4a0c      	ldr	r2, [pc, #48]	; (8021650 <HAL_ETH_SetMDIOClockRange+0x6c>)
 8021620:	4403      	add	r3, r0
 8021622:	4293      	cmp	r3, r2
 8021624:	d3ee      	bcc.n	8021604 <HAL_ETH_SetMDIOClockRange+0x20>
 8021626:	4b0b      	ldr	r3, [pc, #44]	; (8021654 <HAL_ETH_SetMDIOClockRange+0x70>)
 8021628:	4a0b      	ldr	r2, [pc, #44]	; (8021658 <HAL_ETH_SetMDIOClockRange+0x74>)
 802162a:	4403      	add	r3, r0
 802162c:	4293      	cmp	r3, r2
 802162e:	bf94      	ite	ls
 8021630:	f444 7480 	orrls.w	r4, r4, #256	; 0x100
 8021634:	f444 6480 	orrhi.w	r4, r4, #1024	; 0x400
 8021638:	e7e4      	b.n	8021604 <HAL_ETH_SetMDIOClockRange+0x20>
 802163a:	bf00      	nop
 802163c:	feced300 	.word	0xfeced300
 8021640:	00e4e1c0 	.word	0x00e4e1c0
 8021644:	fde9f140 	.word	0xfde9f140
 8021648:	017d783f 	.word	0x017d783f
 802164c:	fc6c7900 	.word	0xfc6c7900
 8021650:	02625a00 	.word	0x02625a00
 8021654:	fa0a1f00 	.word	0xfa0a1f00
 8021658:	02faf07f 	.word	0x02faf07f

0802165c <HAL_ETH_Init>:
 802165c:	b570      	push	{r4, r5, r6, lr}
 802165e:	4604      	mov	r4, r0
 8021660:	b0a4      	sub	sp, #144	; 0x90
 8021662:	2800      	cmp	r0, #0
 8021664:	f000 80a6 	beq.w	80217b4 <HAL_ETH_Init+0x158>
 8021668:	6ec3      	ldr	r3, [r0, #108]	; 0x6c
 802166a:	b90b      	cbnz	r3, 8021670 <HAL_ETH_Init+0x14>
 802166c:	f7ff fb8c 	bl	8020d88 <HAL_ETH_MspInit>
 8021670:	2323      	movs	r3, #35	; 0x23
 8021672:	66e3      	str	r3, [r4, #108]	; 0x6c
 8021674:	4b7a      	ldr	r3, [pc, #488]	; (8021860 <HAL_ETH_Init+0x204>)
 8021676:	f8d3 20f4 	ldr.w	r2, [r3, #244]	; 0xf4
 802167a:	f042 0202 	orr.w	r2, r2, #2
 802167e:	f8c3 20f4 	str.w	r2, [r3, #244]	; 0xf4
 8021682:	f8d3 30f4 	ldr.w	r3, [r3, #244]	; 0xf4
 8021686:	7a20      	ldrb	r0, [r4, #8]
 8021688:	f003 0302 	and.w	r3, r3, #2
 802168c:	9301      	str	r3, [sp, #4]
 802168e:	9b01      	ldr	r3, [sp, #4]
 8021690:	2800      	cmp	r0, #0
 8021692:	f040 8082 	bne.w	802179a <HAL_ETH_Init+0x13e>
 8021696:	f7ff fe1f 	bl	80212d8 <HAL_SYSCFG_ETHInterfaceSelect>
 802169a:	6823      	ldr	r3, [r4, #0]
 802169c:	f503 5380 	add.w	r3, r3, #4096	; 0x1000
 80216a0:	681a      	ldr	r2, [r3, #0]
 80216a2:	f042 0201 	orr.w	r2, r2, #1
 80216a6:	601a      	str	r2, [r3, #0]
 80216a8:	f7ff fdf8 	bl	802129c <HAL_GetTick>
 80216ac:	4606      	mov	r6, r0
 80216ae:	6823      	ldr	r3, [r4, #0]
 80216b0:	f503 5380 	add.w	r3, r3, #4096	; 0x1000
 80216b4:	681d      	ldr	r5, [r3, #0]
 80216b6:	f015 0501 	ands.w	r5, r5, #1
 80216ba:	d171      	bne.n	80217a0 <HAL_ETH_Init+0x144>
 80216bc:	4620      	mov	r0, r4
 80216be:	2601      	movs	r6, #1
 80216c0:	f7ff ff90 	bl	80215e4 <HAL_ETH_SetMDIOClockRange>
 80216c4:	f000 fe48 	bl	8022358 <HAL_RCC_GetHCLKFreq>
 80216c8:	4a66      	ldr	r2, [pc, #408]	; (8021864 <HAL_ETH_Init+0x208>)
 80216ca:	6823      	ldr	r3, [r4, #0]
 80216cc:	f44f 4180 	mov.w	r1, #16384	; 0x4000
 80216d0:	9514      	str	r5, [sp, #80]	; 0x50
 80216d2:	f88d 6030 	strb.w	r6, [sp, #48]	; 0x30
 80216d6:	f88d 5054 	strb.w	r5, [sp, #84]	; 0x54
 80216da:	f88d 5064 	strb.w	r5, [sp, #100]	; 0x64
 80216de:	951a      	str	r5, [sp, #104]	; 0x68
 80216e0:	951d      	str	r5, [sp, #116]	; 0x74
 80216e2:	f88d 506c 	strb.w	r5, [sp, #108]	; 0x6c
 80216e6:	f88d 604c 	strb.w	r6, [sp, #76]	; 0x4c
 80216ea:	f8ad 608c 	strh.w	r6, [sp, #140]	; 0x8c
 80216ee:	f88d 508e 	strb.w	r5, [sp, #142]	; 0x8e
 80216f2:	951f      	str	r5, [sp, #124]	; 0x7c
 80216f4:	f8ad 5080 	strh.w	r5, [sp, #128]	; 0x80
 80216f8:	f88d 5082 	strb.w	r5, [sp, #130]	; 0x82
 80216fc:	9516      	str	r5, [sp, #88]	; 0x58
 80216fe:	f8ad 505c 	strh.w	r5, [sp, #92]	; 0x5c
 8021702:	f88d 605e 	strb.w	r6, [sp, #94]	; 0x5e
 8021706:	950d      	str	r5, [sp, #52]	; 0x34
 8021708:	f88d 503e 	strb.w	r5, [sp, #62]	; 0x3e
 802170c:	951c      	str	r5, [sp, #112]	; 0x70
 802170e:	f88d 6078 	strb.w	r6, [sp, #120]	; 0x78
 8021712:	fbb0 f0f2 	udiv	r0, r0, r2
 8021716:	3801      	subs	r0, #1
 8021718:	f8c3 00dc 	str.w	r0, [r3, #220]	; 0xdc
 802171c:	f44f 63c3 	mov.w	r3, #1560	; 0x618
 8021720:	2002      	movs	r0, #2
 8021722:	9318      	str	r3, [sp, #96]	; 0x60
 8021724:	f04f 5340 	mov.w	r3, #805306368	; 0x30000000
 8021728:	930b      	str	r3, [sp, #44]	; 0x2c
 802172a:	f44f 5300 	mov.w	r3, #8192	; 0x2000
 802172e:	e9cd 1310 	strd	r1, r3, [sp, #64]	; 0x40
 8021732:	f44f 3380 	mov.w	r3, #65536	; 0x10000
 8021736:	a90b      	add	r1, sp, #44	; 0x2c
 8021738:	9312      	str	r3, [sp, #72]	; 0x48
 802173a:	2320      	movs	r3, #32
 802173c:	e9cd 0321 	strd	r0, r3, [sp, #132]	; 0x84
 8021740:	4b49      	ldr	r3, [pc, #292]	; (8021868 <HAL_ETH_Init+0x20c>)
 8021742:	4620      	mov	r0, r4
 8021744:	930e      	str	r3, [sp, #56]	; 0x38
 8021746:	f240 1301 	movw	r3, #257	; 0x101
 802174a:	f8ad 303c 	strh.w	r3, [sp, #60]	; 0x3c
 802174e:	f7ff fe27 	bl	80213a0 <ETH_SetMACConfig>
 8021752:	f44f 1300 	mov.w	r3, #2097152	; 0x200000
 8021756:	a902      	add	r1, sp, #8
 8021758:	4620      	mov	r0, r4
 802175a:	f88d 600c 	strb.w	r6, [sp, #12]
 802175e:	9306      	str	r3, [sp, #24]
 8021760:	9308      	str	r3, [sp, #32]
 8021762:	f44f 7306 	mov.w	r3, #536	; 0x218
 8021766:	9502      	str	r5, [sp, #8]
 8021768:	930a      	str	r3, [sp, #40]	; 0x28
 802176a:	9604      	str	r6, [sp, #16]
 802176c:	f8ad 5014 	strh.w	r5, [sp, #20]
 8021770:	f88d 501c 	strb.w	r5, [sp, #28]
 8021774:	f8ad 5024 	strh.w	r5, [sp, #36]	; 0x24
 8021778:	f7ff feec 	bl	8021554 <ETH_SetDMAConfig>
 802177c:	6823      	ldr	r3, [r4, #0]
 802177e:	6960      	ldr	r0, [r4, #20]
 8021780:	f503 5188 	add.w	r1, r3, #4352	; 0x1100
 8021784:	680a      	ldr	r2, [r1, #0]
 8021786:	f422 12e0 	bic.w	r2, r2, #1835008	; 0x1c0000
 802178a:	f442 2200 	orr.w	r2, r2, #524288	; 0x80000
 802178e:	600a      	str	r2, [r1, #0]
 8021790:	f010 0103 	ands.w	r1, r0, #3
 8021794:	d010      	beq.n	80217b8 <HAL_ETH_Init+0x15c>
 8021796:	6766      	str	r6, [r4, #116]	; 0x74
 8021798:	e00a      	b.n	80217b0 <HAL_ETH_Init+0x154>
 802179a:	f44f 0000 	mov.w	r0, #8388608	; 0x800000
 802179e:	e77a      	b.n	8021696 <HAL_ETH_Init+0x3a>
 80217a0:	f7ff fd7c 	bl	802129c <HAL_GetTick>
 80217a4:	1b80      	subs	r0, r0, r6
 80217a6:	f5b0 7ffa 	cmp.w	r0, #500	; 0x1f4
 80217aa:	d980      	bls.n	80216ae <HAL_ETH_Init+0x52>
 80217ac:	2304      	movs	r3, #4
 80217ae:	6763      	str	r3, [r4, #116]	; 0x74
 80217b0:	23e0      	movs	r3, #224	; 0xe0
 80217b2:	66e3      	str	r3, [r4, #108]	; 0x6c
 80217b4:	2001      	movs	r0, #1
 80217b6:	e051      	b.n	802185c <HAL_ETH_Init+0x200>
 80217b8:	f241 1508 	movw	r5, #4360	; 0x1108
 80217bc:	595a      	ldr	r2, [r3, r5]
 80217be:	f422 42ff 	bic.w	r2, r2, #32640	; 0x7f80
 80217c2:	f022 027e 	bic.w	r2, r2, #126	; 0x7e
 80217c6:	ea42 0240 	orr.w	r2, r2, r0, lsl #1
 80217ca:	68e0      	ldr	r0, [r4, #12]
 80217cc:	515a      	str	r2, [r3, r5]
 80217ce:	f100 0660 	add.w	r6, r0, #96	; 0x60
 80217d2:	f104 0518 	add.w	r5, r4, #24
 80217d6:	4602      	mov	r2, r0
 80217d8:	6011      	str	r1, [r2, #0]
 80217da:	6051      	str	r1, [r2, #4]
 80217dc:	6091      	str	r1, [r2, #8]
 80217de:	60d1      	str	r1, [r2, #12]
 80217e0:	f845 2b04 	str.w	r2, [r5], #4
 80217e4:	3218      	adds	r2, #24
 80217e6:	42b2      	cmp	r2, r6
 80217e8:	d1f6      	bne.n	80217d8 <HAL_ETH_Init+0x17c>
 80217ea:	62a1      	str	r1, [r4, #40]	; 0x28
 80217ec:	f241 122c 	movw	r2, #4396	; 0x112c
 80217f0:	2103      	movs	r1, #3
 80217f2:	2500      	movs	r5, #0
 80217f4:	5099      	str	r1, [r3, r2]
 80217f6:	f241 1214 	movw	r2, #4372	; 0x1114
 80217fa:	6921      	ldr	r1, [r4, #16]
 80217fc:	5098      	str	r0, [r3, r2]
 80217fe:	f503 5289 	add.w	r2, r3, #4384	; 0x1120
 8021802:	f101 0660 	add.w	r6, r1, #96	; 0x60
 8021806:	6010      	str	r0, [r2, #0]
 8021808:	f104 0044 	add.w	r0, r4, #68	; 0x44
 802180c:	460a      	mov	r2, r1
 802180e:	6015      	str	r5, [r2, #0]
 8021810:	6055      	str	r5, [r2, #4]
 8021812:	6095      	str	r5, [r2, #8]
 8021814:	60d5      	str	r5, [r2, #12]
 8021816:	e9c2 5504 	strd	r5, r5, [r2, #16]
 802181a:	f840 2b04 	str.w	r2, [r0], #4
 802181e:	3218      	adds	r2, #24
 8021820:	42b2      	cmp	r2, r6
 8021822:	d1f4      	bne.n	802180e <HAL_ETH_Init+0x1b2>
 8021824:	f241 1230 	movw	r2, #4400	; 0x1130
 8021828:	2003      	movs	r0, #3
 802182a:	65e5      	str	r5, [r4, #92]	; 0x5c
 802182c:	e9c4 5515 	strd	r5, r5, [r4, #84]	; 0x54
 8021830:	e9c4 5518 	strd	r5, r5, [r4, #96]	; 0x60
 8021834:	5098      	str	r0, [r3, r2]
 8021836:	f241 121c 	movw	r2, #4380	; 0x111c
 802183a:	2000      	movs	r0, #0
 802183c:	5099      	str	r1, [r3, r2]
 802183e:	3148      	adds	r1, #72	; 0x48
 8021840:	f241 1228 	movw	r2, #4392	; 0x1128
 8021844:	5099      	str	r1, [r3, r2]
 8021846:	6862      	ldr	r2, [r4, #4]
 8021848:	8891      	ldrh	r1, [r2, #4]
 802184a:	f8c3 1300 	str.w	r1, [r3, #768]	; 0x300
 802184e:	6812      	ldr	r2, [r2, #0]
 8021850:	f8c3 2304 	str.w	r2, [r3, #772]	; 0x304
 8021854:	2310      	movs	r3, #16
 8021856:	6765      	str	r5, [r4, #116]	; 0x74
 8021858:	66e3      	str	r3, [r4, #108]	; 0x6c
 802185a:	6723      	str	r3, [r4, #112]	; 0x70
 802185c:	b024      	add	sp, #144	; 0x90
 802185e:	bd70      	pop	{r4, r5, r6, pc}
 8021860:	58024400 	.word	0x58024400
 8021864:	000f4240 	.word	0x000f4240
 8021868:	01010000 	.word	0x01010000

0802186c <HAL_GPIO_Init>:
 802186c:	e92d 4ff7 	stmdb	sp!, {r0, r1, r2, r4, r5, r6, r7, r8, r9, sl, fp, lr}
 8021870:	2300      	movs	r3, #0
 8021872:	f8df 81bc 	ldr.w	r8, [pc, #444]	; 8021a30 <HAL_GPIO_Init+0x1c4>
 8021876:	f8df c1bc 	ldr.w	ip, [pc, #444]	; 8021a34 <HAL_GPIO_Init+0x1c8>
 802187a:	f04f 49b0 	mov.w	r9, #1476395008	; 0x58000000
 802187e:	680a      	ldr	r2, [r1, #0]
 8021880:	fa32 f403 	lsrs.w	r4, r2, r3
 8021884:	d102      	bne.n	802188c <HAL_GPIO_Init+0x20>
 8021886:	b003      	add	sp, #12
 8021888:	e8bd 8ff0 	ldmia.w	sp!, {r4, r5, r6, r7, r8, r9, sl, fp, pc}
 802188c:	2701      	movs	r7, #1
 802188e:	409f      	lsls	r7, r3
 8021890:	403a      	ands	r2, r7
 8021892:	f000 80b6 	beq.w	8021a02 <HAL_GPIO_Init+0x196>
 8021896:	684c      	ldr	r4, [r1, #4]
 8021898:	ea4f 0e43 	mov.w	lr, r3, lsl #1
 802189c:	2503      	movs	r5, #3
 802189e:	f024 0a10 	bic.w	sl, r4, #16
 80218a2:	fa05 f50e 	lsl.w	r5, r5, lr
 80218a6:	f10a 36ff 	add.w	r6, sl, #4294967295	; 0xffffffff
 80218aa:	43ed      	mvns	r5, r5
 80218ac:	2e01      	cmp	r6, #1
 80218ae:	d810      	bhi.n	80218d2 <HAL_GPIO_Init+0x66>
 80218b0:	6886      	ldr	r6, [r0, #8]
 80218b2:	ea06 0b05 	and.w	fp, r6, r5
 80218b6:	68ce      	ldr	r6, [r1, #12]
 80218b8:	fa06 f60e 	lsl.w	r6, r6, lr
 80218bc:	ea46 060b 	orr.w	r6, r6, fp
 80218c0:	6086      	str	r6, [r0, #8]
 80218c2:	6846      	ldr	r6, [r0, #4]
 80218c4:	ea26 0707 	bic.w	r7, r6, r7
 80218c8:	f3c4 1600 	ubfx	r6, r4, #4, #1
 80218cc:	409e      	lsls	r6, r3
 80218ce:	4337      	orrs	r7, r6
 80218d0:	6047      	str	r7, [r0, #4]
 80218d2:	68c7      	ldr	r7, [r0, #12]
 80218d4:	f1ba 0f02 	cmp.w	sl, #2
 80218d8:	688e      	ldr	r6, [r1, #8]
 80218da:	ea07 0705 	and.w	r7, r7, r5
 80218de:	fa06 f60e 	lsl.w	r6, r6, lr
 80218e2:	ea46 0607 	orr.w	r6, r6, r7
 80218e6:	60c6      	str	r6, [r0, #12]
 80218e8:	d114      	bne.n	8021914 <HAL_GPIO_Init+0xa8>
 80218ea:	ea4f 0ad3 	mov.w	sl, r3, lsr #3
 80218ee:	f003 0b07 	and.w	fp, r3, #7
 80218f2:	270f      	movs	r7, #15
 80218f4:	eb00 0a8a 	add.w	sl, r0, sl, lsl #2
 80218f8:	ea4f 0b8b 	mov.w	fp, fp, lsl #2
 80218fc:	f8da 6020 	ldr.w	r6, [sl, #32]
 8021900:	fa07 f70b 	lsl.w	r7, r7, fp
 8021904:	ea26 0707 	bic.w	r7, r6, r7
 8021908:	690e      	ldr	r6, [r1, #16]
 802190a:	fa06 f60b 	lsl.w	r6, r6, fp
 802190e:	433e      	orrs	r6, r7
 8021910:	f8ca 6020 	str.w	r6, [sl, #32]
 8021914:	6806      	ldr	r6, [r0, #0]
 8021916:	4035      	ands	r5, r6
 8021918:	f004 0603 	and.w	r6, r4, #3
 802191c:	fa06 fe0e 	lsl.w	lr, r6, lr
 8021920:	ea4e 0505 	orr.w	r5, lr, r5
 8021924:	6005      	str	r5, [r0, #0]
 8021926:	00e5      	lsls	r5, r4, #3
 8021928:	d56b      	bpl.n	8021a02 <HAL_GPIO_Init+0x196>
 802192a:	f8d8 50f4 	ldr.w	r5, [r8, #244]	; 0xf4
 802192e:	f023 0603 	bic.w	r6, r3, #3
 8021932:	f003 0703 	and.w	r7, r3, #3
 8021936:	f04f 0e0f 	mov.w	lr, #15
 802193a:	f045 0502 	orr.w	r5, r5, #2
 802193e:	f106 46b0 	add.w	r6, r6, #1476395008	; 0x58000000
 8021942:	00bf      	lsls	r7, r7, #2
 8021944:	f8c8 50f4 	str.w	r5, [r8, #244]	; 0xf4
 8021948:	f506 6680 	add.w	r6, r6, #1024	; 0x400
 802194c:	f8d8 50f4 	ldr.w	r5, [r8, #244]	; 0xf4
 8021950:	f005 0502 	and.w	r5, r5, #2
 8021954:	9501      	str	r5, [sp, #4]
 8021956:	9d01      	ldr	r5, [sp, #4]
 8021958:	fa0e f507 	lsl.w	r5, lr, r7
 802195c:	f8d6 a008 	ldr.w	sl, [r6, #8]
 8021960:	ea2a 0e05 	bic.w	lr, sl, r5
 8021964:	4d31      	ldr	r5, [pc, #196]	; (8021a2c <HAL_GPIO_Init+0x1c0>)
 8021966:	42a8      	cmp	r0, r5
 8021968:	d04d      	beq.n	8021a06 <HAL_GPIO_Init+0x19a>
 802196a:	f505 6580 	add.w	r5, r5, #1024	; 0x400
 802196e:	42a8      	cmp	r0, r5
 8021970:	d04b      	beq.n	8021a0a <HAL_GPIO_Init+0x19e>
 8021972:	f505 6580 	add.w	r5, r5, #1024	; 0x400
 8021976:	42a8      	cmp	r0, r5
 8021978:	d049      	beq.n	8021a0e <HAL_GPIO_Init+0x1a2>
 802197a:	f505 6580 	add.w	r5, r5, #1024	; 0x400
 802197e:	42a8      	cmp	r0, r5
 8021980:	d047      	beq.n	8021a12 <HAL_GPIO_Init+0x1a6>
 8021982:	f505 6580 	add.w	r5, r5, #1024	; 0x400
 8021986:	42a8      	cmp	r0, r5
 8021988:	d045      	beq.n	8021a16 <HAL_GPIO_Init+0x1aa>
 802198a:	f505 6580 	add.w	r5, r5, #1024	; 0x400
 802198e:	42a8      	cmp	r0, r5
 8021990:	d043      	beq.n	8021a1a <HAL_GPIO_Init+0x1ae>
 8021992:	f505 6580 	add.w	r5, r5, #1024	; 0x400
 8021996:	42a8      	cmp	r0, r5
 8021998:	d041      	beq.n	8021a1e <HAL_GPIO_Init+0x1b2>
 802199a:	f505 6580 	add.w	r5, r5, #1024	; 0x400
 802199e:	42a8      	cmp	r0, r5
 80219a0:	d03f      	beq.n	8021a22 <HAL_GPIO_Init+0x1b6>
 80219a2:	f505 6580 	add.w	r5, r5, #1024	; 0x400
 80219a6:	42a8      	cmp	r0, r5
 80219a8:	d03d      	beq.n	8021a26 <HAL_GPIO_Init+0x1ba>
 80219aa:	f505 6580 	add.w	r5, r5, #1024	; 0x400
 80219ae:	42a8      	cmp	r0, r5
 80219b0:	bf0c      	ite	eq
 80219b2:	2509      	moveq	r5, #9
 80219b4:	250a      	movne	r5, #10
 80219b6:	40bd      	lsls	r5, r7
 80219b8:	03e7      	lsls	r7, r4, #15
 80219ba:	ea45 050e 	orr.w	r5, r5, lr
 80219be:	60b5      	str	r5, [r6, #8]
 80219c0:	ea6f 0602 	mvn.w	r6, r2
 80219c4:	f8dc 5000 	ldr.w	r5, [ip]
 80219c8:	bf54      	ite	pl
 80219ca:	4035      	andpl	r5, r6
 80219cc:	4315      	orrmi	r5, r2
 80219ce:	03a7      	lsls	r7, r4, #14
 80219d0:	f8cc 5000 	str.w	r5, [ip]
 80219d4:	f8dc 5004 	ldr.w	r5, [ip, #4]
 80219d8:	bf54      	ite	pl
 80219da:	4035      	andpl	r5, r6
 80219dc:	4315      	orrmi	r5, r2
 80219de:	02e7      	lsls	r7, r4, #11
 80219e0:	f04f 47b0 	mov.w	r7, #1476395008	; 0x58000000
 80219e4:	f8cc 5004 	str.w	r5, [ip, #4]
 80219e8:	f8d9 5000 	ldr.w	r5, [r9]
 80219ec:	bf54      	ite	pl
 80219ee:	4035      	andpl	r5, r6
 80219f0:	4315      	orrmi	r5, r2
 80219f2:	02a4      	lsls	r4, r4, #10
 80219f4:	603d      	str	r5, [r7, #0]
 80219f6:	687d      	ldr	r5, [r7, #4]
 80219f8:	bf54      	ite	pl
 80219fa:	4035      	andpl	r5, r6
 80219fc:	4315      	orrmi	r5, r2
 80219fe:	f8c9 5004 	str.w	r5, [r9, #4]
 8021a02:	3301      	adds	r3, #1
 8021a04:	e73b      	b.n	802187e <HAL_GPIO_Init+0x12>
 8021a06:	2500      	movs	r5, #0
 8021a08:	e7d5      	b.n	80219b6 <HAL_GPIO_Init+0x14a>
 8021a0a:	2501      	movs	r5, #1
 8021a0c:	e7d3      	b.n	80219b6 <HAL_GPIO_Init+0x14a>
 8021a0e:	2502      	movs	r5, #2
 8021a10:	e7d1      	b.n	80219b6 <HAL_GPIO_Init+0x14a>
 8021a12:	2503      	movs	r5, #3
 8021a14:	e7cf      	b.n	80219b6 <HAL_GPIO_Init+0x14a>
 8021a16:	2504      	movs	r5, #4
 8021a18:	e7cd      	b.n	80219b6 <HAL_GPIO_Init+0x14a>
 8021a1a:	2505      	movs	r5, #5
 8021a1c:	e7cb      	b.n	80219b6 <HAL_GPIO_Init+0x14a>
 8021a1e:	2506      	movs	r5, #6
 8021a20:	e7c9      	b.n	80219b6 <HAL_GPIO_Init+0x14a>
 8021a22:	2507      	movs	r5, #7
 8021a24:	e7c7      	b.n	80219b6 <HAL_GPIO_Init+0x14a>
 8021a26:	2508      	movs	r5, #8
 8021a28:	e7c5      	b.n	80219b6 <HAL_GPIO_Init+0x14a>
 8021a2a:	bf00      	nop
 8021a2c:	58020000 	.word	0x58020000
 8021a30:	58024400 	.word	0x58024400
 8021a34:	58000080 	.word	0x58000080

08021a38 <HAL_GPIO_WritePin>:
 8021a38:	b10a      	cbz	r2, 8021a3e <HAL_GPIO_WritePin+0x6>
 8021a3a:	6181      	str	r1, [r0, #24]
 8021a3c:	4770      	bx	lr
 8021a3e:	0409      	lsls	r1, r1, #16
 8021a40:	e7fb      	b.n	8021a3a <HAL_GPIO_WritePin+0x2>

08021a42 <HAL_GPIO_TogglePin>:
 8021a42:	6943      	ldr	r3, [r0, #20]
 8021a44:	ea01 0203 	and.w	r2, r1, r3
 8021a48:	ea21 0103 	bic.w	r1, r1, r3
 8021a4c:	ea41 4102 	orr.w	r1, r1, r2, lsl #16
 8021a50:	6181      	str	r1, [r0, #24]
 8021a52:	4770      	bx	lr

08021a54 <HAL_PWREx_ConfigSupply>:
 8021a54:	b538      	push	{r3, r4, r5, lr}
 8021a56:	4c10      	ldr	r4, [pc, #64]	; (8021a98 <HAL_PWREx_ConfigSupply+0x44>)
 8021a58:	68e3      	ldr	r3, [r4, #12]
 8021a5a:	f013 0f04 	tst.w	r3, #4
 8021a5e:	68e3      	ldr	r3, [r4, #12]
 8021a60:	d105      	bne.n	8021a6e <HAL_PWREx_ConfigSupply+0x1a>
 8021a62:	f003 0307 	and.w	r3, r3, #7
 8021a66:	1a18      	subs	r0, r3, r0
 8021a68:	bf18      	it	ne
 8021a6a:	2001      	movne	r0, #1
 8021a6c:	bd38      	pop	{r3, r4, r5, pc}
 8021a6e:	f023 0307 	bic.w	r3, r3, #7
 8021a72:	4318      	orrs	r0, r3
 8021a74:	60e0      	str	r0, [r4, #12]
 8021a76:	f7ff fc11 	bl	802129c <HAL_GetTick>
 8021a7a:	4605      	mov	r5, r0
 8021a7c:	6863      	ldr	r3, [r4, #4]
 8021a7e:	049b      	lsls	r3, r3, #18
 8021a80:	d501      	bpl.n	8021a86 <HAL_PWREx_ConfigSupply+0x32>
 8021a82:	2000      	movs	r0, #0
 8021a84:	e7f2      	b.n	8021a6c <HAL_PWREx_ConfigSupply+0x18>
 8021a86:	f7ff fc09 	bl	802129c <HAL_GetTick>
 8021a8a:	1b40      	subs	r0, r0, r5
 8021a8c:	f5b0 7f7a 	cmp.w	r0, #1000	; 0x3e8
 8021a90:	d9f4      	bls.n	8021a7c <HAL_PWREx_ConfigSupply+0x28>
 8021a92:	2001      	movs	r0, #1
 8021a94:	e7ea      	b.n	8021a6c <HAL_PWREx_ConfigSupply+0x18>
 8021a96:	bf00      	nop
 8021a98:	58024800 	.word	0x58024800

08021a9c <HAL_RCC_OscConfig>:
 8021a9c:	b5f8      	push	{r3, r4, r5, r6, r7, lr}
 8021a9e:	4604      	mov	r4, r0
 8021aa0:	2800      	cmp	r0, #0
 8021aa2:	d074      	beq.n	8021b8e <HAL_RCC_OscConfig+0xf2>
 8021aa4:	6803      	ldr	r3, [r0, #0]
 8021aa6:	07d8      	lsls	r0, r3, #31
 8021aa8:	d45e      	bmi.n	8021b68 <HAL_RCC_OscConfig+0xcc>
 8021aaa:	6823      	ldr	r3, [r4, #0]
 8021aac:	0799      	lsls	r1, r3, #30
 8021aae:	f100 80b0 	bmi.w	8021c12 <HAL_RCC_OscConfig+0x176>
 8021ab2:	6823      	ldr	r3, [r4, #0]
 8021ab4:	06da      	lsls	r2, r3, #27
 8021ab6:	d527      	bpl.n	8021b08 <HAL_RCC_OscConfig+0x6c>
 8021ab8:	4baa      	ldr	r3, [pc, #680]	; (8021d64 <HAL_RCC_OscConfig+0x2c8>)
 8021aba:	691a      	ldr	r2, [r3, #16]
 8021abc:	6a99      	ldr	r1, [r3, #40]	; 0x28
 8021abe:	f002 0238 	and.w	r2, r2, #56	; 0x38
 8021ac2:	2a08      	cmp	r2, #8
 8021ac4:	d007      	beq.n	8021ad6 <HAL_RCC_OscConfig+0x3a>
 8021ac6:	2a18      	cmp	r2, #24
 8021ac8:	f040 810e 	bne.w	8021ce8 <HAL_RCC_OscConfig+0x24c>
 8021acc:	f001 0203 	and.w	r2, r1, #3
 8021ad0:	2a01      	cmp	r2, #1
 8021ad2:	f040 8109 	bne.w	8021ce8 <HAL_RCC_OscConfig+0x24c>
 8021ad6:	681b      	ldr	r3, [r3, #0]
 8021ad8:	05db      	lsls	r3, r3, #23
 8021ada:	d502      	bpl.n	8021ae2 <HAL_RCC_OscConfig+0x46>
 8021adc:	69e3      	ldr	r3, [r4, #28]
 8021ade:	2b80      	cmp	r3, #128	; 0x80
 8021ae0:	d155      	bne.n	8021b8e <HAL_RCC_OscConfig+0xf2>
 8021ae2:	f7ff fbf3 	bl	80212cc <HAL_GetREVID>
 8021ae6:	f241 0303 	movw	r3, #4099	; 0x1003
 8021aea:	6a21      	ldr	r1, [r4, #32]
 8021aec:	4298      	cmp	r0, r3
 8021aee:	4b9d      	ldr	r3, [pc, #628]	; (8021d64 <HAL_RCC_OscConfig+0x2c8>)
 8021af0:	f200 80f3 	bhi.w	8021cda <HAL_RCC_OscConfig+0x23e>
 8021af4:	685a      	ldr	r2, [r3, #4]
 8021af6:	2920      	cmp	r1, #32
 8021af8:	f022 42f8 	bic.w	r2, r2, #2080374784	; 0x7c000000
 8021afc:	bf0c      	ite	eq
 8021afe:	f042 4280 	orreq.w	r2, r2, #1073741824	; 0x40000000
 8021b02:	ea42 6281 	orrne.w	r2, r2, r1, lsl #26
 8021b06:	605a      	str	r2, [r3, #4]
 8021b08:	6823      	ldr	r3, [r4, #0]
 8021b0a:	0719      	lsls	r1, r3, #28
 8021b0c:	f100 812e 	bmi.w	8021d6c <HAL_RCC_OscConfig+0x2d0>
 8021b10:	6823      	ldr	r3, [r4, #0]
 8021b12:	069a      	lsls	r2, r3, #26
 8021b14:	f100 814f 	bmi.w	8021db6 <HAL_RCC_OscConfig+0x31a>
 8021b18:	6823      	ldr	r3, [r4, #0]
 8021b1a:	075d      	lsls	r5, r3, #29
 8021b1c:	d51e      	bpl.n	8021b5c <HAL_RCC_OscConfig+0xc0>
 8021b1e:	4d92      	ldr	r5, [pc, #584]	; (8021d68 <HAL_RCC_OscConfig+0x2cc>)
 8021b20:	682b      	ldr	r3, [r5, #0]
 8021b22:	f443 7380 	orr.w	r3, r3, #256	; 0x100
 8021b26:	602b      	str	r3, [r5, #0]
 8021b28:	f7ff fbb8 	bl	802129c <HAL_GetTick>
 8021b2c:	4606      	mov	r6, r0
 8021b2e:	682b      	ldr	r3, [r5, #0]
 8021b30:	05da      	lsls	r2, r3, #23
 8021b32:	f140 8165 	bpl.w	8021e00 <HAL_RCC_OscConfig+0x364>
 8021b36:	68a3      	ldr	r3, [r4, #8]
 8021b38:	4d8a      	ldr	r5, [pc, #552]	; (8021d64 <HAL_RCC_OscConfig+0x2c8>)
 8021b3a:	2b01      	cmp	r3, #1
 8021b3c:	f040 8167 	bne.w	8021e0e <HAL_RCC_OscConfig+0x372>
 8021b40:	6f2b      	ldr	r3, [r5, #112]	; 0x70
 8021b42:	f043 0301 	orr.w	r3, r3, #1
 8021b46:	672b      	str	r3, [r5, #112]	; 0x70
 8021b48:	f241 3788 	movw	r7, #5000	; 0x1388
 8021b4c:	f7ff fba6 	bl	802129c <HAL_GetTick>
 8021b50:	4e84      	ldr	r6, [pc, #528]	; (8021d64 <HAL_RCC_OscConfig+0x2c8>)
 8021b52:	4605      	mov	r5, r0
 8021b54:	6f33      	ldr	r3, [r6, #112]	; 0x70
 8021b56:	079b      	lsls	r3, r3, #30
 8021b58:	f140 817f 	bpl.w	8021e5a <HAL_RCC_OscConfig+0x3be>
 8021b5c:	6a61      	ldr	r1, [r4, #36]	; 0x24
 8021b5e:	2900      	cmp	r1, #0
 8021b60:	f040 8182 	bne.w	8021e68 <HAL_RCC_OscConfig+0x3cc>
 8021b64:	2000      	movs	r0, #0
 8021b66:	e02a      	b.n	8021bbe <HAL_RCC_OscConfig+0x122>
 8021b68:	4b7e      	ldr	r3, [pc, #504]	; (8021d64 <HAL_RCC_OscConfig+0x2c8>)
 8021b6a:	691a      	ldr	r2, [r3, #16]
 8021b6c:	6a99      	ldr	r1, [r3, #40]	; 0x28
 8021b6e:	f002 0238 	and.w	r2, r2, #56	; 0x38
 8021b72:	2a10      	cmp	r2, #16
 8021b74:	d005      	beq.n	8021b82 <HAL_RCC_OscConfig+0xe6>
 8021b76:	2a18      	cmp	r2, #24
 8021b78:	d10b      	bne.n	8021b92 <HAL_RCC_OscConfig+0xf6>
 8021b7a:	f001 0203 	and.w	r2, r1, #3
 8021b7e:	2a02      	cmp	r2, #2
 8021b80:	d107      	bne.n	8021b92 <HAL_RCC_OscConfig+0xf6>
 8021b82:	681b      	ldr	r3, [r3, #0]
 8021b84:	039a      	lsls	r2, r3, #14
 8021b86:	d590      	bpl.n	8021aaa <HAL_RCC_OscConfig+0xe>
 8021b88:	6863      	ldr	r3, [r4, #4]
 8021b8a:	2b00      	cmp	r3, #0
 8021b8c:	d18d      	bne.n	8021aaa <HAL_RCC_OscConfig+0xe>
 8021b8e:	2001      	movs	r0, #1
 8021b90:	e015      	b.n	8021bbe <HAL_RCC_OscConfig+0x122>
 8021b92:	6862      	ldr	r2, [r4, #4]
 8021b94:	f5b2 3f80 	cmp.w	r2, #65536	; 0x10000
 8021b98:	d112      	bne.n	8021bc0 <HAL_RCC_OscConfig+0x124>
 8021b9a:	681a      	ldr	r2, [r3, #0]
 8021b9c:	f442 3280 	orr.w	r2, r2, #65536	; 0x10000
 8021ba0:	601a      	str	r2, [r3, #0]
 8021ba2:	f7ff fb7b 	bl	802129c <HAL_GetTick>
 8021ba6:	4e6f      	ldr	r6, [pc, #444]	; (8021d64 <HAL_RCC_OscConfig+0x2c8>)
 8021ba8:	4605      	mov	r5, r0
 8021baa:	6833      	ldr	r3, [r6, #0]
 8021bac:	039b      	lsls	r3, r3, #14
 8021bae:	f53f af7c 	bmi.w	8021aaa <HAL_RCC_OscConfig+0xe>
 8021bb2:	f7ff fb73 	bl	802129c <HAL_GetTick>
 8021bb6:	1b40      	subs	r0, r0, r5
 8021bb8:	2864      	cmp	r0, #100	; 0x64
 8021bba:	d9f6      	bls.n	8021baa <HAL_RCC_OscConfig+0x10e>
 8021bbc:	2003      	movs	r0, #3
 8021bbe:	bdf8      	pop	{r3, r4, r5, r6, r7, pc}
 8021bc0:	4d68      	ldr	r5, [pc, #416]	; (8021d64 <HAL_RCC_OscConfig+0x2c8>)
 8021bc2:	682b      	ldr	r3, [r5, #0]
 8021bc4:	b99a      	cbnz	r2, 8021bee <HAL_RCC_OscConfig+0x152>
 8021bc6:	f423 3380 	bic.w	r3, r3, #65536	; 0x10000
 8021bca:	602b      	str	r3, [r5, #0]
 8021bcc:	682b      	ldr	r3, [r5, #0]
 8021bce:	f423 2380 	bic.w	r3, r3, #262144	; 0x40000
 8021bd2:	602b      	str	r3, [r5, #0]
 8021bd4:	f7ff fb62 	bl	802129c <HAL_GetTick>
 8021bd8:	4606      	mov	r6, r0
 8021bda:	682b      	ldr	r3, [r5, #0]
 8021bdc:	039f      	lsls	r7, r3, #14
 8021bde:	f57f af64 	bpl.w	8021aaa <HAL_RCC_OscConfig+0xe>
 8021be2:	f7ff fb5b 	bl	802129c <HAL_GetTick>
 8021be6:	1b80      	subs	r0, r0, r6
 8021be8:	2864      	cmp	r0, #100	; 0x64
 8021bea:	d9f6      	bls.n	8021bda <HAL_RCC_OscConfig+0x13e>
 8021bec:	e7e6      	b.n	8021bbc <HAL_RCC_OscConfig+0x120>
 8021bee:	f5b2 2fa0 	cmp.w	r2, #327680	; 0x50000
 8021bf2:	d107      	bne.n	8021c04 <HAL_RCC_OscConfig+0x168>
 8021bf4:	f443 2380 	orr.w	r3, r3, #262144	; 0x40000
 8021bf8:	602b      	str	r3, [r5, #0]
 8021bfa:	682b      	ldr	r3, [r5, #0]
 8021bfc:	f443 3380 	orr.w	r3, r3, #65536	; 0x10000
 8021c00:	602b      	str	r3, [r5, #0]
 8021c02:	e7ce      	b.n	8021ba2 <HAL_RCC_OscConfig+0x106>
 8021c04:	f423 3380 	bic.w	r3, r3, #65536	; 0x10000
 8021c08:	602b      	str	r3, [r5, #0]
 8021c0a:	682b      	ldr	r3, [r5, #0]
 8021c0c:	f423 2380 	bic.w	r3, r3, #262144	; 0x40000
 8021c10:	e7f6      	b.n	8021c00 <HAL_RCC_OscConfig+0x164>
 8021c12:	4b54      	ldr	r3, [pc, #336]	; (8021d64 <HAL_RCC_OscConfig+0x2c8>)
 8021c14:	691a      	ldr	r2, [r3, #16]
 8021c16:	6a99      	ldr	r1, [r3, #40]	; 0x28
 8021c18:	f012 0238 	ands.w	r2, r2, #56	; 0x38
 8021c1c:	d003      	beq.n	8021c26 <HAL_RCC_OscConfig+0x18a>
 8021c1e:	2a18      	cmp	r2, #24
 8021c20:	d11f      	bne.n	8021c62 <HAL_RCC_OscConfig+0x1c6>
 8021c22:	078e      	lsls	r6, r1, #30
 8021c24:	d11d      	bne.n	8021c62 <HAL_RCC_OscConfig+0x1c6>
 8021c26:	681b      	ldr	r3, [r3, #0]
 8021c28:	075d      	lsls	r5, r3, #29
 8021c2a:	d502      	bpl.n	8021c32 <HAL_RCC_OscConfig+0x196>
 8021c2c:	68e3      	ldr	r3, [r4, #12]
 8021c2e:	2b00      	cmp	r3, #0
 8021c30:	d0ad      	beq.n	8021b8e <HAL_RCC_OscConfig+0xf2>
 8021c32:	f7ff fb4b 	bl	80212cc <HAL_GetREVID>
 8021c36:	f241 0303 	movw	r3, #4099	; 0x1003
 8021c3a:	6921      	ldr	r1, [r4, #16]
 8021c3c:	4298      	cmp	r0, r3
 8021c3e:	4b49      	ldr	r3, [pc, #292]	; (8021d64 <HAL_RCC_OscConfig+0x2c8>)
 8021c40:	685a      	ldr	r2, [r3, #4]
 8021c42:	d809      	bhi.n	8021c58 <HAL_RCC_OscConfig+0x1bc>
 8021c44:	f422 327c 	bic.w	r2, r2, #258048	; 0x3f000
 8021c48:	2940      	cmp	r1, #64	; 0x40
 8021c4a:	bf0c      	ite	eq
 8021c4c:	f442 3200 	orreq.w	r2, r2, #131072	; 0x20000
 8021c50:	ea42 3201 	orrne.w	r2, r2, r1, lsl #12
 8021c54:	605a      	str	r2, [r3, #4]
 8021c56:	e72c      	b.n	8021ab2 <HAL_RCC_OscConfig+0x16>
 8021c58:	f022 42fe 	bic.w	r2, r2, #2130706432	; 0x7f000000
 8021c5c:	ea42 6201 	orr.w	r2, r2, r1, lsl #24
 8021c60:	e7f8      	b.n	8021c54 <HAL_RCC_OscConfig+0x1b8>
 8021c62:	68e1      	ldr	r1, [r4, #12]
 8021c64:	681a      	ldr	r2, [r3, #0]
 8021c66:	b339      	cbz	r1, 8021cb8 <HAL_RCC_OscConfig+0x21c>
 8021c68:	f022 0219 	bic.w	r2, r2, #25
 8021c6c:	4d3d      	ldr	r5, [pc, #244]	; (8021d64 <HAL_RCC_OscConfig+0x2c8>)
 8021c6e:	430a      	orrs	r2, r1
 8021c70:	601a      	str	r2, [r3, #0]
 8021c72:	f7ff fb13 	bl	802129c <HAL_GetTick>
 8021c76:	4606      	mov	r6, r0
 8021c78:	682b      	ldr	r3, [r5, #0]
 8021c7a:	0758      	lsls	r0, r3, #29
 8021c7c:	d511      	bpl.n	8021ca2 <HAL_RCC_OscConfig+0x206>
 8021c7e:	f7ff fb25 	bl	80212cc <HAL_GetREVID>
 8021c82:	f241 0303 	movw	r3, #4099	; 0x1003
 8021c86:	6922      	ldr	r2, [r4, #16]
 8021c88:	4298      	cmp	r0, r3
 8021c8a:	686b      	ldr	r3, [r5, #4]
 8021c8c:	d80f      	bhi.n	8021cae <HAL_RCC_OscConfig+0x212>
 8021c8e:	f423 337c 	bic.w	r3, r3, #258048	; 0x3f000
 8021c92:	2a40      	cmp	r2, #64	; 0x40
 8021c94:	bf0c      	ite	eq
 8021c96:	f443 3300 	orreq.w	r3, r3, #131072	; 0x20000
 8021c9a:	ea43 3302 	orrne.w	r3, r3, r2, lsl #12
 8021c9e:	606b      	str	r3, [r5, #4]
 8021ca0:	e707      	b.n	8021ab2 <HAL_RCC_OscConfig+0x16>
 8021ca2:	f7ff fafb 	bl	802129c <HAL_GetTick>
 8021ca6:	1b80      	subs	r0, r0, r6
 8021ca8:	2802      	cmp	r0, #2
 8021caa:	d9e5      	bls.n	8021c78 <HAL_RCC_OscConfig+0x1dc>
 8021cac:	e786      	b.n	8021bbc <HAL_RCC_OscConfig+0x120>
 8021cae:	f023 43fe 	bic.w	r3, r3, #2130706432	; 0x7f000000
 8021cb2:	ea43 6302 	orr.w	r3, r3, r2, lsl #24
 8021cb6:	e7f2      	b.n	8021c9e <HAL_RCC_OscConfig+0x202>
 8021cb8:	f022 0201 	bic.w	r2, r2, #1
 8021cbc:	4e29      	ldr	r6, [pc, #164]	; (8021d64 <HAL_RCC_OscConfig+0x2c8>)
 8021cbe:	601a      	str	r2, [r3, #0]
 8021cc0:	f7ff faec 	bl	802129c <HAL_GetTick>
 8021cc4:	4605      	mov	r5, r0
 8021cc6:	6833      	ldr	r3, [r6, #0]
 8021cc8:	0759      	lsls	r1, r3, #29
 8021cca:	f57f aef2 	bpl.w	8021ab2 <HAL_RCC_OscConfig+0x16>
 8021cce:	f7ff fae5 	bl	802129c <HAL_GetTick>
 8021cd2:	1b40      	subs	r0, r0, r5
 8021cd4:	2802      	cmp	r0, #2
 8021cd6:	d9f6      	bls.n	8021cc6 <HAL_RCC_OscConfig+0x22a>
 8021cd8:	e770      	b.n	8021bbc <HAL_RCC_OscConfig+0x120>
 8021cda:	68da      	ldr	r2, [r3, #12]
 8021cdc:	f022 527c 	bic.w	r2, r2, #1056964608	; 0x3f000000
 8021ce0:	ea42 6201 	orr.w	r2, r2, r1, lsl #24
 8021ce4:	60da      	str	r2, [r3, #12]
 8021ce6:	e70f      	b.n	8021b08 <HAL_RCC_OscConfig+0x6c>
 8021ce8:	69e2      	ldr	r2, [r4, #28]
 8021cea:	b34a      	cbz	r2, 8021d40 <HAL_RCC_OscConfig+0x2a4>
 8021cec:	681a      	ldr	r2, [r3, #0]
 8021cee:	4d1d      	ldr	r5, [pc, #116]	; (8021d64 <HAL_RCC_OscConfig+0x2c8>)
 8021cf0:	f042 0280 	orr.w	r2, r2, #128	; 0x80
 8021cf4:	601a      	str	r2, [r3, #0]
 8021cf6:	f7ff fad1 	bl	802129c <HAL_GetTick>
 8021cfa:	4606      	mov	r6, r0
 8021cfc:	682b      	ldr	r3, [r5, #0]
 8021cfe:	05df      	lsls	r7, r3, #23
 8021d00:	d511      	bpl.n	8021d26 <HAL_RCC_OscConfig+0x28a>
 8021d02:	f7ff fae3 	bl	80212cc <HAL_GetREVID>
 8021d06:	f241 0303 	movw	r3, #4099	; 0x1003
 8021d0a:	6a22      	ldr	r2, [r4, #32]
 8021d0c:	4298      	cmp	r0, r3
 8021d0e:	d810      	bhi.n	8021d32 <HAL_RCC_OscConfig+0x296>
 8021d10:	686b      	ldr	r3, [r5, #4]
 8021d12:	2a20      	cmp	r2, #32
 8021d14:	f023 43f8 	bic.w	r3, r3, #2080374784	; 0x7c000000
 8021d18:	bf0c      	ite	eq
 8021d1a:	f043 4380 	orreq.w	r3, r3, #1073741824	; 0x40000000
 8021d1e:	ea43 6382 	orrne.w	r3, r3, r2, lsl #26
 8021d22:	606b      	str	r3, [r5, #4]
 8021d24:	e6f0      	b.n	8021b08 <HAL_RCC_OscConfig+0x6c>
 8021d26:	f7ff fab9 	bl	802129c <HAL_GetTick>
 8021d2a:	1b80      	subs	r0, r0, r6
 8021d2c:	2802      	cmp	r0, #2
 8021d2e:	d9e5      	bls.n	8021cfc <HAL_RCC_OscConfig+0x260>
 8021d30:	e744      	b.n	8021bbc <HAL_RCC_OscConfig+0x120>
 8021d32:	68eb      	ldr	r3, [r5, #12]
 8021d34:	f023 537c 	bic.w	r3, r3, #1056964608	; 0x3f000000
 8021d38:	ea43 6302 	orr.w	r3, r3, r2, lsl #24
 8021d3c:	60eb      	str	r3, [r5, #12]
 8021d3e:	e6e3      	b.n	8021b08 <HAL_RCC_OscConfig+0x6c>
 8021d40:	681a      	ldr	r2, [r3, #0]
 8021d42:	4e08      	ldr	r6, [pc, #32]	; (8021d64 <HAL_RCC_OscConfig+0x2c8>)
 8021d44:	f022 0280 	bic.w	r2, r2, #128	; 0x80
 8021d48:	601a      	str	r2, [r3, #0]
 8021d4a:	f7ff faa7 	bl	802129c <HAL_GetTick>
 8021d4e:	4605      	mov	r5, r0
 8021d50:	6833      	ldr	r3, [r6, #0]
 8021d52:	05d8      	lsls	r0, r3, #23
 8021d54:	f57f aed8 	bpl.w	8021b08 <HAL_RCC_OscConfig+0x6c>
 8021d58:	f7ff faa0 	bl	802129c <HAL_GetTick>
 8021d5c:	1b40      	subs	r0, r0, r5
 8021d5e:	2802      	cmp	r0, #2
 8021d60:	d9f6      	bls.n	8021d50 <HAL_RCC_OscConfig+0x2b4>
 8021d62:	e72b      	b.n	8021bbc <HAL_RCC_OscConfig+0x120>
 8021d64:	58024400 	.word	0x58024400
 8021d68:	58024800 	.word	0x58024800
 8021d6c:	6963      	ldr	r3, [r4, #20]
 8021d6e:	4d96      	ldr	r5, [pc, #600]	; (8021fc8 <HAL_RCC_OscConfig+0x52c>)
 8021d70:	b183      	cbz	r3, 8021d94 <HAL_RCC_OscConfig+0x2f8>
 8021d72:	6f6b      	ldr	r3, [r5, #116]	; 0x74
 8021d74:	f043 0301 	orr.w	r3, r3, #1
 8021d78:	676b      	str	r3, [r5, #116]	; 0x74
 8021d7a:	f7ff fa8f 	bl	802129c <HAL_GetTick>
 8021d7e:	4606      	mov	r6, r0
 8021d80:	6f6b      	ldr	r3, [r5, #116]	; 0x74
 8021d82:	079b      	lsls	r3, r3, #30
 8021d84:	f53f aec4 	bmi.w	8021b10 <HAL_RCC_OscConfig+0x74>
 8021d88:	f7ff fa88 	bl	802129c <HAL_GetTick>
 8021d8c:	1b80      	subs	r0, r0, r6
 8021d8e:	2802      	cmp	r0, #2
 8021d90:	d9f6      	bls.n	8021d80 <HAL_RCC_OscConfig+0x2e4>
 8021d92:	e713      	b.n	8021bbc <HAL_RCC_OscConfig+0x120>
 8021d94:	6f6b      	ldr	r3, [r5, #116]	; 0x74
 8021d96:	f023 0301 	bic.w	r3, r3, #1
 8021d9a:	676b      	str	r3, [r5, #116]	; 0x74
 8021d9c:	f7ff fa7e 	bl	802129c <HAL_GetTick>
 8021da0:	4606      	mov	r6, r0
 8021da2:	6f6b      	ldr	r3, [r5, #116]	; 0x74
 8021da4:	079f      	lsls	r7, r3, #30
 8021da6:	f57f aeb3 	bpl.w	8021b10 <HAL_RCC_OscConfig+0x74>
 8021daa:	f7ff fa77 	bl	802129c <HAL_GetTick>
 8021dae:	1b80      	subs	r0, r0, r6
 8021db0:	2802      	cmp	r0, #2
 8021db2:	d9f6      	bls.n	8021da2 <HAL_RCC_OscConfig+0x306>
 8021db4:	e702      	b.n	8021bbc <HAL_RCC_OscConfig+0x120>
 8021db6:	69a3      	ldr	r3, [r4, #24]
 8021db8:	4d83      	ldr	r5, [pc, #524]	; (8021fc8 <HAL_RCC_OscConfig+0x52c>)
 8021dba:	b183      	cbz	r3, 8021dde <HAL_RCC_OscConfig+0x342>
 8021dbc:	682b      	ldr	r3, [r5, #0]
 8021dbe:	f443 5380 	orr.w	r3, r3, #4096	; 0x1000
 8021dc2:	602b      	str	r3, [r5, #0]
 8021dc4:	f7ff fa6a 	bl	802129c <HAL_GetTick>
 8021dc8:	4606      	mov	r6, r0
 8021dca:	682b      	ldr	r3, [r5, #0]
 8021dcc:	0498      	lsls	r0, r3, #18
 8021dce:	f53f aea3 	bmi.w	8021b18 <HAL_RCC_OscConfig+0x7c>
 8021dd2:	f7ff fa63 	bl	802129c <HAL_GetTick>
 8021dd6:	1b80      	subs	r0, r0, r6
 8021dd8:	2802      	cmp	r0, #2
 8021dda:	d9f6      	bls.n	8021dca <HAL_RCC_OscConfig+0x32e>
 8021ddc:	e6ee      	b.n	8021bbc <HAL_RCC_OscConfig+0x120>
 8021dde:	682b      	ldr	r3, [r5, #0]
 8021de0:	f423 5380 	bic.w	r3, r3, #4096	; 0x1000
 8021de4:	602b      	str	r3, [r5, #0]
 8021de6:	f7ff fa59 	bl	802129c <HAL_GetTick>
 8021dea:	4606      	mov	r6, r0
 8021dec:	682b      	ldr	r3, [r5, #0]
 8021dee:	0499      	lsls	r1, r3, #18
 8021df0:	f57f ae92 	bpl.w	8021b18 <HAL_RCC_OscConfig+0x7c>
 8021df4:	f7ff fa52 	bl	802129c <HAL_GetTick>
 8021df8:	1b80      	subs	r0, r0, r6
 8021dfa:	2802      	cmp	r0, #2
 8021dfc:	d9f6      	bls.n	8021dec <HAL_RCC_OscConfig+0x350>
 8021dfe:	e6dd      	b.n	8021bbc <HAL_RCC_OscConfig+0x120>
 8021e00:	f7ff fa4c 	bl	802129c <HAL_GetTick>
 8021e04:	1b80      	subs	r0, r0, r6
 8021e06:	2864      	cmp	r0, #100	; 0x64
 8021e08:	f67f ae91 	bls.w	8021b2e <HAL_RCC_OscConfig+0x92>
 8021e0c:	e6d6      	b.n	8021bbc <HAL_RCC_OscConfig+0x120>
 8021e0e:	b9b3      	cbnz	r3, 8021e3e <HAL_RCC_OscConfig+0x3a2>
 8021e10:	6f2b      	ldr	r3, [r5, #112]	; 0x70
 8021e12:	f241 3788 	movw	r7, #5000	; 0x1388
 8021e16:	f023 0301 	bic.w	r3, r3, #1
 8021e1a:	672b      	str	r3, [r5, #112]	; 0x70
 8021e1c:	6f2b      	ldr	r3, [r5, #112]	; 0x70
 8021e1e:	f023 0304 	bic.w	r3, r3, #4
 8021e22:	672b      	str	r3, [r5, #112]	; 0x70
 8021e24:	f7ff fa3a 	bl	802129c <HAL_GetTick>
 8021e28:	4606      	mov	r6, r0
 8021e2a:	6f2b      	ldr	r3, [r5, #112]	; 0x70
 8021e2c:	0798      	lsls	r0, r3, #30
 8021e2e:	f57f ae95 	bpl.w	8021b5c <HAL_RCC_OscConfig+0xc0>
 8021e32:	f7ff fa33 	bl	802129c <HAL_GetTick>
 8021e36:	1b80      	subs	r0, r0, r6
 8021e38:	42b8      	cmp	r0, r7
 8021e3a:	d9f6      	bls.n	8021e2a <HAL_RCC_OscConfig+0x38e>
 8021e3c:	e6be      	b.n	8021bbc <HAL_RCC_OscConfig+0x120>
 8021e3e:	2b05      	cmp	r3, #5
 8021e40:	6f2b      	ldr	r3, [r5, #112]	; 0x70
 8021e42:	d103      	bne.n	8021e4c <HAL_RCC_OscConfig+0x3b0>
 8021e44:	f043 0304 	orr.w	r3, r3, #4
 8021e48:	672b      	str	r3, [r5, #112]	; 0x70
 8021e4a:	e679      	b.n	8021b40 <HAL_RCC_OscConfig+0xa4>
 8021e4c:	f023 0301 	bic.w	r3, r3, #1
 8021e50:	672b      	str	r3, [r5, #112]	; 0x70
 8021e52:	6f2b      	ldr	r3, [r5, #112]	; 0x70
 8021e54:	f023 0304 	bic.w	r3, r3, #4
 8021e58:	e675      	b.n	8021b46 <HAL_RCC_OscConfig+0xaa>
 8021e5a:	f7ff fa1f 	bl	802129c <HAL_GetTick>
 8021e5e:	1b40      	subs	r0, r0, r5
 8021e60:	42b8      	cmp	r0, r7
 8021e62:	f67f ae77 	bls.w	8021b54 <HAL_RCC_OscConfig+0xb8>
 8021e66:	e6a9      	b.n	8021bbc <HAL_RCC_OscConfig+0x120>
 8021e68:	4d57      	ldr	r5, [pc, #348]	; (8021fc8 <HAL_RCC_OscConfig+0x52c>)
 8021e6a:	692b      	ldr	r3, [r5, #16]
 8021e6c:	f003 0338 	and.w	r3, r3, #56	; 0x38
 8021e70:	2b18      	cmp	r3, #24
 8021e72:	d07a      	beq.n	8021f6a <HAL_RCC_OscConfig+0x4ce>
 8021e74:	682b      	ldr	r3, [r5, #0]
 8021e76:	2902      	cmp	r1, #2
 8021e78:	f023 7380 	bic.w	r3, r3, #16777216	; 0x1000000
 8021e7c:	602b      	str	r3, [r5, #0]
 8021e7e:	d167      	bne.n	8021f50 <HAL_RCC_OscConfig+0x4b4>
 8021e80:	f7ff fa0c 	bl	802129c <HAL_GetTick>
 8021e84:	4606      	mov	r6, r0
 8021e86:	682b      	ldr	r3, [r5, #0]
 8021e88:	0199      	lsls	r1, r3, #6
 8021e8a:	d45b      	bmi.n	8021f44 <HAL_RCC_OscConfig+0x4a8>
 8021e8c:	6aab      	ldr	r3, [r5, #40]	; 0x28
 8021e8e:	6aa2      	ldr	r2, [r4, #40]	; 0x28
 8021e90:	f423 737c 	bic.w	r3, r3, #1008	; 0x3f0
 8021e94:	f023 0303 	bic.w	r3, r3, #3
 8021e98:	4313      	orrs	r3, r2
 8021e9a:	6ae2      	ldr	r2, [r4, #44]	; 0x2c
 8021e9c:	ea43 1302 	orr.w	r3, r3, r2, lsl #4
 8021ea0:	62ab      	str	r3, [r5, #40]	; 0x28
 8021ea2:	6b63      	ldr	r3, [r4, #52]	; 0x34
 8021ea4:	6ba2      	ldr	r2, [r4, #56]	; 0x38
 8021ea6:	3b01      	subs	r3, #1
 8021ea8:	3a01      	subs	r2, #1
 8021eaa:	025b      	lsls	r3, r3, #9
 8021eac:	0412      	lsls	r2, r2, #16
 8021eae:	b29b      	uxth	r3, r3
 8021eb0:	f402 02fe 	and.w	r2, r2, #8323072	; 0x7f0000
 8021eb4:	4313      	orrs	r3, r2
 8021eb6:	6b22      	ldr	r2, [r4, #48]	; 0x30
 8021eb8:	3a01      	subs	r2, #1
 8021eba:	f3c2 0208 	ubfx	r2, r2, #0, #9
 8021ebe:	4313      	orrs	r3, r2
 8021ec0:	6be2      	ldr	r2, [r4, #60]	; 0x3c
 8021ec2:	3a01      	subs	r2, #1
 8021ec4:	0612      	lsls	r2, r2, #24
 8021ec6:	f002 42fe 	and.w	r2, r2, #2130706432	; 0x7f000000
 8021eca:	4313      	orrs	r3, r2
 8021ecc:	632b      	str	r3, [r5, #48]	; 0x30
 8021ece:	6aeb      	ldr	r3, [r5, #44]	; 0x2c
 8021ed0:	f023 0301 	bic.w	r3, r3, #1
 8021ed4:	62eb      	str	r3, [r5, #44]	; 0x2c
 8021ed6:	6b6b      	ldr	r3, [r5, #52]	; 0x34
 8021ed8:	6ca2      	ldr	r2, [r4, #72]	; 0x48
 8021eda:	f423 437f 	bic.w	r3, r3, #65280	; 0xff00
 8021ede:	f023 03f8 	bic.w	r3, r3, #248	; 0xf8
 8021ee2:	ea43 03c2 	orr.w	r3, r3, r2, lsl #3
 8021ee6:	636b      	str	r3, [r5, #52]	; 0x34
 8021ee8:	6aeb      	ldr	r3, [r5, #44]	; 0x2c
 8021eea:	6c22      	ldr	r2, [r4, #64]	; 0x40
 8021eec:	f023 030c 	bic.w	r3, r3, #12
 8021ef0:	4313      	orrs	r3, r2
 8021ef2:	62eb      	str	r3, [r5, #44]	; 0x2c
 8021ef4:	6aeb      	ldr	r3, [r5, #44]	; 0x2c
 8021ef6:	6c62      	ldr	r2, [r4, #68]	; 0x44
 8021ef8:	f023 0302 	bic.w	r3, r3, #2
 8021efc:	4313      	orrs	r3, r2
 8021efe:	62eb      	str	r3, [r5, #44]	; 0x2c
 8021f00:	6aeb      	ldr	r3, [r5, #44]	; 0x2c
 8021f02:	f443 3380 	orr.w	r3, r3, #65536	; 0x10000
 8021f06:	62eb      	str	r3, [r5, #44]	; 0x2c
 8021f08:	6aeb      	ldr	r3, [r5, #44]	; 0x2c
 8021f0a:	f443 3300 	orr.w	r3, r3, #131072	; 0x20000
 8021f0e:	62eb      	str	r3, [r5, #44]	; 0x2c
 8021f10:	6aeb      	ldr	r3, [r5, #44]	; 0x2c
 8021f12:	f443 2380 	orr.w	r3, r3, #262144	; 0x40000
 8021f16:	62eb      	str	r3, [r5, #44]	; 0x2c
 8021f18:	6aeb      	ldr	r3, [r5, #44]	; 0x2c
 8021f1a:	f043 0301 	orr.w	r3, r3, #1
 8021f1e:	62eb      	str	r3, [r5, #44]	; 0x2c
 8021f20:	682b      	ldr	r3, [r5, #0]
 8021f22:	f043 7380 	orr.w	r3, r3, #16777216	; 0x1000000
 8021f26:	602b      	str	r3, [r5, #0]
 8021f28:	f7ff f9b8 	bl	802129c <HAL_GetTick>
 8021f2c:	4d26      	ldr	r5, [pc, #152]	; (8021fc8 <HAL_RCC_OscConfig+0x52c>)
 8021f2e:	4604      	mov	r4, r0
 8021f30:	682b      	ldr	r3, [r5, #0]
 8021f32:	019a      	lsls	r2, r3, #6
 8021f34:	f53f ae16 	bmi.w	8021b64 <HAL_RCC_OscConfig+0xc8>
 8021f38:	f7ff f9b0 	bl	802129c <HAL_GetTick>
 8021f3c:	1b00      	subs	r0, r0, r4
 8021f3e:	2802      	cmp	r0, #2
 8021f40:	d9f6      	bls.n	8021f30 <HAL_RCC_OscConfig+0x494>
 8021f42:	e63b      	b.n	8021bbc <HAL_RCC_OscConfig+0x120>
 8021f44:	f7ff f9aa 	bl	802129c <HAL_GetTick>
 8021f48:	1b80      	subs	r0, r0, r6
 8021f4a:	2802      	cmp	r0, #2
 8021f4c:	d99b      	bls.n	8021e86 <HAL_RCC_OscConfig+0x3ea>
 8021f4e:	e635      	b.n	8021bbc <HAL_RCC_OscConfig+0x120>
 8021f50:	f7ff f9a4 	bl	802129c <HAL_GetTick>
 8021f54:	4604      	mov	r4, r0
 8021f56:	682b      	ldr	r3, [r5, #0]
 8021f58:	019b      	lsls	r3, r3, #6
 8021f5a:	f57f ae03 	bpl.w	8021b64 <HAL_RCC_OscConfig+0xc8>
 8021f5e:	f7ff f99d 	bl	802129c <HAL_GetTick>
 8021f62:	1b00      	subs	r0, r0, r4
 8021f64:	2802      	cmp	r0, #2
 8021f66:	d9f6      	bls.n	8021f56 <HAL_RCC_OscConfig+0x4ba>
 8021f68:	e628      	b.n	8021bbc <HAL_RCC_OscConfig+0x120>
 8021f6a:	2901      	cmp	r1, #1
 8021f6c:	6aaa      	ldr	r2, [r5, #40]	; 0x28
 8021f6e:	6b2b      	ldr	r3, [r5, #48]	; 0x30
 8021f70:	f43f ae0d 	beq.w	8021b8e <HAL_RCC_OscConfig+0xf2>
 8021f74:	f002 0103 	and.w	r1, r2, #3
 8021f78:	6aa0      	ldr	r0, [r4, #40]	; 0x28
 8021f7a:	4281      	cmp	r1, r0
 8021f7c:	f47f ae07 	bne.w	8021b8e <HAL_RCC_OscConfig+0xf2>
 8021f80:	f3c2 1205 	ubfx	r2, r2, #4, #6
 8021f84:	6ae1      	ldr	r1, [r4, #44]	; 0x2c
 8021f86:	428a      	cmp	r2, r1
 8021f88:	f47f ae01 	bne.w	8021b8e <HAL_RCC_OscConfig+0xf2>
 8021f8c:	6b22      	ldr	r2, [r4, #48]	; 0x30
 8021f8e:	f3c3 0108 	ubfx	r1, r3, #0, #9
 8021f92:	3a01      	subs	r2, #1
 8021f94:	4291      	cmp	r1, r2
 8021f96:	f47f adfa 	bne.w	8021b8e <HAL_RCC_OscConfig+0xf2>
 8021f9a:	6b62      	ldr	r2, [r4, #52]	; 0x34
 8021f9c:	f3c3 2146 	ubfx	r1, r3, #9, #7
 8021fa0:	3a01      	subs	r2, #1
 8021fa2:	4291      	cmp	r1, r2
 8021fa4:	f47f adf3 	bne.w	8021b8e <HAL_RCC_OscConfig+0xf2>
 8021fa8:	6ba2      	ldr	r2, [r4, #56]	; 0x38
 8021faa:	f3c3 4106 	ubfx	r1, r3, #16, #7
 8021fae:	3a01      	subs	r2, #1
 8021fb0:	4291      	cmp	r1, r2
 8021fb2:	f47f adec 	bne.w	8021b8e <HAL_RCC_OscConfig+0xf2>
 8021fb6:	6be2      	ldr	r2, [r4, #60]	; 0x3c
 8021fb8:	f3c3 6306 	ubfx	r3, r3, #24, #7
 8021fbc:	3a01      	subs	r2, #1
 8021fbe:	4293      	cmp	r3, r2
 8021fc0:	f43f add0 	beq.w	8021b64 <HAL_RCC_OscConfig+0xc8>
 8021fc4:	e5e3      	b.n	8021b8e <HAL_RCC_OscConfig+0xf2>
 8021fc6:	bf00      	nop
 8021fc8:	58024400 	.word	0x58024400

08021fcc <HAL_RCC_GetSysClockFreq>:
 8021fcc:	4b48      	ldr	r3, [pc, #288]	; (80220f0 <HAL_RCC_GetSysClockFreq+0x124>)
 8021fce:	691a      	ldr	r2, [r3, #16]
 8021fd0:	f002 0238 	and.w	r2, r2, #56	; 0x38
 8021fd4:	2a10      	cmp	r2, #16
 8021fd6:	b530      	push	{r4, r5, lr}
 8021fd8:	f000 8086 	beq.w	80220e8 <HAL_RCC_GetSysClockFreq+0x11c>
 8021fdc:	2a18      	cmp	r2, #24
 8021fde:	d00c      	beq.n	8021ffa <HAL_RCC_GetSysClockFreq+0x2e>
 8021fe0:	2a00      	cmp	r2, #0
 8021fe2:	f040 8083 	bne.w	80220ec <HAL_RCC_GetSysClockFreq+0x120>
 8021fe6:	681a      	ldr	r2, [r3, #0]
 8021fe8:	4842      	ldr	r0, [pc, #264]	; (80220f4 <HAL_RCC_GetSysClockFreq+0x128>)
 8021fea:	f012 0f20 	tst.w	r2, #32
 8021fee:	d003      	beq.n	8021ff8 <HAL_RCC_GetSysClockFreq+0x2c>
 8021ff0:	681b      	ldr	r3, [r3, #0]
 8021ff2:	f3c3 03c1 	ubfx	r3, r3, #3, #2
 8021ff6:	40d8      	lsrs	r0, r3
 8021ff8:	bd30      	pop	{r4, r5, pc}
 8021ffa:	6a99      	ldr	r1, [r3, #40]	; 0x28
 8021ffc:	6a9d      	ldr	r5, [r3, #40]	; 0x28
 8021ffe:	6ada      	ldr	r2, [r3, #44]	; 0x2c
 8022000:	f415 7f7c 	tst.w	r5, #1008	; 0x3f0
 8022004:	f3c5 1005 	ubfx	r0, r5, #4, #6
 8022008:	6b5c      	ldr	r4, [r3, #52]	; 0x34
 802200a:	d0f5      	beq.n	8021ff8 <HAL_RCC_GetSysClockFreq+0x2c>
 802200c:	f3c4 04cc 	ubfx	r4, r4, #3, #13
 8022010:	f002 0201 	and.w	r2, r2, #1
 8022014:	ee07 0a90 	vmov	s15, r0
 8022018:	f001 0103 	and.w	r1, r1, #3
 802201c:	4362      	muls	r2, r4
 802201e:	eeb7 6a00 	vmov.f32	s12, #112	; 0x3f800000  1.0
 8022022:	eef8 6ae7 	vcvt.f32.s32	s13, s15
 8022026:	2901      	cmp	r1, #1
 8022028:	ee07 2a90 	vmov	s15, r2
 802202c:	eefa 7ae9 	vcvt.f32.s32	s15, s15, #13
 8022030:	d04c      	beq.n	80220cc <HAL_RCC_GetSysClockFreq+0x100>
 8022032:	2902      	cmp	r1, #2
 8022034:	d03c      	beq.n	80220b0 <HAL_RCC_GetSysClockFreq+0xe4>
 8022036:	2900      	cmp	r1, #0
 8022038:	d148      	bne.n	80220cc <HAL_RCC_GetSysClockFreq+0x100>
 802203a:	681a      	ldr	r2, [r3, #0]
 802203c:	0692      	lsls	r2, r2, #26
 802203e:	d527      	bpl.n	8022090 <HAL_RCC_GetSysClockFreq+0xc4>
 8022040:	6819      	ldr	r1, [r3, #0]
 8022042:	4a2c      	ldr	r2, [pc, #176]	; (80220f4 <HAL_RCC_GetSysClockFreq+0x128>)
 8022044:	f3c1 01c1 	ubfx	r1, r1, #3, #2
 8022048:	6b1b      	ldr	r3, [r3, #48]	; 0x30
 802204a:	40ca      	lsrs	r2, r1
 802204c:	f3c3 0308 	ubfx	r3, r3, #0, #9
 8022050:	ee07 2a10 	vmov	s14, r2
 8022054:	eef8 5ac7 	vcvt.f32.s32	s11, s14
 8022058:	ee85 7aa6 	vdiv.f32	s14, s11, s13
 802205c:	ee06 3a90 	vmov	s13, r3
 8022060:	eef8 6ae6 	vcvt.f32.s32	s13, s13
 8022064:	ee76 7aa7 	vadd.f32	s15, s13, s15
 8022068:	ee77 7a86 	vadd.f32	s15, s15, s12
 802206c:	4b20      	ldr	r3, [pc, #128]	; (80220f0 <HAL_RCC_GetSysClockFreq+0x124>)
 802206e:	ee67 7a87 	vmul.f32	s15, s15, s14
 8022072:	6b1b      	ldr	r3, [r3, #48]	; 0x30
 8022074:	f3c3 2346 	ubfx	r3, r3, #9, #7
 8022078:	3301      	adds	r3, #1
 802207a:	ee07 3a10 	vmov	s14, r3
 802207e:	eef8 6ac7 	vcvt.f32.s32	s13, s14
 8022082:	ee87 7aa6 	vdiv.f32	s14, s15, s13
 8022086:	eefc 7ac7 	vcvt.u32.f32	s15, s14
 802208a:	ee17 0a90 	vmov	r0, s15
 802208e:	e7b3      	b.n	8021ff8 <HAL_RCC_GetSysClockFreq+0x2c>
 8022090:	6b1b      	ldr	r3, [r3, #48]	; 0x30
 8022092:	f3c3 0308 	ubfx	r3, r3, #0, #9
 8022096:	ee07 3a10 	vmov	s14, r3
 802209a:	eeb8 7ac7 	vcvt.f32.s32	s14, s14
 802209e:	ee77 7a27 	vadd.f32	s15, s14, s15
 80220a2:	ee77 7a86 	vadd.f32	s15, s15, s12
 80220a6:	ed9f 6a14 	vldr	s12, [pc, #80]	; 80220f8 <HAL_RCC_GetSysClockFreq+0x12c>
 80220aa:	ee86 7a26 	vdiv.f32	s14, s12, s13
 80220ae:	e7dd      	b.n	802206c <HAL_RCC_GetSysClockFreq+0xa0>
 80220b0:	6b1b      	ldr	r3, [r3, #48]	; 0x30
 80220b2:	f3c3 0308 	ubfx	r3, r3, #0, #9
 80220b6:	ee07 3a10 	vmov	s14, r3
 80220ba:	eeb8 7ac7 	vcvt.f32.s32	s14, s14
 80220be:	ee77 7a27 	vadd.f32	s15, s14, s15
 80220c2:	ee77 7a86 	vadd.f32	s15, s15, s12
 80220c6:	ed9f 6a0d 	vldr	s12, [pc, #52]	; 80220fc <HAL_RCC_GetSysClockFreq+0x130>
 80220ca:	e7ee      	b.n	80220aa <HAL_RCC_GetSysClockFreq+0xde>
 80220cc:	6b1b      	ldr	r3, [r3, #48]	; 0x30
 80220ce:	f3c3 0308 	ubfx	r3, r3, #0, #9
 80220d2:	ee07 3a10 	vmov	s14, r3
 80220d6:	eeb8 7ac7 	vcvt.f32.s32	s14, s14
 80220da:	ee77 7a27 	vadd.f32	s15, s14, s15
 80220de:	ee77 7a86 	vadd.f32	s15, s15, s12
 80220e2:	ed9f 6a07 	vldr	s12, [pc, #28]	; 8022100 <HAL_RCC_GetSysClockFreq+0x134>
 80220e6:	e7e0      	b.n	80220aa <HAL_RCC_GetSysClockFreq+0xde>
 80220e8:	4806      	ldr	r0, [pc, #24]	; (8022104 <HAL_RCC_GetSysClockFreq+0x138>)
 80220ea:	e785      	b.n	8021ff8 <HAL_RCC_GetSysClockFreq+0x2c>
 80220ec:	4806      	ldr	r0, [pc, #24]	; (8022108 <HAL_RCC_GetSysClockFreq+0x13c>)
 80220ee:	e783      	b.n	8021ff8 <HAL_RCC_GetSysClockFreq+0x2c>
 80220f0:	58024400 	.word	0x58024400
 80220f4:	03d09000 	.word	0x03d09000
 80220f8:	4c742400 	.word	0x4c742400
 80220fc:	4bbebc20 	.word	0x4bbebc20
 8022100:	4a742400 	.word	0x4a742400
 8022104:	017d7840 	.word	0x017d7840
 8022108:	003d0900 	.word	0x003d0900

0802210c <HAL_RCC_ClockConfig>:
 802210c:	e92d 41f0 	stmdb	sp!, {r4, r5, r6, r7, r8, lr}
 8022110:	460d      	mov	r5, r1
 8022112:	4604      	mov	r4, r0
 8022114:	b910      	cbnz	r0, 802211c <HAL_RCC_ClockConfig+0x10>
 8022116:	2001      	movs	r0, #1
 8022118:	e8bd 81f0 	ldmia.w	sp!, {r4, r5, r6, r7, r8, pc}
 802211c:	4a88      	ldr	r2, [pc, #544]	; (8022340 <HAL_RCC_ClockConfig+0x234>)
 802211e:	6813      	ldr	r3, [r2, #0]
 8022120:	f003 030f 	and.w	r3, r3, #15
 8022124:	428b      	cmp	r3, r1
 8022126:	f0c0 8093 	bcc.w	8022250 <HAL_RCC_ClockConfig+0x144>
 802212a:	6823      	ldr	r3, [r4, #0]
 802212c:	075f      	lsls	r7, r3, #29
 802212e:	f100 809b 	bmi.w	8022268 <HAL_RCC_ClockConfig+0x15c>
 8022132:	071e      	lsls	r6, r3, #28
 8022134:	d50b      	bpl.n	802214e <HAL_RCC_ClockConfig+0x42>
 8022136:	4983      	ldr	r1, [pc, #524]	; (8022344 <HAL_RCC_ClockConfig+0x238>)
 8022138:	6966      	ldr	r6, [r4, #20]
 802213a:	69c8      	ldr	r0, [r1, #28]
 802213c:	f000 0070 	and.w	r0, r0, #112	; 0x70
 8022140:	4286      	cmp	r6, r0
 8022142:	d904      	bls.n	802214e <HAL_RCC_ClockConfig+0x42>
 8022144:	69ca      	ldr	r2, [r1, #28]
 8022146:	f022 0270 	bic.w	r2, r2, #112	; 0x70
 802214a:	4332      	orrs	r2, r6
 802214c:	61ca      	str	r2, [r1, #28]
 802214e:	06d8      	lsls	r0, r3, #27
 8022150:	d50b      	bpl.n	802216a <HAL_RCC_ClockConfig+0x5e>
 8022152:	497c      	ldr	r1, [pc, #496]	; (8022344 <HAL_RCC_ClockConfig+0x238>)
 8022154:	69a6      	ldr	r6, [r4, #24]
 8022156:	69c8      	ldr	r0, [r1, #28]
 8022158:	f400 60e0 	and.w	r0, r0, #1792	; 0x700
 802215c:	4286      	cmp	r6, r0
 802215e:	d904      	bls.n	802216a <HAL_RCC_ClockConfig+0x5e>
 8022160:	69ca      	ldr	r2, [r1, #28]
 8022162:	f422 62e0 	bic.w	r2, r2, #1792	; 0x700
 8022166:	4332      	orrs	r2, r6
 8022168:	61ca      	str	r2, [r1, #28]
 802216a:	0699      	lsls	r1, r3, #26
 802216c:	d50b      	bpl.n	8022186 <HAL_RCC_ClockConfig+0x7a>
 802216e:	4975      	ldr	r1, [pc, #468]	; (8022344 <HAL_RCC_ClockConfig+0x238>)
 8022170:	69e6      	ldr	r6, [r4, #28]
 8022172:	6a08      	ldr	r0, [r1, #32]
 8022174:	f000 0070 	and.w	r0, r0, #112	; 0x70
 8022178:	4286      	cmp	r6, r0
 802217a:	d904      	bls.n	8022186 <HAL_RCC_ClockConfig+0x7a>
 802217c:	6a0a      	ldr	r2, [r1, #32]
 802217e:	f022 0270 	bic.w	r2, r2, #112	; 0x70
 8022182:	4332      	orrs	r2, r6
 8022184:	620a      	str	r2, [r1, #32]
 8022186:	079a      	lsls	r2, r3, #30
 8022188:	d50b      	bpl.n	80221a2 <HAL_RCC_ClockConfig+0x96>
 802218a:	496e      	ldr	r1, [pc, #440]	; (8022344 <HAL_RCC_ClockConfig+0x238>)
 802218c:	68e6      	ldr	r6, [r4, #12]
 802218e:	6988      	ldr	r0, [r1, #24]
 8022190:	f000 000f 	and.w	r0, r0, #15
 8022194:	4286      	cmp	r6, r0
 8022196:	d904      	bls.n	80221a2 <HAL_RCC_ClockConfig+0x96>
 8022198:	698a      	ldr	r2, [r1, #24]
 802219a:	f022 020f 	bic.w	r2, r2, #15
 802219e:	4332      	orrs	r2, r6
 80221a0:	618a      	str	r2, [r1, #24]
 80221a2:	07df      	lsls	r7, r3, #31
 80221a4:	d46e      	bmi.n	8022284 <HAL_RCC_ClockConfig+0x178>
 80221a6:	6823      	ldr	r3, [r4, #0]
 80221a8:	079e      	lsls	r6, r3, #30
 80221aa:	f100 80a1 	bmi.w	80222f0 <HAL_RCC_ClockConfig+0x1e4>
 80221ae:	4964      	ldr	r1, [pc, #400]	; (8022340 <HAL_RCC_ClockConfig+0x234>)
 80221b0:	680a      	ldr	r2, [r1, #0]
 80221b2:	f002 020f 	and.w	r2, r2, #15
 80221b6:	42aa      	cmp	r2, r5
 80221b8:	f200 80a8 	bhi.w	802230c <HAL_RCC_ClockConfig+0x200>
 80221bc:	0758      	lsls	r0, r3, #29
 80221be:	f100 80b1 	bmi.w	8022324 <HAL_RCC_ClockConfig+0x218>
 80221c2:	0719      	lsls	r1, r3, #28
 80221c4:	d50b      	bpl.n	80221de <HAL_RCC_ClockConfig+0xd2>
 80221c6:	495f      	ldr	r1, [pc, #380]	; (8022344 <HAL_RCC_ClockConfig+0x238>)
 80221c8:	6965      	ldr	r5, [r4, #20]
 80221ca:	69c8      	ldr	r0, [r1, #28]
 80221cc:	f000 0070 	and.w	r0, r0, #112	; 0x70
 80221d0:	4285      	cmp	r5, r0
 80221d2:	d204      	bcs.n	80221de <HAL_RCC_ClockConfig+0xd2>
 80221d4:	69ca      	ldr	r2, [r1, #28]
 80221d6:	f022 0270 	bic.w	r2, r2, #112	; 0x70
 80221da:	432a      	orrs	r2, r5
 80221dc:	61ca      	str	r2, [r1, #28]
 80221de:	06da      	lsls	r2, r3, #27
 80221e0:	d50b      	bpl.n	80221fa <HAL_RCC_ClockConfig+0xee>
 80221e2:	4958      	ldr	r1, [pc, #352]	; (8022344 <HAL_RCC_ClockConfig+0x238>)
 80221e4:	69a5      	ldr	r5, [r4, #24]
 80221e6:	69c8      	ldr	r0, [r1, #28]
 80221e8:	f400 60e0 	and.w	r0, r0, #1792	; 0x700
 80221ec:	4285      	cmp	r5, r0
 80221ee:	d204      	bcs.n	80221fa <HAL_RCC_ClockConfig+0xee>
 80221f0:	69ca      	ldr	r2, [r1, #28]
 80221f2:	f422 62e0 	bic.w	r2, r2, #1792	; 0x700
 80221f6:	432a      	orrs	r2, r5
 80221f8:	61ca      	str	r2, [r1, #28]
 80221fa:	069b      	lsls	r3, r3, #26
 80221fc:	d50b      	bpl.n	8022216 <HAL_RCC_ClockConfig+0x10a>
 80221fe:	4a51      	ldr	r2, [pc, #324]	; (8022344 <HAL_RCC_ClockConfig+0x238>)
 8022200:	69e0      	ldr	r0, [r4, #28]
 8022202:	6a11      	ldr	r1, [r2, #32]
 8022204:	f001 0170 	and.w	r1, r1, #112	; 0x70
 8022208:	4288      	cmp	r0, r1
 802220a:	d204      	bcs.n	8022216 <HAL_RCC_ClockConfig+0x10a>
 802220c:	6a13      	ldr	r3, [r2, #32]
 802220e:	f023 0370 	bic.w	r3, r3, #112	; 0x70
 8022212:	4303      	orrs	r3, r0
 8022214:	6213      	str	r3, [r2, #32]
 8022216:	f7ff fed9 	bl	8021fcc <HAL_RCC_GetSysClockFreq>
 802221a:	494a      	ldr	r1, [pc, #296]	; (8022344 <HAL_RCC_ClockConfig+0x238>)
 802221c:	4a4a      	ldr	r2, [pc, #296]	; (8022348 <HAL_RCC_ClockConfig+0x23c>)
 802221e:	698b      	ldr	r3, [r1, #24]
 8022220:	f3c3 2303 	ubfx	r3, r3, #8, #4
 8022224:	5cd3      	ldrb	r3, [r2, r3]
 8022226:	f003 031f 	and.w	r3, r3, #31
 802222a:	40d8      	lsrs	r0, r3
 802222c:	698b      	ldr	r3, [r1, #24]
 802222e:	f003 030f 	and.w	r3, r3, #15
 8022232:	5cd3      	ldrb	r3, [r2, r3]
 8022234:	4a45      	ldr	r2, [pc, #276]	; (802234c <HAL_RCC_ClockConfig+0x240>)
 8022236:	f003 031f 	and.w	r3, r3, #31
 802223a:	fa20 f303 	lsr.w	r3, r0, r3
 802223e:	6013      	str	r3, [r2, #0]
 8022240:	4b43      	ldr	r3, [pc, #268]	; (8022350 <HAL_RCC_ClockConfig+0x244>)
 8022242:	6018      	str	r0, [r3, #0]
 8022244:	4b43      	ldr	r3, [pc, #268]	; (8022354 <HAL_RCC_ClockConfig+0x248>)
 8022246:	e8bd 41f0 	ldmia.w	sp!, {r4, r5, r6, r7, r8, lr}
 802224a:	6818      	ldr	r0, [r3, #0]
 802224c:	f7fe bfc6 	b.w	80211dc <HAL_InitTick>
 8022250:	6813      	ldr	r3, [r2, #0]
 8022252:	f023 030f 	bic.w	r3, r3, #15
 8022256:	430b      	orrs	r3, r1
 8022258:	6013      	str	r3, [r2, #0]
 802225a:	6813      	ldr	r3, [r2, #0]
 802225c:	f003 030f 	and.w	r3, r3, #15
 8022260:	428b      	cmp	r3, r1
 8022262:	f47f af58 	bne.w	8022116 <HAL_RCC_ClockConfig+0xa>
 8022266:	e760      	b.n	802212a <HAL_RCC_ClockConfig+0x1e>
 8022268:	4936      	ldr	r1, [pc, #216]	; (8022344 <HAL_RCC_ClockConfig+0x238>)
 802226a:	6926      	ldr	r6, [r4, #16]
 802226c:	6988      	ldr	r0, [r1, #24]
 802226e:	f000 0070 	and.w	r0, r0, #112	; 0x70
 8022272:	4286      	cmp	r6, r0
 8022274:	f67f af5d 	bls.w	8022132 <HAL_RCC_ClockConfig+0x26>
 8022278:	698a      	ldr	r2, [r1, #24]
 802227a:	f022 0270 	bic.w	r2, r2, #112	; 0x70
 802227e:	4332      	orrs	r2, r6
 8022280:	618a      	str	r2, [r1, #24]
 8022282:	e756      	b.n	8022132 <HAL_RCC_ClockConfig+0x26>
 8022284:	4b2f      	ldr	r3, [pc, #188]	; (8022344 <HAL_RCC_ClockConfig+0x238>)
 8022286:	68a1      	ldr	r1, [r4, #8]
 8022288:	699a      	ldr	r2, [r3, #24]
 802228a:	f422 6270 	bic.w	r2, r2, #3840	; 0xf00
 802228e:	430a      	orrs	r2, r1
 8022290:	619a      	str	r2, [r3, #24]
 8022292:	6862      	ldr	r2, [r4, #4]
 8022294:	681b      	ldr	r3, [r3, #0]
 8022296:	2a02      	cmp	r2, #2
 8022298:	d11d      	bne.n	80222d6 <HAL_RCC_ClockConfig+0x1ca>
 802229a:	f413 3f00 	tst.w	r3, #131072	; 0x20000
 802229e:	f43f af3a 	beq.w	8022116 <HAL_RCC_ClockConfig+0xa>
 80222a2:	4e28      	ldr	r6, [pc, #160]	; (8022344 <HAL_RCC_ClockConfig+0x238>)
 80222a4:	f241 3888 	movw	r8, #5000	; 0x1388
 80222a8:	6933      	ldr	r3, [r6, #16]
 80222aa:	f023 0307 	bic.w	r3, r3, #7
 80222ae:	4313      	orrs	r3, r2
 80222b0:	6133      	str	r3, [r6, #16]
 80222b2:	f7fe fff3 	bl	802129c <HAL_GetTick>
 80222b6:	4607      	mov	r7, r0
 80222b8:	6933      	ldr	r3, [r6, #16]
 80222ba:	6862      	ldr	r2, [r4, #4]
 80222bc:	f003 0338 	and.w	r3, r3, #56	; 0x38
 80222c0:	ebb3 0fc2 	cmp.w	r3, r2, lsl #3
 80222c4:	f43f af6f 	beq.w	80221a6 <HAL_RCC_ClockConfig+0x9a>
 80222c8:	f7fe ffe8 	bl	802129c <HAL_GetTick>
 80222cc:	1bc0      	subs	r0, r0, r7
 80222ce:	4540      	cmp	r0, r8
 80222d0:	d9f2      	bls.n	80222b8 <HAL_RCC_ClockConfig+0x1ac>
 80222d2:	2003      	movs	r0, #3
 80222d4:	e720      	b.n	8022118 <HAL_RCC_ClockConfig+0xc>
 80222d6:	2a03      	cmp	r2, #3
 80222d8:	d102      	bne.n	80222e0 <HAL_RCC_ClockConfig+0x1d4>
 80222da:	f013 7f00 	tst.w	r3, #33554432	; 0x2000000
 80222de:	e7de      	b.n	802229e <HAL_RCC_ClockConfig+0x192>
 80222e0:	2a01      	cmp	r2, #1
 80222e2:	d102      	bne.n	80222ea <HAL_RCC_ClockConfig+0x1de>
 80222e4:	f413 7f80 	tst.w	r3, #256	; 0x100
 80222e8:	e7d9      	b.n	802229e <HAL_RCC_ClockConfig+0x192>
 80222ea:	f013 0f04 	tst.w	r3, #4
 80222ee:	e7d6      	b.n	802229e <HAL_RCC_ClockConfig+0x192>
 80222f0:	4914      	ldr	r1, [pc, #80]	; (8022344 <HAL_RCC_ClockConfig+0x238>)
 80222f2:	68e6      	ldr	r6, [r4, #12]
 80222f4:	6988      	ldr	r0, [r1, #24]
 80222f6:	f000 000f 	and.w	r0, r0, #15
 80222fa:	4286      	cmp	r6, r0
 80222fc:	f4bf af57 	bcs.w	80221ae <HAL_RCC_ClockConfig+0xa2>
 8022300:	698a      	ldr	r2, [r1, #24]
 8022302:	f022 020f 	bic.w	r2, r2, #15
 8022306:	4332      	orrs	r2, r6
 8022308:	618a      	str	r2, [r1, #24]
 802230a:	e750      	b.n	80221ae <HAL_RCC_ClockConfig+0xa2>
 802230c:	680a      	ldr	r2, [r1, #0]
 802230e:	f022 020f 	bic.w	r2, r2, #15
 8022312:	432a      	orrs	r2, r5
 8022314:	600a      	str	r2, [r1, #0]
 8022316:	680a      	ldr	r2, [r1, #0]
 8022318:	f002 020f 	and.w	r2, r2, #15
 802231c:	42aa      	cmp	r2, r5
 802231e:	f47f aefa 	bne.w	8022116 <HAL_RCC_ClockConfig+0xa>
 8022322:	e74b      	b.n	80221bc <HAL_RCC_ClockConfig+0xb0>
 8022324:	4907      	ldr	r1, [pc, #28]	; (8022344 <HAL_RCC_ClockConfig+0x238>)
 8022326:	6925      	ldr	r5, [r4, #16]
 8022328:	6988      	ldr	r0, [r1, #24]
 802232a:	f000 0070 	and.w	r0, r0, #112	; 0x70
 802232e:	4285      	cmp	r5, r0
 8022330:	f4bf af47 	bcs.w	80221c2 <HAL_RCC_ClockConfig+0xb6>
 8022334:	698a      	ldr	r2, [r1, #24]
 8022336:	f022 0270 	bic.w	r2, r2, #112	; 0x70
 802233a:	432a      	orrs	r2, r5
 802233c:	618a      	str	r2, [r1, #24]
 802233e:	e740      	b.n	80221c2 <HAL_RCC_ClockConfig+0xb6>
 8022340:	52002000 	.word	0x52002000
 8022344:	58024400 	.word	0x58024400
 8022348:	08026ba8 	.word	0x08026ba8
 802234c:	20000004 	.word	0x20000004
 8022350:	20000000 	.word	0x20000000
 8022354:	2000000c 	.word	0x2000000c

08022358 <HAL_RCC_GetHCLKFreq>:
 8022358:	b510      	push	{r4, lr}
 802235a:	4c0c      	ldr	r4, [pc, #48]	; (802238c <HAL_RCC_GetHCLKFreq+0x34>)
 802235c:	f7ff fe36 	bl	8021fcc <HAL_RCC_GetSysClockFreq>
 8022360:	490b      	ldr	r1, [pc, #44]	; (8022390 <HAL_RCC_GetHCLKFreq+0x38>)
 8022362:	69a3      	ldr	r3, [r4, #24]
 8022364:	f3c3 2303 	ubfx	r3, r3, #8, #4
 8022368:	5cca      	ldrb	r2, [r1, r3]
 802236a:	69a3      	ldr	r3, [r4, #24]
 802236c:	f002 021f 	and.w	r2, r2, #31
 8022370:	f003 030f 	and.w	r3, r3, #15
 8022374:	fa20 f202 	lsr.w	r2, r0, r2
 8022378:	5ccb      	ldrb	r3, [r1, r3]
 802237a:	f003 031f 	and.w	r3, r3, #31
 802237e:	fa22 f003 	lsr.w	r0, r2, r3
 8022382:	4b04      	ldr	r3, [pc, #16]	; (8022394 <HAL_RCC_GetHCLKFreq+0x3c>)
 8022384:	6018      	str	r0, [r3, #0]
 8022386:	4b04      	ldr	r3, [pc, #16]	; (8022398 <HAL_RCC_GetHCLKFreq+0x40>)
 8022388:	601a      	str	r2, [r3, #0]
 802238a:	bd10      	pop	{r4, pc}
 802238c:	58024400 	.word	0x58024400
 8022390:	08026ba8 	.word	0x08026ba8
 8022394:	20000004 	.word	0x20000004
 8022398:	20000000 	.word	0x20000000

0802239c <HAL_RCC_GetPCLK1Freq>:
 802239c:	b508      	push	{r3, lr}
 802239e:	f7ff ffdb 	bl	8022358 <HAL_RCC_GetHCLKFreq>
 80223a2:	4b05      	ldr	r3, [pc, #20]	; (80223b8 <HAL_RCC_GetPCLK1Freq+0x1c>)
 80223a4:	4a05      	ldr	r2, [pc, #20]	; (80223bc <HAL_RCC_GetPCLK1Freq+0x20>)
 80223a6:	69db      	ldr	r3, [r3, #28]
 80223a8:	f3c3 1302 	ubfx	r3, r3, #4, #3
 80223ac:	5cd3      	ldrb	r3, [r2, r3]
 80223ae:	f003 031f 	and.w	r3, r3, #31
 80223b2:	40d8      	lsrs	r0, r3
 80223b4:	bd08      	pop	{r3, pc}
 80223b6:	bf00      	nop
 80223b8:	58024400 	.word	0x58024400
 80223bc:	08026ba8 	.word	0x08026ba8

080223c0 <HAL_RCC_GetPCLK2Freq>:
 80223c0:	b508      	push	{r3, lr}
 80223c2:	f7ff ffc9 	bl	8022358 <HAL_RCC_GetHCLKFreq>
 80223c6:	4b05      	ldr	r3, [pc, #20]	; (80223dc <HAL_RCC_GetPCLK2Freq+0x1c>)
 80223c8:	4a05      	ldr	r2, [pc, #20]	; (80223e0 <HAL_RCC_GetPCLK2Freq+0x20>)
 80223ca:	69db      	ldr	r3, [r3, #28]
 80223cc:	f3c3 2302 	ubfx	r3, r3, #8, #3
 80223d0:	5cd3      	ldrb	r3, [r2, r3]
 80223d2:	f003 031f 	and.w	r3, r3, #31
 80223d6:	40d8      	lsrs	r0, r3
 80223d8:	bd08      	pop	{r3, pc}
 80223da:	bf00      	nop
 80223dc:	58024400 	.word	0x58024400
 80223e0:	08026ba8 	.word	0x08026ba8

080223e4 <RCCEx_PLL2_Config>:
 80223e4:	b5f8      	push	{r3, r4, r5, r6, r7, lr}
 80223e6:	4c3a      	ldr	r4, [pc, #232]	; (80224d0 <RCCEx_PLL2_Config+0xec>)
 80223e8:	4606      	mov	r6, r0
 80223ea:	460d      	mov	r5, r1
 80223ec:	6aa3      	ldr	r3, [r4, #40]	; 0x28
 80223ee:	f003 0303 	and.w	r3, r3, #3
 80223f2:	2b03      	cmp	r3, #3
 80223f4:	d069      	beq.n	80224ca <RCCEx_PLL2_Config+0xe6>
 80223f6:	6823      	ldr	r3, [r4, #0]
 80223f8:	f023 6380 	bic.w	r3, r3, #67108864	; 0x4000000
 80223fc:	6023      	str	r3, [r4, #0]
 80223fe:	f7fe ff4d 	bl	802129c <HAL_GetTick>
 8022402:	4607      	mov	r7, r0
 8022404:	6823      	ldr	r3, [r4, #0]
 8022406:	011a      	lsls	r2, r3, #4
 8022408:	d44b      	bmi.n	80224a2 <RCCEx_PLL2_Config+0xbe>
 802240a:	6aa3      	ldr	r3, [r4, #40]	; 0x28
 802240c:	6832      	ldr	r2, [r6, #0]
 802240e:	f423 337c 	bic.w	r3, r3, #258048	; 0x3f000
 8022412:	ea43 3302 	orr.w	r3, r3, r2, lsl #12
 8022416:	62a3      	str	r3, [r4, #40]	; 0x28
 8022418:	68b3      	ldr	r3, [r6, #8]
 802241a:	68f2      	ldr	r2, [r6, #12]
 802241c:	3b01      	subs	r3, #1
 802241e:	3a01      	subs	r2, #1
 8022420:	025b      	lsls	r3, r3, #9
 8022422:	0412      	lsls	r2, r2, #16
 8022424:	b29b      	uxth	r3, r3
 8022426:	f402 02fe 	and.w	r2, r2, #8323072	; 0x7f0000
 802242a:	4313      	orrs	r3, r2
 802242c:	6872      	ldr	r2, [r6, #4]
 802242e:	3a01      	subs	r2, #1
 8022430:	f3c2 0208 	ubfx	r2, r2, #0, #9
 8022434:	4313      	orrs	r3, r2
 8022436:	6932      	ldr	r2, [r6, #16]
 8022438:	3a01      	subs	r2, #1
 802243a:	0612      	lsls	r2, r2, #24
 802243c:	f002 42fe 	and.w	r2, r2, #2130706432	; 0x7f000000
 8022440:	4313      	orrs	r3, r2
 8022442:	63a3      	str	r3, [r4, #56]	; 0x38
 8022444:	6ae3      	ldr	r3, [r4, #44]	; 0x2c
 8022446:	6972      	ldr	r2, [r6, #20]
 8022448:	f023 03c0 	bic.w	r3, r3, #192	; 0xc0
 802244c:	4313      	orrs	r3, r2
 802244e:	62e3      	str	r3, [r4, #44]	; 0x2c
 8022450:	6ae3      	ldr	r3, [r4, #44]	; 0x2c
 8022452:	69b2      	ldr	r2, [r6, #24]
 8022454:	f023 0320 	bic.w	r3, r3, #32
 8022458:	4313      	orrs	r3, r2
 802245a:	62e3      	str	r3, [r4, #44]	; 0x2c
 802245c:	6ae3      	ldr	r3, [r4, #44]	; 0x2c
 802245e:	f023 0310 	bic.w	r3, r3, #16
 8022462:	62e3      	str	r3, [r4, #44]	; 0x2c
 8022464:	6be3      	ldr	r3, [r4, #60]	; 0x3c
 8022466:	69f2      	ldr	r2, [r6, #28]
 8022468:	f423 437f 	bic.w	r3, r3, #65280	; 0xff00
 802246c:	f023 03f8 	bic.w	r3, r3, #248	; 0xf8
 8022470:	ea43 03c2 	orr.w	r3, r3, r2, lsl #3
 8022474:	63e3      	str	r3, [r4, #60]	; 0x3c
 8022476:	6ae3      	ldr	r3, [r4, #44]	; 0x2c
 8022478:	f043 0310 	orr.w	r3, r3, #16
 802247c:	62e3      	str	r3, [r4, #44]	; 0x2c
 802247e:	6ae3      	ldr	r3, [r4, #44]	; 0x2c
 8022480:	b9b5      	cbnz	r5, 80224b0 <RCCEx_PLL2_Config+0xcc>
 8022482:	f443 2300 	orr.w	r3, r3, #524288	; 0x80000
 8022486:	62e3      	str	r3, [r4, #44]	; 0x2c
 8022488:	4c11      	ldr	r4, [pc, #68]	; (80224d0 <RCCEx_PLL2_Config+0xec>)
 802248a:	6823      	ldr	r3, [r4, #0]
 802248c:	f043 6380 	orr.w	r3, r3, #67108864	; 0x4000000
 8022490:	6023      	str	r3, [r4, #0]
 8022492:	f7fe ff03 	bl	802129c <HAL_GetTick>
 8022496:	4605      	mov	r5, r0
 8022498:	6823      	ldr	r3, [r4, #0]
 802249a:	011b      	lsls	r3, r3, #4
 802249c:	d50f      	bpl.n	80224be <RCCEx_PLL2_Config+0xda>
 802249e:	2000      	movs	r0, #0
 80224a0:	e005      	b.n	80224ae <RCCEx_PLL2_Config+0xca>
 80224a2:	f7fe fefb 	bl	802129c <HAL_GetTick>
 80224a6:	1bc0      	subs	r0, r0, r7
 80224a8:	2802      	cmp	r0, #2
 80224aa:	d9ab      	bls.n	8022404 <RCCEx_PLL2_Config+0x20>
 80224ac:	2003      	movs	r0, #3
 80224ae:	bdf8      	pop	{r3, r4, r5, r6, r7, pc}
 80224b0:	2d01      	cmp	r5, #1
 80224b2:	bf0c      	ite	eq
 80224b4:	f443 1380 	orreq.w	r3, r3, #1048576	; 0x100000
 80224b8:	f443 1300 	orrne.w	r3, r3, #2097152	; 0x200000
 80224bc:	e7e3      	b.n	8022486 <RCCEx_PLL2_Config+0xa2>
 80224be:	f7fe feed 	bl	802129c <HAL_GetTick>
 80224c2:	1b40      	subs	r0, r0, r5
 80224c4:	2802      	cmp	r0, #2
 80224c6:	d9e7      	bls.n	8022498 <RCCEx_PLL2_Config+0xb4>
 80224c8:	e7f0      	b.n	80224ac <RCCEx_PLL2_Config+0xc8>
 80224ca:	2001      	movs	r0, #1
 80224cc:	e7ef      	b.n	80224ae <RCCEx_PLL2_Config+0xca>
 80224ce:	bf00      	nop
 80224d0:	58024400 	.word	0x58024400

080224d4 <RCCEx_PLL3_Config>:
 80224d4:	b5f8      	push	{r3, r4, r5, r6, r7, lr}
 80224d6:	4c3a      	ldr	r4, [pc, #232]	; (80225c0 <RCCEx_PLL3_Config+0xec>)
 80224d8:	4606      	mov	r6, r0
 80224da:	460d      	mov	r5, r1
 80224dc:	6aa3      	ldr	r3, [r4, #40]	; 0x28
 80224de:	f003 0303 	and.w	r3, r3, #3
 80224e2:	2b03      	cmp	r3, #3
 80224e4:	d069      	beq.n	80225ba <RCCEx_PLL3_Config+0xe6>
 80224e6:	6823      	ldr	r3, [r4, #0]
 80224e8:	f023 5380 	bic.w	r3, r3, #268435456	; 0x10000000
 80224ec:	6023      	str	r3, [r4, #0]
 80224ee:	f7fe fed5 	bl	802129c <HAL_GetTick>
 80224f2:	4607      	mov	r7, r0
 80224f4:	6823      	ldr	r3, [r4, #0]
 80224f6:	009a      	lsls	r2, r3, #2
 80224f8:	d44b      	bmi.n	8022592 <RCCEx_PLL3_Config+0xbe>
 80224fa:	6aa3      	ldr	r3, [r4, #40]	; 0x28
 80224fc:	6832      	ldr	r2, [r6, #0]
 80224fe:	f023 737c 	bic.w	r3, r3, #66060288	; 0x3f00000
 8022502:	ea43 5302 	orr.w	r3, r3, r2, lsl #20
 8022506:	62a3      	str	r3, [r4, #40]	; 0x28
 8022508:	68b3      	ldr	r3, [r6, #8]
 802250a:	68f2      	ldr	r2, [r6, #12]
 802250c:	3b01      	subs	r3, #1
 802250e:	3a01      	subs	r2, #1
 8022510:	025b      	lsls	r3, r3, #9
 8022512:	0412      	lsls	r2, r2, #16
 8022514:	b29b      	uxth	r3, r3
 8022516:	f402 02fe 	and.w	r2, r2, #8323072	; 0x7f0000
 802251a:	4313      	orrs	r3, r2
 802251c:	6872      	ldr	r2, [r6, #4]
 802251e:	3a01      	subs	r2, #1
 8022520:	f3c2 0208 	ubfx	r2, r2, #0, #9
 8022524:	4313      	orrs	r3, r2
 8022526:	6932      	ldr	r2, [r6, #16]
 8022528:	3a01      	subs	r2, #1
 802252a:	0612      	lsls	r2, r2, #24
 802252c:	f002 42fe 	and.w	r2, r2, #2130706432	; 0x7f000000
 8022530:	4313      	orrs	r3, r2
 8022532:	6423      	str	r3, [r4, #64]	; 0x40
 8022534:	6ae3      	ldr	r3, [r4, #44]	; 0x2c
 8022536:	6972      	ldr	r2, [r6, #20]
 8022538:	f423 6340 	bic.w	r3, r3, #3072	; 0xc00
 802253c:	4313      	orrs	r3, r2
 802253e:	62e3      	str	r3, [r4, #44]	; 0x2c
 8022540:	6ae3      	ldr	r3, [r4, #44]	; 0x2c
 8022542:	69b2      	ldr	r2, [r6, #24]
 8022544:	f423 7300 	bic.w	r3, r3, #512	; 0x200
 8022548:	4313      	orrs	r3, r2
 802254a:	62e3      	str	r3, [r4, #44]	; 0x2c
 802254c:	6ae3      	ldr	r3, [r4, #44]	; 0x2c
 802254e:	f423 7380 	bic.w	r3, r3, #256	; 0x100
 8022552:	62e3      	str	r3, [r4, #44]	; 0x2c
 8022554:	6c63      	ldr	r3, [r4, #68]	; 0x44
 8022556:	69f2      	ldr	r2, [r6, #28]
 8022558:	f423 437f 	bic.w	r3, r3, #65280	; 0xff00
 802255c:	f023 03f8 	bic.w	r3, r3, #248	; 0xf8
 8022560:	ea43 03c2 	orr.w	r3, r3, r2, lsl #3
 8022564:	6463      	str	r3, [r4, #68]	; 0x44
 8022566:	6ae3      	ldr	r3, [r4, #44]	; 0x2c
 8022568:	f443 7380 	orr.w	r3, r3, #256	; 0x100
 802256c:	62e3      	str	r3, [r4, #44]	; 0x2c
 802256e:	6ae3      	ldr	r3, [r4, #44]	; 0x2c
 8022570:	b9b5      	cbnz	r5, 80225a0 <RCCEx_PLL3_Config+0xcc>
 8022572:	f443 0380 	orr.w	r3, r3, #4194304	; 0x400000
 8022576:	62e3      	str	r3, [r4, #44]	; 0x2c
 8022578:	4c11      	ldr	r4, [pc, #68]	; (80225c0 <RCCEx_PLL3_Config+0xec>)
 802257a:	6823      	ldr	r3, [r4, #0]
 802257c:	f043 5380 	orr.w	r3, r3, #268435456	; 0x10000000
 8022580:	6023      	str	r3, [r4, #0]
 8022582:	f7fe fe8b 	bl	802129c <HAL_GetTick>
 8022586:	4605      	mov	r5, r0
 8022588:	6823      	ldr	r3, [r4, #0]
 802258a:	009b      	lsls	r3, r3, #2
 802258c:	d50f      	bpl.n	80225ae <RCCEx_PLL3_Config+0xda>
 802258e:	2000      	movs	r0, #0
 8022590:	e005      	b.n	802259e <RCCEx_PLL3_Config+0xca>
 8022592:	f7fe fe83 	bl	802129c <HAL_GetTick>
 8022596:	1bc0      	subs	r0, r0, r7
 8022598:	2802      	cmp	r0, #2
 802259a:	d9ab      	bls.n	80224f4 <RCCEx_PLL3_Config+0x20>
 802259c:	2003      	movs	r0, #3
 802259e:	bdf8      	pop	{r3, r4, r5, r6, r7, pc}
 80225a0:	2d01      	cmp	r5, #1
 80225a2:	bf0c      	ite	eq
 80225a4:	f443 0300 	orreq.w	r3, r3, #8388608	; 0x800000
 80225a8:	f043 7380 	orrne.w	r3, r3, #16777216	; 0x1000000
 80225ac:	e7e3      	b.n	8022576 <RCCEx_PLL3_Config+0xa2>
 80225ae:	f7fe fe75 	bl	802129c <HAL_GetTick>
 80225b2:	1b40      	subs	r0, r0, r5
 80225b4:	2802      	cmp	r0, #2
 80225b6:	d9e7      	bls.n	8022588 <RCCEx_PLL3_Config+0xb4>
 80225b8:	e7f0      	b.n	802259c <RCCEx_PLL3_Config+0xc8>
 80225ba:	2001      	movs	r0, #1
 80225bc:	e7ef      	b.n	802259e <RCCEx_PLL3_Config+0xca>
 80225be:	bf00      	nop
 80225c0:	58024400 	.word	0x58024400

080225c4 <HAL_RCCEx_PeriphCLKConfig>:
 80225c4:	e92d 43f8 	stmdb	sp!, {r3, r4, r5, r6, r7, r8, r9, lr}
 80225c8:	6806      	ldr	r6, [r0, #0]
 80225ca:	4605      	mov	r5, r0
 80225cc:	f016 6600 	ands.w	r6, r6, #134217728	; 0x8000000
 80225d0:	d009      	beq.n	80225e6 <HAL_RCCEx_PeriphCLKConfig+0x22>
 80225d2:	6e43      	ldr	r3, [r0, #100]	; 0x64
 80225d4:	f5b3 1f00 	cmp.w	r3, #2097152	; 0x200000
 80225d8:	d02e      	beq.n	8022638 <HAL_RCCEx_PeriphCLKConfig+0x74>
 80225da:	d813      	bhi.n	8022604 <HAL_RCCEx_PeriphCLKConfig+0x40>
 80225dc:	b1f3      	cbz	r3, 802261c <HAL_RCCEx_PeriphCLKConfig+0x58>
 80225de:	f5b3 1f80 	cmp.w	r3, #1048576	; 0x100000
 80225e2:	d021      	beq.n	8022628 <HAL_RCCEx_PeriphCLKConfig+0x64>
 80225e4:	2601      	movs	r6, #1
 80225e6:	682b      	ldr	r3, [r5, #0]
 80225e8:	05dc      	lsls	r4, r3, #23
 80225ea:	f140 80ea 	bpl.w	80227c2 <HAL_RCCEx_PeriphCLKConfig+0x1fe>
 80225ee:	6d6b      	ldr	r3, [r5, #84]	; 0x54
 80225f0:	2b04      	cmp	r3, #4
 80225f2:	f200 80e5 	bhi.w	80227c0 <HAL_RCCEx_PeriphCLKConfig+0x1fc>
 80225f6:	e8df f013 	tbh	[pc, r3, lsl #1]
 80225fa:	0024      	.short	0x0024
 80225fc:	00dd002b 	.word	0x00dd002b
 8022600:	00290029 	.word	0x00290029
 8022604:	f5b3 1f40 	cmp.w	r3, #3145728	; 0x300000
 8022608:	d1ec      	bne.n	80225e4 <HAL_RCCEx_PeriphCLKConfig+0x20>
 802260a:	4ab3      	ldr	r2, [pc, #716]	; (80228d8 <HAL_RCCEx_PeriphCLKConfig+0x314>)
 802260c:	2600      	movs	r6, #0
 802260e:	6e69      	ldr	r1, [r5, #100]	; 0x64
 8022610:	6d13      	ldr	r3, [r2, #80]	; 0x50
 8022612:	f423 1340 	bic.w	r3, r3, #3145728	; 0x300000
 8022616:	430b      	orrs	r3, r1
 8022618:	6513      	str	r3, [r2, #80]	; 0x50
 802261a:	e7e4      	b.n	80225e6 <HAL_RCCEx_PeriphCLKConfig+0x22>
 802261c:	4aae      	ldr	r2, [pc, #696]	; (80228d8 <HAL_RCCEx_PeriphCLKConfig+0x314>)
 802261e:	6ad3      	ldr	r3, [r2, #44]	; 0x2c
 8022620:	f443 3300 	orr.w	r3, r3, #131072	; 0x20000
 8022624:	62d3      	str	r3, [r2, #44]	; 0x2c
 8022626:	e7f0      	b.n	802260a <HAL_RCCEx_PeriphCLKConfig+0x46>
 8022628:	2102      	movs	r1, #2
 802262a:	3004      	adds	r0, #4
 802262c:	f7ff feda 	bl	80223e4 <RCCEx_PLL2_Config>
 8022630:	4606      	mov	r6, r0
 8022632:	2800      	cmp	r0, #0
 8022634:	d1d7      	bne.n	80225e6 <HAL_RCCEx_PeriphCLKConfig+0x22>
 8022636:	e7e8      	b.n	802260a <HAL_RCCEx_PeriphCLKConfig+0x46>
 8022638:	2102      	movs	r1, #2
 802263a:	3024      	adds	r0, #36	; 0x24
 802263c:	f7ff ff4a 	bl	80224d4 <RCCEx_PLL3_Config>
 8022640:	e7f6      	b.n	8022630 <HAL_RCCEx_PeriphCLKConfig+0x6c>
 8022642:	4aa5      	ldr	r2, [pc, #660]	; (80228d8 <HAL_RCCEx_PeriphCLKConfig+0x314>)
 8022644:	6ad3      	ldr	r3, [r2, #44]	; 0x2c
 8022646:	f443 3300 	orr.w	r3, r3, #131072	; 0x20000
 802264a:	62d3      	str	r3, [r2, #44]	; 0x2c
 802264c:	4634      	mov	r4, r6
 802264e:	e004      	b.n	802265a <HAL_RCCEx_PeriphCLKConfig+0x96>
 8022650:	2100      	movs	r1, #0
 8022652:	1d28      	adds	r0, r5, #4
 8022654:	f7ff fec6 	bl	80223e4 <RCCEx_PLL2_Config>
 8022658:	4604      	mov	r4, r0
 802265a:	2c00      	cmp	r4, #0
 802265c:	f040 80b3 	bne.w	80227c6 <HAL_RCCEx_PeriphCLKConfig+0x202>
 8022660:	4a9d      	ldr	r2, [pc, #628]	; (80228d8 <HAL_RCCEx_PeriphCLKConfig+0x314>)
 8022662:	6d69      	ldr	r1, [r5, #84]	; 0x54
 8022664:	6d13      	ldr	r3, [r2, #80]	; 0x50
 8022666:	f023 0307 	bic.w	r3, r3, #7
 802266a:	430b      	orrs	r3, r1
 802266c:	6513      	str	r3, [r2, #80]	; 0x50
 802266e:	682b      	ldr	r3, [r5, #0]
 8022670:	0598      	lsls	r0, r3, #22
 8022672:	d50d      	bpl.n	8022690 <HAL_RCCEx_PeriphCLKConfig+0xcc>
 8022674:	6dab      	ldr	r3, [r5, #88]	; 0x58
 8022676:	2b80      	cmp	r3, #128	; 0x80
 8022678:	f000 80c2 	beq.w	8022800 <HAL_RCCEx_PeriphCLKConfig+0x23c>
 802267c:	f200 80a5 	bhi.w	80227ca <HAL_RCCEx_PeriphCLKConfig+0x206>
 8022680:	2b00      	cmp	r3, #0
 8022682:	f000 80b1 	beq.w	80227e8 <HAL_RCCEx_PeriphCLKConfig+0x224>
 8022686:	2b40      	cmp	r3, #64	; 0x40
 8022688:	f000 80b4 	beq.w	80227f4 <HAL_RCCEx_PeriphCLKConfig+0x230>
 802268c:	2601      	movs	r6, #1
 802268e:	4634      	mov	r4, r6
 8022690:	682b      	ldr	r3, [r5, #0]
 8022692:	0559      	lsls	r1, r3, #21
 8022694:	d510      	bpl.n	80226b8 <HAL_RCCEx_PeriphCLKConfig+0xf4>
 8022696:	f8d5 30a4 	ldr.w	r3, [r5, #164]	; 0xa4
 802269a:	f5b3 0f80 	cmp.w	r3, #4194304	; 0x400000
 802269e:	f000 80d4 	beq.w	802284a <HAL_RCCEx_PeriphCLKConfig+0x286>
 80226a2:	f200 80b5 	bhi.w	8022810 <HAL_RCCEx_PeriphCLKConfig+0x24c>
 80226a6:	2b00      	cmp	r3, #0
 80226a8:	f000 80c3 	beq.w	8022832 <HAL_RCCEx_PeriphCLKConfig+0x26e>
 80226ac:	f5b3 1f00 	cmp.w	r3, #2097152	; 0x200000
 80226b0:	f000 80c5 	beq.w	802283e <HAL_RCCEx_PeriphCLKConfig+0x27a>
 80226b4:	2601      	movs	r6, #1
 80226b6:	4634      	mov	r4, r6
 80226b8:	682b      	ldr	r3, [r5, #0]
 80226ba:	051a      	lsls	r2, r3, #20
 80226bc:	d510      	bpl.n	80226e0 <HAL_RCCEx_PeriphCLKConfig+0x11c>
 80226be:	f8d5 30a8 	ldr.w	r3, [r5, #168]	; 0xa8
 80226c2:	f1b3 7f00 	cmp.w	r3, #33554432	; 0x2000000
 80226c6:	f000 80e5 	beq.w	8022894 <HAL_RCCEx_PeriphCLKConfig+0x2d0>
 80226ca:	f200 80c6 	bhi.w	802285a <HAL_RCCEx_PeriphCLKConfig+0x296>
 80226ce:	2b00      	cmp	r3, #0
 80226d0:	f000 80d4 	beq.w	802287c <HAL_RCCEx_PeriphCLKConfig+0x2b8>
 80226d4:	f1b3 7f80 	cmp.w	r3, #16777216	; 0x1000000
 80226d8:	f000 80d6 	beq.w	8022888 <HAL_RCCEx_PeriphCLKConfig+0x2c4>
 80226dc:	2601      	movs	r6, #1
 80226de:	4634      	mov	r4, r6
 80226e0:	682b      	ldr	r3, [r5, #0]
 80226e2:	019b      	lsls	r3, r3, #6
 80226e4:	d50d      	bpl.n	8022702 <HAL_RCCEx_PeriphCLKConfig+0x13e>
 80226e6:	6cab      	ldr	r3, [r5, #72]	; 0x48
 80226e8:	2b20      	cmp	r3, #32
 80226ea:	f000 80ed 	beq.w	80228c8 <HAL_RCCEx_PeriphCLKConfig+0x304>
 80226ee:	f200 80d9 	bhi.w	80228a4 <HAL_RCCEx_PeriphCLKConfig+0x2e0>
 80226f2:	2b00      	cmp	r3, #0
 80226f4:	f000 80d9 	beq.w	80228aa <HAL_RCCEx_PeriphCLKConfig+0x2e6>
 80226f8:	2b10      	cmp	r3, #16
 80226fa:	f000 80df 	beq.w	80228bc <HAL_RCCEx_PeriphCLKConfig+0x2f8>
 80226fe:	2601      	movs	r6, #1
 8022700:	4634      	mov	r4, r6
 8022702:	682b      	ldr	r3, [r5, #0]
 8022704:	04df      	lsls	r7, r3, #19
 8022706:	d50f      	bpl.n	8022728 <HAL_RCCEx_PeriphCLKConfig+0x164>
 8022708:	6deb      	ldr	r3, [r5, #92]	; 0x5c
 802270a:	f5b3 5f00 	cmp.w	r3, #8192	; 0x2000
 802270e:	f000 8101 	beq.w	8022914 <HAL_RCCEx_PeriphCLKConfig+0x350>
 8022712:	f200 80e3 	bhi.w	80228dc <HAL_RCCEx_PeriphCLKConfig+0x318>
 8022716:	2b00      	cmp	r3, #0
 8022718:	f000 80f0 	beq.w	80228fc <HAL_RCCEx_PeriphCLKConfig+0x338>
 802271c:	f5b3 5f80 	cmp.w	r3, #4096	; 0x1000
 8022720:	f000 80f2 	beq.w	8022908 <HAL_RCCEx_PeriphCLKConfig+0x344>
 8022724:	2601      	movs	r6, #1
 8022726:	4634      	mov	r4, r6
 8022728:	682b      	ldr	r3, [r5, #0]
 802272a:	0498      	lsls	r0, r3, #18
 802272c:	d50f      	bpl.n	802274e <HAL_RCCEx_PeriphCLKConfig+0x18a>
 802272e:	6e2b      	ldr	r3, [r5, #96]	; 0x60
 8022730:	f5b3 3f00 	cmp.w	r3, #131072	; 0x20000
 8022734:	f000 810e 	beq.w	8022954 <HAL_RCCEx_PeriphCLKConfig+0x390>
 8022738:	f200 80f4 	bhi.w	8022924 <HAL_RCCEx_PeriphCLKConfig+0x360>
 802273c:	2b00      	cmp	r3, #0
 802273e:	f000 80fa 	beq.w	8022936 <HAL_RCCEx_PeriphCLKConfig+0x372>
 8022742:	f5b3 3f80 	cmp.w	r3, #65536	; 0x10000
 8022746:	f000 80ff 	beq.w	8022948 <HAL_RCCEx_PeriphCLKConfig+0x384>
 802274a:	2601      	movs	r6, #1
 802274c:	4634      	mov	r4, r6
 802274e:	682b      	ldr	r3, [r5, #0]
 8022750:	0459      	lsls	r1, r3, #17
 8022752:	d510      	bpl.n	8022776 <HAL_RCCEx_PeriphCLKConfig+0x1b2>
 8022754:	f8d5 30ac 	ldr.w	r3, [r5, #172]	; 0xac
 8022758:	f1b3 5f00 	cmp.w	r3, #536870912	; 0x20000000
 802275c:	f000 811b 	beq.w	8022996 <HAL_RCCEx_PeriphCLKConfig+0x3d2>
 8022760:	f200 8100 	bhi.w	8022964 <HAL_RCCEx_PeriphCLKConfig+0x3a0>
 8022764:	2b00      	cmp	r3, #0
 8022766:	f000 8106 	beq.w	8022976 <HAL_RCCEx_PeriphCLKConfig+0x3b2>
 802276a:	f1b3 5f80 	cmp.w	r3, #268435456	; 0x10000000
 802276e:	f000 810c 	beq.w	802298a <HAL_RCCEx_PeriphCLKConfig+0x3c6>
 8022772:	2601      	movs	r6, #1
 8022774:	4634      	mov	r4, r6
 8022776:	682b      	ldr	r3, [r5, #0]
 8022778:	041a      	lsls	r2, r3, #16
 802277a:	d50d      	bpl.n	8022798 <HAL_RCCEx_PeriphCLKConfig+0x1d4>
 802277c:	6eeb      	ldr	r3, [r5, #108]	; 0x6c
 802277e:	f1b3 5f80 	cmp.w	r3, #268435456	; 0x10000000
 8022782:	f000 8110 	beq.w	80229a6 <HAL_RCCEx_PeriphCLKConfig+0x3e2>
 8022786:	f1b3 5f00 	cmp.w	r3, #536870912	; 0x20000000
 802278a:	f000 811a 	beq.w	80229c2 <HAL_RCCEx_PeriphCLKConfig+0x3fe>
 802278e:	2b00      	cmp	r3, #0
 8022790:	f000 810e 	beq.w	80229b0 <HAL_RCCEx_PeriphCLKConfig+0x3ec>
 8022794:	2601      	movs	r6, #1
 8022796:	4634      	mov	r4, r6
 8022798:	682b      	ldr	r3, [r5, #0]
 802279a:	01db      	lsls	r3, r3, #7
 802279c:	f140 8127 	bpl.w	80229ee <HAL_RCCEx_PeriphCLKConfig+0x42a>
 80227a0:	6c6b      	ldr	r3, [r5, #68]	; 0x44
 80227a2:	2b03      	cmp	r3, #3
 80227a4:	f200 8167 	bhi.w	8022a76 <HAL_RCCEx_PeriphCLKConfig+0x4b2>
 80227a8:	e8df f013 	tbh	[pc, r3, lsl #1]
 80227ac:	01130118 	.word	0x01130118
 80227b0:	0118015f 	.word	0x0118015f
 80227b4:	2100      	movs	r1, #0
 80227b6:	f105 0024 	add.w	r0, r5, #36	; 0x24
 80227ba:	f7ff fe8b 	bl	80224d4 <RCCEx_PLL3_Config>
 80227be:	e74b      	b.n	8022658 <HAL_RCCEx_PeriphCLKConfig+0x94>
 80227c0:	2601      	movs	r6, #1
 80227c2:	4634      	mov	r4, r6
 80227c4:	e753      	b.n	802266e <HAL_RCCEx_PeriphCLKConfig+0xaa>
 80227c6:	4626      	mov	r6, r4
 80227c8:	e751      	b.n	802266e <HAL_RCCEx_PeriphCLKConfig+0xaa>
 80227ca:	2bc0      	cmp	r3, #192	; 0xc0
 80227cc:	d003      	beq.n	80227d6 <HAL_RCCEx_PeriphCLKConfig+0x212>
 80227ce:	f5b3 7f80 	cmp.w	r3, #256	; 0x100
 80227d2:	f47f af5b 	bne.w	802268c <HAL_RCCEx_PeriphCLKConfig+0xc8>
 80227d6:	b9cc      	cbnz	r4, 802280c <HAL_RCCEx_PeriphCLKConfig+0x248>
 80227d8:	4a3f      	ldr	r2, [pc, #252]	; (80228d8 <HAL_RCCEx_PeriphCLKConfig+0x314>)
 80227da:	6da9      	ldr	r1, [r5, #88]	; 0x58
 80227dc:	6d13      	ldr	r3, [r2, #80]	; 0x50
 80227de:	f423 73e0 	bic.w	r3, r3, #448	; 0x1c0
 80227e2:	430b      	orrs	r3, r1
 80227e4:	6513      	str	r3, [r2, #80]	; 0x50
 80227e6:	e753      	b.n	8022690 <HAL_RCCEx_PeriphCLKConfig+0xcc>
 80227e8:	4a3b      	ldr	r2, [pc, #236]	; (80228d8 <HAL_RCCEx_PeriphCLKConfig+0x314>)
 80227ea:	6ad3      	ldr	r3, [r2, #44]	; 0x2c
 80227ec:	f443 3300 	orr.w	r3, r3, #131072	; 0x20000
 80227f0:	62d3      	str	r3, [r2, #44]	; 0x2c
 80227f2:	e7f0      	b.n	80227d6 <HAL_RCCEx_PeriphCLKConfig+0x212>
 80227f4:	2100      	movs	r1, #0
 80227f6:	1d28      	adds	r0, r5, #4
 80227f8:	f7ff fdf4 	bl	80223e4 <RCCEx_PLL2_Config>
 80227fc:	4604      	mov	r4, r0
 80227fe:	e7ea      	b.n	80227d6 <HAL_RCCEx_PeriphCLKConfig+0x212>
 8022800:	2100      	movs	r1, #0
 8022802:	f105 0024 	add.w	r0, r5, #36	; 0x24
 8022806:	f7ff fe65 	bl	80224d4 <RCCEx_PLL3_Config>
 802280a:	e7f7      	b.n	80227fc <HAL_RCCEx_PeriphCLKConfig+0x238>
 802280c:	4626      	mov	r6, r4
 802280e:	e73f      	b.n	8022690 <HAL_RCCEx_PeriphCLKConfig+0xcc>
 8022810:	f5b3 0fc0 	cmp.w	r3, #6291456	; 0x600000
 8022814:	d003      	beq.n	802281e <HAL_RCCEx_PeriphCLKConfig+0x25a>
 8022816:	f5b3 0f00 	cmp.w	r3, #8388608	; 0x800000
 802281a:	f47f af4b 	bne.w	80226b4 <HAL_RCCEx_PeriphCLKConfig+0xf0>
 802281e:	b9d4      	cbnz	r4, 8022856 <HAL_RCCEx_PeriphCLKConfig+0x292>
 8022820:	4a2d      	ldr	r2, [pc, #180]	; (80228d8 <HAL_RCCEx_PeriphCLKConfig+0x314>)
 8022822:	f8d5 10a4 	ldr.w	r1, [r5, #164]	; 0xa4
 8022826:	6d93      	ldr	r3, [r2, #88]	; 0x58
 8022828:	f423 0360 	bic.w	r3, r3, #14680064	; 0xe00000
 802282c:	430b      	orrs	r3, r1
 802282e:	6593      	str	r3, [r2, #88]	; 0x58
 8022830:	e742      	b.n	80226b8 <HAL_RCCEx_PeriphCLKConfig+0xf4>
 8022832:	4a29      	ldr	r2, [pc, #164]	; (80228d8 <HAL_RCCEx_PeriphCLKConfig+0x314>)
 8022834:	6ad3      	ldr	r3, [r2, #44]	; 0x2c
 8022836:	f443 3300 	orr.w	r3, r3, #131072	; 0x20000
 802283a:	62d3      	str	r3, [r2, #44]	; 0x2c
 802283c:	e7ef      	b.n	802281e <HAL_RCCEx_PeriphCLKConfig+0x25a>
 802283e:	2100      	movs	r1, #0
 8022840:	1d28      	adds	r0, r5, #4
 8022842:	f7ff fdcf 	bl	80223e4 <RCCEx_PLL2_Config>
 8022846:	4604      	mov	r4, r0
 8022848:	e7e9      	b.n	802281e <HAL_RCCEx_PeriphCLKConfig+0x25a>
 802284a:	2100      	movs	r1, #0
 802284c:	f105 0024 	add.w	r0, r5, #36	; 0x24
 8022850:	f7ff fe40 	bl	80224d4 <RCCEx_PLL3_Config>
 8022854:	e7f7      	b.n	8022846 <HAL_RCCEx_PeriphCLKConfig+0x282>
 8022856:	4626      	mov	r6, r4
 8022858:	e72e      	b.n	80226b8 <HAL_RCCEx_PeriphCLKConfig+0xf4>
 802285a:	f1b3 7f40 	cmp.w	r3, #50331648	; 0x3000000
 802285e:	d003      	beq.n	8022868 <HAL_RCCEx_PeriphCLKConfig+0x2a4>
 8022860:	f1b3 6f80 	cmp.w	r3, #67108864	; 0x4000000
 8022864:	f47f af3a 	bne.w	80226dc <HAL_RCCEx_PeriphCLKConfig+0x118>
 8022868:	b9d4      	cbnz	r4, 80228a0 <HAL_RCCEx_PeriphCLKConfig+0x2dc>
 802286a:	4a1b      	ldr	r2, [pc, #108]	; (80228d8 <HAL_RCCEx_PeriphCLKConfig+0x314>)
 802286c:	f8d5 10a8 	ldr.w	r1, [r5, #168]	; 0xa8
 8022870:	6d93      	ldr	r3, [r2, #88]	; 0x58
 8022872:	f023 63e0 	bic.w	r3, r3, #117440512	; 0x7000000
 8022876:	430b      	orrs	r3, r1
 8022878:	6593      	str	r3, [r2, #88]	; 0x58
 802287a:	e731      	b.n	80226e0 <HAL_RCCEx_PeriphCLKConfig+0x11c>
 802287c:	4a16      	ldr	r2, [pc, #88]	; (80228d8 <HAL_RCCEx_PeriphCLKConfig+0x314>)
 802287e:	6ad3      	ldr	r3, [r2, #44]	; 0x2c
 8022880:	f443 3300 	orr.w	r3, r3, #131072	; 0x20000
 8022884:	62d3      	str	r3, [r2, #44]	; 0x2c
 8022886:	e7ef      	b.n	8022868 <HAL_RCCEx_PeriphCLKConfig+0x2a4>
 8022888:	2100      	movs	r1, #0
 802288a:	1d28      	adds	r0, r5, #4
 802288c:	f7ff fdaa 	bl	80223e4 <RCCEx_PLL2_Config>
 8022890:	4604      	mov	r4, r0
 8022892:	e7e9      	b.n	8022868 <HAL_RCCEx_PeriphCLKConfig+0x2a4>
 8022894:	2100      	movs	r1, #0
 8022896:	f105 0024 	add.w	r0, r5, #36	; 0x24
 802289a:	f7ff fe1b 	bl	80224d4 <RCCEx_PLL3_Config>
 802289e:	e7f7      	b.n	8022890 <HAL_RCCEx_PeriphCLKConfig+0x2cc>
 80228a0:	4626      	mov	r6, r4
 80228a2:	e71d      	b.n	80226e0 <HAL_RCCEx_PeriphCLKConfig+0x11c>
 80228a4:	2b30      	cmp	r3, #48	; 0x30
 80228a6:	f47f af2a 	bne.w	80226fe <HAL_RCCEx_PeriphCLKConfig+0x13a>
 80228aa:	b99c      	cbnz	r4, 80228d4 <HAL_RCCEx_PeriphCLKConfig+0x310>
 80228ac:	4a0a      	ldr	r2, [pc, #40]	; (80228d8 <HAL_RCCEx_PeriphCLKConfig+0x314>)
 80228ae:	6ca9      	ldr	r1, [r5, #72]	; 0x48
 80228b0:	6cd3      	ldr	r3, [r2, #76]	; 0x4c
 80228b2:	f023 0330 	bic.w	r3, r3, #48	; 0x30
 80228b6:	430b      	orrs	r3, r1
 80228b8:	64d3      	str	r3, [r2, #76]	; 0x4c
 80228ba:	e722      	b.n	8022702 <HAL_RCCEx_PeriphCLKConfig+0x13e>
 80228bc:	4a06      	ldr	r2, [pc, #24]	; (80228d8 <HAL_RCCEx_PeriphCLKConfig+0x314>)
 80228be:	6ad3      	ldr	r3, [r2, #44]	; 0x2c
 80228c0:	f443 3300 	orr.w	r3, r3, #131072	; 0x20000
 80228c4:	62d3      	str	r3, [r2, #44]	; 0x2c
 80228c6:	e7f0      	b.n	80228aa <HAL_RCCEx_PeriphCLKConfig+0x2e6>
 80228c8:	2102      	movs	r1, #2
 80228ca:	1d28      	adds	r0, r5, #4
 80228cc:	f7ff fd8a 	bl	80223e4 <RCCEx_PLL2_Config>
 80228d0:	4604      	mov	r4, r0
 80228d2:	e7ea      	b.n	80228aa <HAL_RCCEx_PeriphCLKConfig+0x2e6>
 80228d4:	4626      	mov	r6, r4
 80228d6:	e714      	b.n	8022702 <HAL_RCCEx_PeriphCLKConfig+0x13e>
 80228d8:	58024400 	.word	0x58024400
 80228dc:	f5b3 5f40 	cmp.w	r3, #12288	; 0x3000
 80228e0:	d003      	beq.n	80228ea <HAL_RCCEx_PeriphCLKConfig+0x326>
 80228e2:	f5b3 4f80 	cmp.w	r3, #16384	; 0x4000
 80228e6:	f47f af1d 	bne.w	8022724 <HAL_RCCEx_PeriphCLKConfig+0x160>
 80228ea:	b9cc      	cbnz	r4, 8022920 <HAL_RCCEx_PeriphCLKConfig+0x35c>
 80228ec:	4aa2      	ldr	r2, [pc, #648]	; (8022b78 <HAL_RCCEx_PeriphCLKConfig+0x5b4>)
 80228ee:	6de9      	ldr	r1, [r5, #92]	; 0x5c
 80228f0:	6d13      	ldr	r3, [r2, #80]	; 0x50
 80228f2:	f423 43e0 	bic.w	r3, r3, #28672	; 0x7000
 80228f6:	430b      	orrs	r3, r1
 80228f8:	6513      	str	r3, [r2, #80]	; 0x50
 80228fa:	e715      	b.n	8022728 <HAL_RCCEx_PeriphCLKConfig+0x164>
 80228fc:	4a9e      	ldr	r2, [pc, #632]	; (8022b78 <HAL_RCCEx_PeriphCLKConfig+0x5b4>)
 80228fe:	6ad3      	ldr	r3, [r2, #44]	; 0x2c
 8022900:	f443 3300 	orr.w	r3, r3, #131072	; 0x20000
 8022904:	62d3      	str	r3, [r2, #44]	; 0x2c
 8022906:	e7f0      	b.n	80228ea <HAL_RCCEx_PeriphCLKConfig+0x326>
 8022908:	2100      	movs	r1, #0
 802290a:	1d28      	adds	r0, r5, #4
 802290c:	f7ff fd6a 	bl	80223e4 <RCCEx_PLL2_Config>
 8022910:	4604      	mov	r4, r0
 8022912:	e7ea      	b.n	80228ea <HAL_RCCEx_PeriphCLKConfig+0x326>
 8022914:	2100      	movs	r1, #0
 8022916:	f105 0024 	add.w	r0, r5, #36	; 0x24
 802291a:	f7ff fddb 	bl	80224d4 <RCCEx_PLL3_Config>
 802291e:	e7f7      	b.n	8022910 <HAL_RCCEx_PeriphCLKConfig+0x34c>
 8022920:	4626      	mov	r6, r4
 8022922:	e701      	b.n	8022728 <HAL_RCCEx_PeriphCLKConfig+0x164>
 8022924:	f423 3280 	bic.w	r2, r3, #65536	; 0x10000
 8022928:	f5b2 2f80 	cmp.w	r2, #262144	; 0x40000
 802292c:	d003      	beq.n	8022936 <HAL_RCCEx_PeriphCLKConfig+0x372>
 802292e:	f5b3 3f40 	cmp.w	r3, #196608	; 0x30000
 8022932:	f47f af0a 	bne.w	802274a <HAL_RCCEx_PeriphCLKConfig+0x186>
 8022936:	b99c      	cbnz	r4, 8022960 <HAL_RCCEx_PeriphCLKConfig+0x39c>
 8022938:	4a8f      	ldr	r2, [pc, #572]	; (8022b78 <HAL_RCCEx_PeriphCLKConfig+0x5b4>)
 802293a:	6e29      	ldr	r1, [r5, #96]	; 0x60
 802293c:	6d13      	ldr	r3, [r2, #80]	; 0x50
 802293e:	f423 23e0 	bic.w	r3, r3, #458752	; 0x70000
 8022942:	430b      	orrs	r3, r1
 8022944:	6513      	str	r3, [r2, #80]	; 0x50
 8022946:	e702      	b.n	802274e <HAL_RCCEx_PeriphCLKConfig+0x18a>
 8022948:	2101      	movs	r1, #1
 802294a:	1d28      	adds	r0, r5, #4
 802294c:	f7ff fd4a 	bl	80223e4 <RCCEx_PLL2_Config>
 8022950:	4604      	mov	r4, r0
 8022952:	e7f0      	b.n	8022936 <HAL_RCCEx_PeriphCLKConfig+0x372>
 8022954:	2101      	movs	r1, #1
 8022956:	f105 0024 	add.w	r0, r5, #36	; 0x24
 802295a:	f7ff fdbb 	bl	80224d4 <RCCEx_PLL3_Config>
 802295e:	e7f7      	b.n	8022950 <HAL_RCCEx_PeriphCLKConfig+0x38c>
 8022960:	4626      	mov	r6, r4
 8022962:	e6f4      	b.n	802274e <HAL_RCCEx_PeriphCLKConfig+0x18a>
 8022964:	f023 5280 	bic.w	r2, r3, #268435456	; 0x10000000
 8022968:	f1b2 4f80 	cmp.w	r2, #1073741824	; 0x40000000
 802296c:	d003      	beq.n	8022976 <HAL_RCCEx_PeriphCLKConfig+0x3b2>
 802296e:	f1b3 5f40 	cmp.w	r3, #805306368	; 0x30000000
 8022972:	f47f aefe 	bne.w	8022772 <HAL_RCCEx_PeriphCLKConfig+0x1ae>
 8022976:	b9a4      	cbnz	r4, 80229a2 <HAL_RCCEx_PeriphCLKConfig+0x3de>
 8022978:	4a7f      	ldr	r2, [pc, #508]	; (8022b78 <HAL_RCCEx_PeriphCLKConfig+0x5b4>)
 802297a:	f8d5 10ac 	ldr.w	r1, [r5, #172]	; 0xac
 802297e:	6d93      	ldr	r3, [r2, #88]	; 0x58
 8022980:	f023 43e0 	bic.w	r3, r3, #1879048192	; 0x70000000
 8022984:	430b      	orrs	r3, r1
 8022986:	6593      	str	r3, [r2, #88]	; 0x58
 8022988:	e6f5      	b.n	8022776 <HAL_RCCEx_PeriphCLKConfig+0x1b2>
 802298a:	2101      	movs	r1, #1
 802298c:	1d28      	adds	r0, r5, #4
 802298e:	f7ff fd29 	bl	80223e4 <RCCEx_PLL2_Config>
 8022992:	4604      	mov	r4, r0
 8022994:	e7ef      	b.n	8022976 <HAL_RCCEx_PeriphCLKConfig+0x3b2>
 8022996:	2101      	movs	r1, #1
 8022998:	f105 0024 	add.w	r0, r5, #36	; 0x24
 802299c:	f7ff fd9a 	bl	80224d4 <RCCEx_PLL3_Config>
 80229a0:	e7f7      	b.n	8022992 <HAL_RCCEx_PeriphCLKConfig+0x3ce>
 80229a2:	4626      	mov	r6, r4
 80229a4:	e6e7      	b.n	8022776 <HAL_RCCEx_PeriphCLKConfig+0x1b2>
 80229a6:	4a74      	ldr	r2, [pc, #464]	; (8022b78 <HAL_RCCEx_PeriphCLKConfig+0x5b4>)
 80229a8:	6ad3      	ldr	r3, [r2, #44]	; 0x2c
 80229aa:	f443 3300 	orr.w	r3, r3, #131072	; 0x20000
 80229ae:	62d3      	str	r3, [r2, #44]	; 0x2c
 80229b0:	b96c      	cbnz	r4, 80229ce <HAL_RCCEx_PeriphCLKConfig+0x40a>
 80229b2:	4a71      	ldr	r2, [pc, #452]	; (8022b78 <HAL_RCCEx_PeriphCLKConfig+0x5b4>)
 80229b4:	6ee9      	ldr	r1, [r5, #108]	; 0x6c
 80229b6:	6d13      	ldr	r3, [r2, #80]	; 0x50
 80229b8:	f023 5340 	bic.w	r3, r3, #805306368	; 0x30000000
 80229bc:	430b      	orrs	r3, r1
 80229be:	6513      	str	r3, [r2, #80]	; 0x50
 80229c0:	e6ea      	b.n	8022798 <HAL_RCCEx_PeriphCLKConfig+0x1d4>
 80229c2:	2101      	movs	r1, #1
 80229c4:	1d28      	adds	r0, r5, #4
 80229c6:	f7ff fd0d 	bl	80223e4 <RCCEx_PLL2_Config>
 80229ca:	4604      	mov	r4, r0
 80229cc:	e7f0      	b.n	80229b0 <HAL_RCCEx_PeriphCLKConfig+0x3ec>
 80229ce:	4626      	mov	r6, r4
 80229d0:	e6e2      	b.n	8022798 <HAL_RCCEx_PeriphCLKConfig+0x1d4>
 80229d2:	4a69      	ldr	r2, [pc, #420]	; (8022b78 <HAL_RCCEx_PeriphCLKConfig+0x5b4>)
 80229d4:	6ad3      	ldr	r3, [r2, #44]	; 0x2c
 80229d6:	f443 3300 	orr.w	r3, r3, #131072	; 0x20000
 80229da:	62d3      	str	r3, [r2, #44]	; 0x2c
 80229dc:	2c00      	cmp	r4, #0
 80229de:	d14d      	bne.n	8022a7c <HAL_RCCEx_PeriphCLKConfig+0x4b8>
 80229e0:	4a65      	ldr	r2, [pc, #404]	; (8022b78 <HAL_RCCEx_PeriphCLKConfig+0x5b4>)
 80229e2:	6c69      	ldr	r1, [r5, #68]	; 0x44
 80229e4:	6cd3      	ldr	r3, [r2, #76]	; 0x4c
 80229e6:	f023 0303 	bic.w	r3, r3, #3
 80229ea:	430b      	orrs	r3, r1
 80229ec:	64d3      	str	r3, [r2, #76]	; 0x4c
 80229ee:	682b      	ldr	r3, [r5, #0]
 80229f0:	025f      	lsls	r7, r3, #9
 80229f2:	d54d      	bpl.n	8022a90 <HAL_RCCEx_PeriphCLKConfig+0x4cc>
 80229f4:	4f61      	ldr	r7, [pc, #388]	; (8022b7c <HAL_RCCEx_PeriphCLKConfig+0x5b8>)
 80229f6:	683b      	ldr	r3, [r7, #0]
 80229f8:	f443 7380 	orr.w	r3, r3, #256	; 0x100
 80229fc:	603b      	str	r3, [r7, #0]
 80229fe:	f7fe fc4d 	bl	802129c <HAL_GetTick>
 8022a02:	4680      	mov	r8, r0
 8022a04:	683b      	ldr	r3, [r7, #0]
 8022a06:	05d8      	lsls	r0, r3, #23
 8022a08:	d53a      	bpl.n	8022a80 <HAL_RCCEx_PeriphCLKConfig+0x4bc>
 8022a0a:	2c00      	cmp	r4, #0
 8022a0c:	d16c      	bne.n	8022ae8 <HAL_RCCEx_PeriphCLKConfig+0x524>
 8022a0e:	4b5a      	ldr	r3, [pc, #360]	; (8022b78 <HAL_RCCEx_PeriphCLKConfig+0x5b4>)
 8022a10:	f8d5 00b0 	ldr.w	r0, [r5, #176]	; 0xb0
 8022a14:	6f1a      	ldr	r2, [r3, #112]	; 0x70
 8022a16:	4042      	eors	r2, r0
 8022a18:	f412 7f40 	tst.w	r2, #768	; 0x300
 8022a1c:	d00b      	beq.n	8022a36 <HAL_RCCEx_PeriphCLKConfig+0x472>
 8022a1e:	6f1a      	ldr	r2, [r3, #112]	; 0x70
 8022a20:	6f19      	ldr	r1, [r3, #112]	; 0x70
 8022a22:	f422 7240 	bic.w	r2, r2, #768	; 0x300
 8022a26:	f441 3180 	orr.w	r1, r1, #65536	; 0x10000
 8022a2a:	6719      	str	r1, [r3, #112]	; 0x70
 8022a2c:	6f19      	ldr	r1, [r3, #112]	; 0x70
 8022a2e:	f421 3180 	bic.w	r1, r1, #65536	; 0x10000
 8022a32:	6719      	str	r1, [r3, #112]	; 0x70
 8022a34:	671a      	str	r2, [r3, #112]	; 0x70
 8022a36:	f5b0 7f80 	cmp.w	r0, #256	; 0x100
 8022a3a:	d040      	beq.n	8022abe <HAL_RCCEx_PeriphCLKConfig+0x4fa>
 8022a3c:	f8d5 30b0 	ldr.w	r3, [r5, #176]	; 0xb0
 8022a40:	494d      	ldr	r1, [pc, #308]	; (8022b78 <HAL_RCCEx_PeriphCLKConfig+0x5b4>)
 8022a42:	f403 7240 	and.w	r2, r3, #768	; 0x300
 8022a46:	f5b2 7f40 	cmp.w	r2, #768	; 0x300
 8022a4a:	d149      	bne.n	8022ae0 <HAL_RCCEx_PeriphCLKConfig+0x51c>
 8022a4c:	6908      	ldr	r0, [r1, #16]
 8022a4e:	4a4c      	ldr	r2, [pc, #304]	; (8022b80 <HAL_RCCEx_PeriphCLKConfig+0x5bc>)
 8022a50:	f420 507c 	bic.w	r0, r0, #16128	; 0x3f00
 8022a54:	ea02 1213 	and.w	r2, r2, r3, lsr #4
 8022a58:	4302      	orrs	r2, r0
 8022a5a:	610a      	str	r2, [r1, #16]
 8022a5c:	f3c3 030b 	ubfx	r3, r3, #0, #12
 8022a60:	4a45      	ldr	r2, [pc, #276]	; (8022b78 <HAL_RCCEx_PeriphCLKConfig+0x5b4>)
 8022a62:	6f11      	ldr	r1, [r2, #112]	; 0x70
 8022a64:	430b      	orrs	r3, r1
 8022a66:	6713      	str	r3, [r2, #112]	; 0x70
 8022a68:	e012      	b.n	8022a90 <HAL_RCCEx_PeriphCLKConfig+0x4cc>
 8022a6a:	2102      	movs	r1, #2
 8022a6c:	1d28      	adds	r0, r5, #4
 8022a6e:	f7ff fcb9 	bl	80223e4 <RCCEx_PLL2_Config>
 8022a72:	4604      	mov	r4, r0
 8022a74:	e7b2      	b.n	80229dc <HAL_RCCEx_PeriphCLKConfig+0x418>
 8022a76:	2601      	movs	r6, #1
 8022a78:	4634      	mov	r4, r6
 8022a7a:	e7b8      	b.n	80229ee <HAL_RCCEx_PeriphCLKConfig+0x42a>
 8022a7c:	4626      	mov	r6, r4
 8022a7e:	e7b6      	b.n	80229ee <HAL_RCCEx_PeriphCLKConfig+0x42a>
 8022a80:	f7fe fc0c 	bl	802129c <HAL_GetTick>
 8022a84:	eba0 0008 	sub.w	r0, r0, r8
 8022a88:	2864      	cmp	r0, #100	; 0x64
 8022a8a:	d9bb      	bls.n	8022a04 <HAL_RCCEx_PeriphCLKConfig+0x440>
 8022a8c:	2603      	movs	r6, #3
 8022a8e:	4634      	mov	r4, r6
 8022a90:	682b      	ldr	r3, [r5, #0]
 8022a92:	07da      	lsls	r2, r3, #31
 8022a94:	d508      	bpl.n	8022aa8 <HAL_RCCEx_PeriphCLKConfig+0x4e4>
 8022a96:	6fab      	ldr	r3, [r5, #120]	; 0x78
 8022a98:	2b10      	cmp	r3, #16
 8022a9a:	d03c      	beq.n	8022b16 <HAL_RCCEx_PeriphCLKConfig+0x552>
 8022a9c:	d826      	bhi.n	8022aec <HAL_RCCEx_PeriphCLKConfig+0x528>
 8022a9e:	b35b      	cbz	r3, 8022af8 <HAL_RCCEx_PeriphCLKConfig+0x534>
 8022aa0:	2b08      	cmp	r3, #8
 8022aa2:	d032      	beq.n	8022b0a <HAL_RCCEx_PeriphCLKConfig+0x546>
 8022aa4:	2601      	movs	r6, #1
 8022aa6:	4634      	mov	r4, r6
 8022aa8:	682b      	ldr	r3, [r5, #0]
 8022aaa:	079b      	lsls	r3, r3, #30
 8022aac:	d548      	bpl.n	8022b40 <HAL_RCCEx_PeriphCLKConfig+0x57c>
 8022aae:	6f6b      	ldr	r3, [r5, #116]	; 0x74
 8022ab0:	2b05      	cmp	r3, #5
 8022ab2:	d85b      	bhi.n	8022b6c <HAL_RCCEx_PeriphCLKConfig+0x5a8>
 8022ab4:	e8df f003 	tbb	[pc, r3]
 8022ab8:	3c54373c 	.word	0x3c54373c
 8022abc:	3c3c      	.short	0x3c3c
 8022abe:	f7fe fbed 	bl	802129c <HAL_GetTick>
 8022ac2:	f8df 80b4 	ldr.w	r8, [pc, #180]	; 8022b78 <HAL_RCCEx_PeriphCLKConfig+0x5b4>
 8022ac6:	4607      	mov	r7, r0
 8022ac8:	f241 3988 	movw	r9, #5000	; 0x1388
 8022acc:	f8d8 3070 	ldr.w	r3, [r8, #112]	; 0x70
 8022ad0:	0799      	lsls	r1, r3, #30
 8022ad2:	d4b3      	bmi.n	8022a3c <HAL_RCCEx_PeriphCLKConfig+0x478>
 8022ad4:	f7fe fbe2 	bl	802129c <HAL_GetTick>
 8022ad8:	1bc0      	subs	r0, r0, r7
 8022ada:	4548      	cmp	r0, r9
 8022adc:	d9f6      	bls.n	8022acc <HAL_RCCEx_PeriphCLKConfig+0x508>
 8022ade:	e7d5      	b.n	8022a8c <HAL_RCCEx_PeriphCLKConfig+0x4c8>
 8022ae0:	690a      	ldr	r2, [r1, #16]
 8022ae2:	f422 527c 	bic.w	r2, r2, #16128	; 0x3f00
 8022ae6:	e7b8      	b.n	8022a5a <HAL_RCCEx_PeriphCLKConfig+0x496>
 8022ae8:	4626      	mov	r6, r4
 8022aea:	e7d1      	b.n	8022a90 <HAL_RCCEx_PeriphCLKConfig+0x4cc>
 8022aec:	f023 0208 	bic.w	r2, r3, #8
 8022af0:	2a20      	cmp	r2, #32
 8022af2:	d001      	beq.n	8022af8 <HAL_RCCEx_PeriphCLKConfig+0x534>
 8022af4:	2b18      	cmp	r3, #24
 8022af6:	d1d5      	bne.n	8022aa4 <HAL_RCCEx_PeriphCLKConfig+0x4e0>
 8022af8:	b99c      	cbnz	r4, 8022b22 <HAL_RCCEx_PeriphCLKConfig+0x55e>
 8022afa:	4a1f      	ldr	r2, [pc, #124]	; (8022b78 <HAL_RCCEx_PeriphCLKConfig+0x5b4>)
 8022afc:	6fa9      	ldr	r1, [r5, #120]	; 0x78
 8022afe:	6d53      	ldr	r3, [r2, #84]	; 0x54
 8022b00:	f023 0338 	bic.w	r3, r3, #56	; 0x38
 8022b04:	430b      	orrs	r3, r1
 8022b06:	6553      	str	r3, [r2, #84]	; 0x54
 8022b08:	e7ce      	b.n	8022aa8 <HAL_RCCEx_PeriphCLKConfig+0x4e4>
 8022b0a:	2101      	movs	r1, #1
 8022b0c:	1d28      	adds	r0, r5, #4
 8022b0e:	f7ff fc69 	bl	80223e4 <RCCEx_PLL2_Config>
 8022b12:	4604      	mov	r4, r0
 8022b14:	e7f0      	b.n	8022af8 <HAL_RCCEx_PeriphCLKConfig+0x534>
 8022b16:	2101      	movs	r1, #1
 8022b18:	f105 0024 	add.w	r0, r5, #36	; 0x24
 8022b1c:	f7ff fcda 	bl	80224d4 <RCCEx_PLL3_Config>
 8022b20:	e7f7      	b.n	8022b12 <HAL_RCCEx_PeriphCLKConfig+0x54e>
 8022b22:	4626      	mov	r6, r4
 8022b24:	e7c0      	b.n	8022aa8 <HAL_RCCEx_PeriphCLKConfig+0x4e4>
 8022b26:	2101      	movs	r1, #1
 8022b28:	1d28      	adds	r0, r5, #4
 8022b2a:	f7ff fc5b 	bl	80223e4 <RCCEx_PLL2_Config>
 8022b2e:	4604      	mov	r4, r0
 8022b30:	b9fc      	cbnz	r4, 8022b72 <HAL_RCCEx_PeriphCLKConfig+0x5ae>
 8022b32:	4a11      	ldr	r2, [pc, #68]	; (8022b78 <HAL_RCCEx_PeriphCLKConfig+0x5b4>)
 8022b34:	6f69      	ldr	r1, [r5, #116]	; 0x74
 8022b36:	6d53      	ldr	r3, [r2, #84]	; 0x54
 8022b38:	f023 0307 	bic.w	r3, r3, #7
 8022b3c:	430b      	orrs	r3, r1
 8022b3e:	6553      	str	r3, [r2, #84]	; 0x54
 8022b40:	682b      	ldr	r3, [r5, #0]
 8022b42:	075f      	lsls	r7, r3, #29
 8022b44:	d52e      	bpl.n	8022ba4 <HAL_RCCEx_PeriphCLKConfig+0x5e0>
 8022b46:	f8d5 3090 	ldr.w	r3, [r5, #144]	; 0x90
 8022b4a:	2b05      	cmp	r3, #5
 8022b4c:	f200 8140 	bhi.w	8022dd0 <HAL_RCCEx_PeriphCLKConfig+0x80c>
 8022b50:	e8df f013 	tbh	[pc, r3, lsl #1]
 8022b54:	0018001d 	.word	0x0018001d
 8022b58:	001d0138 	.word	0x001d0138
 8022b5c:	001d001d 	.word	0x001d001d
 8022b60:	2101      	movs	r1, #1
 8022b62:	f105 0024 	add.w	r0, r5, #36	; 0x24
 8022b66:	f7ff fcb5 	bl	80224d4 <RCCEx_PLL3_Config>
 8022b6a:	e7e0      	b.n	8022b2e <HAL_RCCEx_PeriphCLKConfig+0x56a>
 8022b6c:	2601      	movs	r6, #1
 8022b6e:	4634      	mov	r4, r6
 8022b70:	e7e6      	b.n	8022b40 <HAL_RCCEx_PeriphCLKConfig+0x57c>
 8022b72:	4626      	mov	r6, r4
 8022b74:	e7e4      	b.n	8022b40 <HAL_RCCEx_PeriphCLKConfig+0x57c>
 8022b76:	bf00      	nop
 8022b78:	58024400 	.word	0x58024400
 8022b7c:	58024800 	.word	0x58024800
 8022b80:	00ffffcf 	.word	0x00ffffcf
 8022b84:	2101      	movs	r1, #1
 8022b86:	1d28      	adds	r0, r5, #4
 8022b88:	f7ff fc2c 	bl	80223e4 <RCCEx_PLL2_Config>
 8022b8c:	4604      	mov	r4, r0
 8022b8e:	2c00      	cmp	r4, #0
 8022b90:	f040 8121 	bne.w	8022dd6 <HAL_RCCEx_PeriphCLKConfig+0x812>
 8022b94:	4ab2      	ldr	r2, [pc, #712]	; (8022e60 <HAL_RCCEx_PeriphCLKConfig+0x89c>)
 8022b96:	f8d5 1090 	ldr.w	r1, [r5, #144]	; 0x90
 8022b9a:	6d93      	ldr	r3, [r2, #88]	; 0x58
 8022b9c:	f023 0307 	bic.w	r3, r3, #7
 8022ba0:	430b      	orrs	r3, r1
 8022ba2:	6593      	str	r3, [r2, #88]	; 0x58
 8022ba4:	682b      	ldr	r3, [r5, #0]
 8022ba6:	0698      	lsls	r0, r3, #26
 8022ba8:	d510      	bpl.n	8022bcc <HAL_RCCEx_PeriphCLKConfig+0x608>
 8022baa:	f8d5 308c 	ldr.w	r3, [r5, #140]	; 0x8c
 8022bae:	f1b3 5f00 	cmp.w	r3, #536870912	; 0x20000000
 8022bb2:	f000 812b 	beq.w	8022e0c <HAL_RCCEx_PeriphCLKConfig+0x848>
 8022bb6:	f200 8110 	bhi.w	8022dda <HAL_RCCEx_PeriphCLKConfig+0x816>
 8022bba:	2b00      	cmp	r3, #0
 8022bbc:	f000 8116 	beq.w	8022dec <HAL_RCCEx_PeriphCLKConfig+0x828>
 8022bc0:	f1b3 5f80 	cmp.w	r3, #268435456	; 0x10000000
 8022bc4:	f000 811c 	beq.w	8022e00 <HAL_RCCEx_PeriphCLKConfig+0x83c>
 8022bc8:	2601      	movs	r6, #1
 8022bca:	4634      	mov	r4, r6
 8022bcc:	682b      	ldr	r3, [r5, #0]
 8022bce:	0659      	lsls	r1, r3, #25
 8022bd0:	d510      	bpl.n	8022bf4 <HAL_RCCEx_PeriphCLKConfig+0x630>
 8022bd2:	f8d5 3098 	ldr.w	r3, [r5, #152]	; 0x98
 8022bd6:	f5b3 6f00 	cmp.w	r3, #2048	; 0x800
 8022bda:	f000 8138 	beq.w	8022e4e <HAL_RCCEx_PeriphCLKConfig+0x88a>
 8022bde:	f200 811d 	bhi.w	8022e1c <HAL_RCCEx_PeriphCLKConfig+0x858>
 8022be2:	2b00      	cmp	r3, #0
 8022be4:	f000 8123 	beq.w	8022e2e <HAL_RCCEx_PeriphCLKConfig+0x86a>
 8022be8:	f5b3 6f80 	cmp.w	r3, #1024	; 0x400
 8022bec:	f000 8129 	beq.w	8022e42 <HAL_RCCEx_PeriphCLKConfig+0x87e>
 8022bf0:	2601      	movs	r6, #1
 8022bf2:	4634      	mov	r4, r6
 8022bf4:	682b      	ldr	r3, [r5, #0]
 8022bf6:	061a      	lsls	r2, r3, #24
 8022bf8:	d510      	bpl.n	8022c1c <HAL_RCCEx_PeriphCLKConfig+0x658>
 8022bfa:	f8d5 309c 	ldr.w	r3, [r5, #156]	; 0x9c
 8022bfe:	f5b3 4f80 	cmp.w	r3, #16384	; 0x4000
 8022c02:	f000 8148 	beq.w	8022e96 <HAL_RCCEx_PeriphCLKConfig+0x8d2>
 8022c06:	f200 812d 	bhi.w	8022e64 <HAL_RCCEx_PeriphCLKConfig+0x8a0>
 8022c0a:	2b00      	cmp	r3, #0
 8022c0c:	f000 8133 	beq.w	8022e76 <HAL_RCCEx_PeriphCLKConfig+0x8b2>
 8022c10:	f5b3 5f00 	cmp.w	r3, #8192	; 0x2000
 8022c14:	f000 8139 	beq.w	8022e8a <HAL_RCCEx_PeriphCLKConfig+0x8c6>
 8022c18:	2601      	movs	r6, #1
 8022c1a:	4634      	mov	r4, r6
 8022c1c:	682b      	ldr	r3, [r5, #0]
 8022c1e:	071b      	lsls	r3, r3, #28
 8022c20:	d514      	bpl.n	8022c4c <HAL_RCCEx_PeriphCLKConfig+0x688>
 8022c22:	f8d5 3080 	ldr.w	r3, [r5, #128]	; 0x80
 8022c26:	f5b3 5f80 	cmp.w	r3, #4096	; 0x1000
 8022c2a:	d107      	bne.n	8022c3c <HAL_RCCEx_PeriphCLKConfig+0x678>
 8022c2c:	2102      	movs	r1, #2
 8022c2e:	f105 0024 	add.w	r0, r5, #36	; 0x24
 8022c32:	f7ff fc4f 	bl	80224d4 <RCCEx_PLL3_Config>
 8022c36:	2800      	cmp	r0, #0
 8022c38:	bf18      	it	ne
 8022c3a:	2601      	movne	r6, #1
 8022c3c:	4a88      	ldr	r2, [pc, #544]	; (8022e60 <HAL_RCCEx_PeriphCLKConfig+0x89c>)
 8022c3e:	f8d5 1080 	ldr.w	r1, [r5, #128]	; 0x80
 8022c42:	6d53      	ldr	r3, [r2, #84]	; 0x54
 8022c44:	f423 5340 	bic.w	r3, r3, #12288	; 0x3000
 8022c48:	430b      	orrs	r3, r1
 8022c4a:	6553      	str	r3, [r2, #84]	; 0x54
 8022c4c:	682b      	ldr	r3, [r5, #0]
 8022c4e:	06df      	lsls	r7, r3, #27
 8022c50:	d514      	bpl.n	8022c7c <HAL_RCCEx_PeriphCLKConfig+0x6b8>
 8022c52:	f8d5 3094 	ldr.w	r3, [r5, #148]	; 0x94
 8022c56:	f5b3 7f80 	cmp.w	r3, #256	; 0x100
 8022c5a:	d107      	bne.n	8022c6c <HAL_RCCEx_PeriphCLKConfig+0x6a8>
 8022c5c:	2102      	movs	r1, #2
 8022c5e:	f105 0024 	add.w	r0, r5, #36	; 0x24
 8022c62:	f7ff fc37 	bl	80224d4 <RCCEx_PLL3_Config>
 8022c66:	2800      	cmp	r0, #0
 8022c68:	bf18      	it	ne
 8022c6a:	2601      	movne	r6, #1
 8022c6c:	4a7c      	ldr	r2, [pc, #496]	; (8022e60 <HAL_RCCEx_PeriphCLKConfig+0x89c>)
 8022c6e:	f8d5 1094 	ldr.w	r1, [r5, #148]	; 0x94
 8022c72:	6d93      	ldr	r3, [r2, #88]	; 0x58
 8022c74:	f423 7340 	bic.w	r3, r3, #768	; 0x300
 8022c78:	430b      	orrs	r3, r1
 8022c7a:	6593      	str	r3, [r2, #88]	; 0x58
 8022c7c:	682b      	ldr	r3, [r5, #0]
 8022c7e:	0318      	lsls	r0, r3, #12
 8022c80:	d51a      	bpl.n	8022cb8 <HAL_RCCEx_PeriphCLKConfig+0x6f4>
 8022c82:	f8d5 10a0 	ldr.w	r1, [r5, #160]	; 0xa0
 8022c86:	f5b1 3f80 	cmp.w	r1, #65536	; 0x10000
 8022c8a:	f000 810c 	beq.w	8022ea6 <HAL_RCCEx_PeriphCLKConfig+0x8e2>
 8022c8e:	f5b1 3f00 	cmp.w	r1, #131072	; 0x20000
 8022c92:	d006      	beq.n	8022ca2 <HAL_RCCEx_PeriphCLKConfig+0x6de>
 8022c94:	2900      	cmp	r1, #0
 8022c96:	f040 810c 	bne.w	8022eb2 <HAL_RCCEx_PeriphCLKConfig+0x8ee>
 8022c9a:	1d28      	adds	r0, r5, #4
 8022c9c:	f7ff fba2 	bl	80223e4 <RCCEx_PLL2_Config>
 8022ca0:	4604      	mov	r4, r0
 8022ca2:	2c00      	cmp	r4, #0
 8022ca4:	f040 8108 	bne.w	8022eb8 <HAL_RCCEx_PeriphCLKConfig+0x8f4>
 8022ca8:	4a6d      	ldr	r2, [pc, #436]	; (8022e60 <HAL_RCCEx_PeriphCLKConfig+0x89c>)
 8022caa:	f8d5 10a0 	ldr.w	r1, [r5, #160]	; 0xa0
 8022cae:	6d93      	ldr	r3, [r2, #88]	; 0x58
 8022cb0:	f423 3340 	bic.w	r3, r3, #196608	; 0x30000
 8022cb4:	430b      	orrs	r3, r1
 8022cb6:	6593      	str	r3, [r2, #88]	; 0x58
 8022cb8:	682b      	ldr	r3, [r5, #0]
 8022cba:	0359      	lsls	r1, r3, #13
 8022cbc:	d51c      	bpl.n	8022cf8 <HAL_RCCEx_PeriphCLKConfig+0x734>
 8022cbe:	f8d5 3084 	ldr.w	r3, [r5, #132]	; 0x84
 8022cc2:	f5b3 1f00 	cmp.w	r3, #2097152	; 0x200000
 8022cc6:	f000 80f9 	beq.w	8022ebc <HAL_RCCEx_PeriphCLKConfig+0x8f8>
 8022cca:	f5b3 1f40 	cmp.w	r3, #3145728	; 0x300000
 8022cce:	d008      	beq.n	8022ce2 <HAL_RCCEx_PeriphCLKConfig+0x71e>
 8022cd0:	f5b3 1f80 	cmp.w	r3, #1048576	; 0x100000
 8022cd4:	f040 80f9 	bne.w	8022eca <HAL_RCCEx_PeriphCLKConfig+0x906>
 8022cd8:	4a61      	ldr	r2, [pc, #388]	; (8022e60 <HAL_RCCEx_PeriphCLKConfig+0x89c>)
 8022cda:	6ad3      	ldr	r3, [r2, #44]	; 0x2c
 8022cdc:	f443 3300 	orr.w	r3, r3, #131072	; 0x20000
 8022ce0:	62d3      	str	r3, [r2, #44]	; 0x2c
 8022ce2:	2c00      	cmp	r4, #0
 8022ce4:	f040 80f4 	bne.w	8022ed0 <HAL_RCCEx_PeriphCLKConfig+0x90c>
 8022ce8:	4a5d      	ldr	r2, [pc, #372]	; (8022e60 <HAL_RCCEx_PeriphCLKConfig+0x89c>)
 8022cea:	f8d5 1084 	ldr.w	r1, [r5, #132]	; 0x84
 8022cee:	6d53      	ldr	r3, [r2, #84]	; 0x54
 8022cf0:	f423 1340 	bic.w	r3, r3, #3145728	; 0x300000
 8022cf4:	430b      	orrs	r3, r1
 8022cf6:	6553      	str	r3, [r2, #84]	; 0x54
 8022cf8:	682b      	ldr	r3, [r5, #0]
 8022cfa:	03da      	lsls	r2, r3, #15
 8022cfc:	d509      	bpl.n	8022d12 <HAL_RCCEx_PeriphCLKConfig+0x74e>
 8022cfe:	6ceb      	ldr	r3, [r5, #76]	; 0x4c
 8022d00:	2b00      	cmp	r3, #0
 8022d02:	f000 80e7 	beq.w	8022ed4 <HAL_RCCEx_PeriphCLKConfig+0x910>
 8022d06:	f5b3 3f80 	cmp.w	r3, #65536	; 0x10000
 8022d0a:	f000 80f1 	beq.w	8022ef0 <HAL_RCCEx_PeriphCLKConfig+0x92c>
 8022d0e:	2601      	movs	r6, #1
 8022d10:	4634      	mov	r4, r6
 8022d12:	682b      	ldr	r3, [r5, #0]
 8022d14:	009b      	lsls	r3, r3, #2
 8022d16:	d507      	bpl.n	8022d28 <HAL_RCCEx_PeriphCLKConfig+0x764>
 8022d18:	2102      	movs	r1, #2
 8022d1a:	f105 0024 	add.w	r0, r5, #36	; 0x24
 8022d1e:	f7ff fbd9 	bl	80224d4 <RCCEx_PLL3_Config>
 8022d22:	2800      	cmp	r0, #0
 8022d24:	bf18      	it	ne
 8022d26:	2601      	movne	r6, #1
 8022d28:	682b      	ldr	r3, [r5, #0]
 8022d2a:	039f      	lsls	r7, r3, #14
 8022d2c:	d50a      	bpl.n	8022d44 <HAL_RCCEx_PeriphCLKConfig+0x780>
 8022d2e:	6fe9      	ldr	r1, [r5, #124]	; 0x7c
 8022d30:	f5b1 7f80 	cmp.w	r1, #256	; 0x100
 8022d34:	f000 80f2 	beq.w	8022f1c <HAL_RCCEx_PeriphCLKConfig+0x958>
 8022d38:	f200 80e2 	bhi.w	8022f00 <HAL_RCCEx_PeriphCLKConfig+0x93c>
 8022d3c:	2900      	cmp	r1, #0
 8022d3e:	f000 80e5 	beq.w	8022f0c <HAL_RCCEx_PeriphCLKConfig+0x948>
 8022d42:	2601      	movs	r6, #1
 8022d44:	02dc      	lsls	r4, r3, #11
 8022d46:	d506      	bpl.n	8022d56 <HAL_RCCEx_PeriphCLKConfig+0x792>
 8022d48:	4945      	ldr	r1, [pc, #276]	; (8022e60 <HAL_RCCEx_PeriphCLKConfig+0x89c>)
 8022d4a:	6f28      	ldr	r0, [r5, #112]	; 0x70
 8022d4c:	6d0a      	ldr	r2, [r1, #80]	; 0x50
 8022d4e:	f022 4200 	bic.w	r2, r2, #2147483648	; 0x80000000
 8022d52:	4302      	orrs	r2, r0
 8022d54:	650a      	str	r2, [r1, #80]	; 0x50
 8022d56:	00d8      	lsls	r0, r3, #3
 8022d58:	d507      	bpl.n	8022d6a <HAL_RCCEx_PeriphCLKConfig+0x7a6>
 8022d5a:	4941      	ldr	r1, [pc, #260]	; (8022e60 <HAL_RCCEx_PeriphCLKConfig+0x89c>)
 8022d5c:	f8d5 00b4 	ldr.w	r0, [r5, #180]	; 0xb4
 8022d60:	690a      	ldr	r2, [r1, #16]
 8022d62:	f422 4280 	bic.w	r2, r2, #16384	; 0x4000
 8022d66:	4302      	orrs	r2, r0
 8022d68:	610a      	str	r2, [r1, #16]
 8022d6a:	0299      	lsls	r1, r3, #10
 8022d6c:	d506      	bpl.n	8022d7c <HAL_RCCEx_PeriphCLKConfig+0x7b8>
 8022d6e:	493c      	ldr	r1, [pc, #240]	; (8022e60 <HAL_RCCEx_PeriphCLKConfig+0x89c>)
 8022d70:	6ea8      	ldr	r0, [r5, #104]	; 0x68
 8022d72:	6d0a      	ldr	r2, [r1, #80]	; 0x50
 8022d74:	f022 7280 	bic.w	r2, r2, #16777216	; 0x1000000
 8022d78:	4302      	orrs	r2, r0
 8022d7a:	650a      	str	r2, [r1, #80]	; 0x50
 8022d7c:	005a      	lsls	r2, r3, #1
 8022d7e:	d509      	bpl.n	8022d94 <HAL_RCCEx_PeriphCLKConfig+0x7d0>
 8022d80:	4a37      	ldr	r2, [pc, #220]	; (8022e60 <HAL_RCCEx_PeriphCLKConfig+0x89c>)
 8022d82:	6911      	ldr	r1, [r2, #16]
 8022d84:	f421 4100 	bic.w	r1, r1, #32768	; 0x8000
 8022d88:	6111      	str	r1, [r2, #16]
 8022d8a:	6911      	ldr	r1, [r2, #16]
 8022d8c:	f8d5 00b8 	ldr.w	r0, [r5, #184]	; 0xb8
 8022d90:	4301      	orrs	r1, r0
 8022d92:	6111      	str	r1, [r2, #16]
 8022d94:	2b00      	cmp	r3, #0
 8022d96:	da06      	bge.n	8022da6 <HAL_RCCEx_PeriphCLKConfig+0x7e2>
 8022d98:	4931      	ldr	r1, [pc, #196]	; (8022e60 <HAL_RCCEx_PeriphCLKConfig+0x89c>)
 8022d9a:	6d28      	ldr	r0, [r5, #80]	; 0x50
 8022d9c:	6cca      	ldr	r2, [r1, #76]	; 0x4c
 8022d9e:	f022 5240 	bic.w	r2, r2, #805306368	; 0x30000000
 8022da2:	4302      	orrs	r2, r0
 8022da4:	64ca      	str	r2, [r1, #76]	; 0x4c
 8022da6:	021b      	lsls	r3, r3, #8
 8022da8:	d507      	bpl.n	8022dba <HAL_RCCEx_PeriphCLKConfig+0x7f6>
 8022daa:	4a2d      	ldr	r2, [pc, #180]	; (8022e60 <HAL_RCCEx_PeriphCLKConfig+0x89c>)
 8022dac:	f8d5 1088 	ldr.w	r1, [r5, #136]	; 0x88
 8022db0:	6d53      	ldr	r3, [r2, #84]	; 0x54
 8022db2:	f423 0340 	bic.w	r3, r3, #12582912	; 0xc00000
 8022db6:	430b      	orrs	r3, r1
 8022db8:	6553      	str	r3, [r2, #84]	; 0x54
 8022dba:	1e30      	subs	r0, r6, #0
 8022dbc:	bf18      	it	ne
 8022dbe:	2001      	movne	r0, #1
 8022dc0:	e8bd 83f8 	ldmia.w	sp!, {r3, r4, r5, r6, r7, r8, r9, pc}
 8022dc4:	2101      	movs	r1, #1
 8022dc6:	f105 0024 	add.w	r0, r5, #36	; 0x24
 8022dca:	f7ff fb83 	bl	80224d4 <RCCEx_PLL3_Config>
 8022dce:	e6dd      	b.n	8022b8c <HAL_RCCEx_PeriphCLKConfig+0x5c8>
 8022dd0:	2601      	movs	r6, #1
 8022dd2:	4634      	mov	r4, r6
 8022dd4:	e6e6      	b.n	8022ba4 <HAL_RCCEx_PeriphCLKConfig+0x5e0>
 8022dd6:	4626      	mov	r6, r4
 8022dd8:	e6e4      	b.n	8022ba4 <HAL_RCCEx_PeriphCLKConfig+0x5e0>
 8022dda:	f023 5280 	bic.w	r2, r3, #268435456	; 0x10000000
 8022dde:	f1b2 4f80 	cmp.w	r2, #1073741824	; 0x40000000
 8022de2:	d003      	beq.n	8022dec <HAL_RCCEx_PeriphCLKConfig+0x828>
 8022de4:	f1b3 5f40 	cmp.w	r3, #805306368	; 0x30000000
 8022de8:	f47f aeee 	bne.w	8022bc8 <HAL_RCCEx_PeriphCLKConfig+0x604>
 8022dec:	b9a4      	cbnz	r4, 8022e18 <HAL_RCCEx_PeriphCLKConfig+0x854>
 8022dee:	4a1c      	ldr	r2, [pc, #112]	; (8022e60 <HAL_RCCEx_PeriphCLKConfig+0x89c>)
 8022df0:	f8d5 108c 	ldr.w	r1, [r5, #140]	; 0x8c
 8022df4:	6d53      	ldr	r3, [r2, #84]	; 0x54
 8022df6:	f023 43e0 	bic.w	r3, r3, #1879048192	; 0x70000000
 8022dfa:	430b      	orrs	r3, r1
 8022dfc:	6553      	str	r3, [r2, #84]	; 0x54
 8022dfe:	e6e5      	b.n	8022bcc <HAL_RCCEx_PeriphCLKConfig+0x608>
 8022e00:	2100      	movs	r1, #0
 8022e02:	1d28      	adds	r0, r5, #4
 8022e04:	f7ff faee 	bl	80223e4 <RCCEx_PLL2_Config>
 8022e08:	4604      	mov	r4, r0
 8022e0a:	e7ef      	b.n	8022dec <HAL_RCCEx_PeriphCLKConfig+0x828>
 8022e0c:	2102      	movs	r1, #2
 8022e0e:	f105 0024 	add.w	r0, r5, #36	; 0x24
 8022e12:	f7ff fb5f 	bl	80224d4 <RCCEx_PLL3_Config>
 8022e16:	e7f7      	b.n	8022e08 <HAL_RCCEx_PeriphCLKConfig+0x844>
 8022e18:	4626      	mov	r6, r4
 8022e1a:	e6d7      	b.n	8022bcc <HAL_RCCEx_PeriphCLKConfig+0x608>
 8022e1c:	f423 6280 	bic.w	r2, r3, #1024	; 0x400
 8022e20:	f5b2 5f80 	cmp.w	r2, #4096	; 0x1000
 8022e24:	d003      	beq.n	8022e2e <HAL_RCCEx_PeriphCLKConfig+0x86a>
 8022e26:	f5b3 6f40 	cmp.w	r3, #3072	; 0xc00
 8022e2a:	f47f aee1 	bne.w	8022bf0 <HAL_RCCEx_PeriphCLKConfig+0x62c>
 8022e2e:	b9a4      	cbnz	r4, 8022e5a <HAL_RCCEx_PeriphCLKConfig+0x896>
 8022e30:	4a0b      	ldr	r2, [pc, #44]	; (8022e60 <HAL_RCCEx_PeriphCLKConfig+0x89c>)
 8022e32:	f8d5 1098 	ldr.w	r1, [r5, #152]	; 0x98
 8022e36:	6d93      	ldr	r3, [r2, #88]	; 0x58
 8022e38:	f423 53e0 	bic.w	r3, r3, #7168	; 0x1c00
 8022e3c:	430b      	orrs	r3, r1
 8022e3e:	6593      	str	r3, [r2, #88]	; 0x58
 8022e40:	e6d8      	b.n	8022bf4 <HAL_RCCEx_PeriphCLKConfig+0x630>
 8022e42:	2100      	movs	r1, #0
 8022e44:	1d28      	adds	r0, r5, #4
 8022e46:	f7ff facd 	bl	80223e4 <RCCEx_PLL2_Config>
 8022e4a:	4604      	mov	r4, r0
 8022e4c:	e7ef      	b.n	8022e2e <HAL_RCCEx_PeriphCLKConfig+0x86a>
 8022e4e:	2102      	movs	r1, #2
 8022e50:	f105 0024 	add.w	r0, r5, #36	; 0x24
 8022e54:	f7ff fb3e 	bl	80224d4 <RCCEx_PLL3_Config>
 8022e58:	e7f7      	b.n	8022e4a <HAL_RCCEx_PeriphCLKConfig+0x886>
 8022e5a:	4626      	mov	r6, r4
 8022e5c:	e6ca      	b.n	8022bf4 <HAL_RCCEx_PeriphCLKConfig+0x630>
 8022e5e:	bf00      	nop
 8022e60:	58024400 	.word	0x58024400
 8022e64:	f423 5200 	bic.w	r2, r3, #8192	; 0x2000
 8022e68:	f5b2 4f00 	cmp.w	r2, #32768	; 0x8000
 8022e6c:	d003      	beq.n	8022e76 <HAL_RCCEx_PeriphCLKConfig+0x8b2>
 8022e6e:	f5b3 4fc0 	cmp.w	r3, #24576	; 0x6000
 8022e72:	f47f aed1 	bne.w	8022c18 <HAL_RCCEx_PeriphCLKConfig+0x654>
 8022e76:	b9a4      	cbnz	r4, 8022ea2 <HAL_RCCEx_PeriphCLKConfig+0x8de>
 8022e78:	4a2c      	ldr	r2, [pc, #176]	; (8022f2c <HAL_RCCEx_PeriphCLKConfig+0x968>)
 8022e7a:	f8d5 109c 	ldr.w	r1, [r5, #156]	; 0x9c
 8022e7e:	6d93      	ldr	r3, [r2, #88]	; 0x58
 8022e80:	f423 4360 	bic.w	r3, r3, #57344	; 0xe000
 8022e84:	430b      	orrs	r3, r1
 8022e86:	6593      	str	r3, [r2, #88]	; 0x58
 8022e88:	e6c8      	b.n	8022c1c <HAL_RCCEx_PeriphCLKConfig+0x658>
 8022e8a:	2100      	movs	r1, #0
 8022e8c:	1d28      	adds	r0, r5, #4
 8022e8e:	f7ff faa9 	bl	80223e4 <RCCEx_PLL2_Config>
 8022e92:	4604      	mov	r4, r0
 8022e94:	e7ef      	b.n	8022e76 <HAL_RCCEx_PeriphCLKConfig+0x8b2>
 8022e96:	2102      	movs	r1, #2
 8022e98:	f105 0024 	add.w	r0, r5, #36	; 0x24
 8022e9c:	f7ff fb1a 	bl	80224d4 <RCCEx_PLL3_Config>
 8022ea0:	e7f7      	b.n	8022e92 <HAL_RCCEx_PeriphCLKConfig+0x8ce>
 8022ea2:	4626      	mov	r6, r4
 8022ea4:	e6ba      	b.n	8022c1c <HAL_RCCEx_PeriphCLKConfig+0x658>
 8022ea6:	2102      	movs	r1, #2
 8022ea8:	f105 0024 	add.w	r0, r5, #36	; 0x24
 8022eac:	f7ff fb12 	bl	80224d4 <RCCEx_PLL3_Config>
 8022eb0:	e6f6      	b.n	8022ca0 <HAL_RCCEx_PeriphCLKConfig+0x6dc>
 8022eb2:	2601      	movs	r6, #1
 8022eb4:	4634      	mov	r4, r6
 8022eb6:	e6ff      	b.n	8022cb8 <HAL_RCCEx_PeriphCLKConfig+0x6f4>
 8022eb8:	4626      	mov	r6, r4
 8022eba:	e6fd      	b.n	8022cb8 <HAL_RCCEx_PeriphCLKConfig+0x6f4>
 8022ebc:	2101      	movs	r1, #1
 8022ebe:	f105 0024 	add.w	r0, r5, #36	; 0x24
 8022ec2:	f7ff fb07 	bl	80224d4 <RCCEx_PLL3_Config>
 8022ec6:	4604      	mov	r4, r0
 8022ec8:	e70b      	b.n	8022ce2 <HAL_RCCEx_PeriphCLKConfig+0x71e>
 8022eca:	2601      	movs	r6, #1
 8022ecc:	4634      	mov	r4, r6
 8022ece:	e713      	b.n	8022cf8 <HAL_RCCEx_PeriphCLKConfig+0x734>
 8022ed0:	4626      	mov	r6, r4
 8022ed2:	e711      	b.n	8022cf8 <HAL_RCCEx_PeriphCLKConfig+0x734>
 8022ed4:	4a15      	ldr	r2, [pc, #84]	; (8022f2c <HAL_RCCEx_PeriphCLKConfig+0x968>)
 8022ed6:	6ad3      	ldr	r3, [r2, #44]	; 0x2c
 8022ed8:	f443 3300 	orr.w	r3, r3, #131072	; 0x20000
 8022edc:	62d3      	str	r3, [r2, #44]	; 0x2c
 8022ede:	b96c      	cbnz	r4, 8022efc <HAL_RCCEx_PeriphCLKConfig+0x938>
 8022ee0:	4a12      	ldr	r2, [pc, #72]	; (8022f2c <HAL_RCCEx_PeriphCLKConfig+0x968>)
 8022ee2:	6ce9      	ldr	r1, [r5, #76]	; 0x4c
 8022ee4:	6cd3      	ldr	r3, [r2, #76]	; 0x4c
 8022ee6:	f423 3380 	bic.w	r3, r3, #65536	; 0x10000
 8022eea:	430b      	orrs	r3, r1
 8022eec:	64d3      	str	r3, [r2, #76]	; 0x4c
 8022eee:	e710      	b.n	8022d12 <HAL_RCCEx_PeriphCLKConfig+0x74e>
 8022ef0:	2102      	movs	r1, #2
 8022ef2:	1d28      	adds	r0, r5, #4
 8022ef4:	f7ff fa76 	bl	80223e4 <RCCEx_PLL2_Config>
 8022ef8:	4604      	mov	r4, r0
 8022efa:	e7f0      	b.n	8022ede <HAL_RCCEx_PeriphCLKConfig+0x91a>
 8022efc:	4626      	mov	r6, r4
 8022efe:	e708      	b.n	8022d12 <HAL_RCCEx_PeriphCLKConfig+0x74e>
 8022f00:	f421 7280 	bic.w	r2, r1, #256	; 0x100
 8022f04:	f5b2 7f00 	cmp.w	r2, #512	; 0x200
 8022f08:	f47f af1b 	bne.w	8022d42 <HAL_RCCEx_PeriphCLKConfig+0x77e>
 8022f0c:	b964      	cbnz	r4, 8022f28 <HAL_RCCEx_PeriphCLKConfig+0x964>
 8022f0e:	4807      	ldr	r0, [pc, #28]	; (8022f2c <HAL_RCCEx_PeriphCLKConfig+0x968>)
 8022f10:	6d42      	ldr	r2, [r0, #84]	; 0x54
 8022f12:	f422 7240 	bic.w	r2, r2, #768	; 0x300
 8022f16:	430a      	orrs	r2, r1
 8022f18:	6542      	str	r2, [r0, #84]	; 0x54
 8022f1a:	e713      	b.n	8022d44 <HAL_RCCEx_PeriphCLKConfig+0x780>
 8022f1c:	4803      	ldr	r0, [pc, #12]	; (8022f2c <HAL_RCCEx_PeriphCLKConfig+0x968>)
 8022f1e:	6ac2      	ldr	r2, [r0, #44]	; 0x2c
 8022f20:	f442 3200 	orr.w	r2, r2, #131072	; 0x20000
 8022f24:	62c2      	str	r2, [r0, #44]	; 0x2c
 8022f26:	e7f1      	b.n	8022f0c <HAL_RCCEx_PeriphCLKConfig+0x948>
 8022f28:	4626      	mov	r6, r4
 8022f2a:	e70b      	b.n	8022d44 <HAL_RCCEx_PeriphCLKConfig+0x780>
 8022f2c:	58024400 	.word	0x58024400

08022f30 <HAL_RCCEx_GetD3PCLK1Freq>:
 8022f30:	b508      	push	{r3, lr}
 8022f32:	f7ff fa11 	bl	8022358 <HAL_RCC_GetHCLKFreq>
 8022f36:	4b05      	ldr	r3, [pc, #20]	; (8022f4c <HAL_RCCEx_GetD3PCLK1Freq+0x1c>)
 8022f38:	4a05      	ldr	r2, [pc, #20]	; (8022f50 <HAL_RCCEx_GetD3PCLK1Freq+0x20>)
 8022f3a:	6a1b      	ldr	r3, [r3, #32]
 8022f3c:	f3c3 1302 	ubfx	r3, r3, #4, #3
 8022f40:	5cd3      	ldrb	r3, [r2, r3]
 8022f42:	f003 031f 	and.w	r3, r3, #31
 8022f46:	40d8      	lsrs	r0, r3
 8022f48:	bd08      	pop	{r3, pc}
 8022f4a:	bf00      	nop
 8022f4c:	58024400 	.word	0x58024400
 8022f50:	08026ba8 	.word	0x08026ba8

08022f54 <HAL_RCCEx_GetPLL2ClockFreq>:
 8022f54:	4a4e      	ldr	r2, [pc, #312]	; (8023090 <HAL_RCCEx_GetPLL2ClockFreq+0x13c>)
 8022f56:	b570      	push	{r4, r5, r6, lr}
 8022f58:	6a94      	ldr	r4, [r2, #40]	; 0x28
 8022f5a:	6a96      	ldr	r6, [r2, #40]	; 0x28
 8022f5c:	6ad3      	ldr	r3, [r2, #44]	; 0x2c
 8022f5e:	f416 3f7c 	tst.w	r6, #258048	; 0x3f000
 8022f62:	f3c6 3105 	ubfx	r1, r6, #12, #6
 8022f66:	6bd5      	ldr	r5, [r2, #60]	; 0x3c
 8022f68:	f000 808d 	beq.w	8023086 <HAL_RCCEx_GetPLL2ClockFreq+0x132>
 8022f6c:	ee07 1a90 	vmov	s15, r1
 8022f70:	f3c3 1300 	ubfx	r3, r3, #4, #1
 8022f74:	f3c5 01cc 	ubfx	r1, r5, #3, #13
 8022f78:	f004 0403 	and.w	r4, r4, #3
 8022f7c:	eef8 6ae7 	vcvt.f32.s32	s13, s15
 8022f80:	434b      	muls	r3, r1
 8022f82:	2c01      	cmp	r4, #1
 8022f84:	eeb7 6a00 	vmov.f32	s12, #112	; 0x3f800000  1.0
 8022f88:	ee07 3a90 	vmov	s15, r3
 8022f8c:	eefa 7ae9 	vcvt.f32.s32	s15, s15, #13
 8022f90:	d06b      	beq.n	802306a <HAL_RCCEx_GetPLL2ClockFreq+0x116>
 8022f92:	2c02      	cmp	r4, #2
 8022f94:	d05b      	beq.n	802304e <HAL_RCCEx_GetPLL2ClockFreq+0xfa>
 8022f96:	2c00      	cmp	r4, #0
 8022f98:	d167      	bne.n	802306a <HAL_RCCEx_GetPLL2ClockFreq+0x116>
 8022f9a:	6813      	ldr	r3, [r2, #0]
 8022f9c:	069b      	lsls	r3, r3, #26
 8022f9e:	d546      	bpl.n	802302e <HAL_RCCEx_GetPLL2ClockFreq+0xda>
 8022fa0:	6811      	ldr	r1, [r2, #0]
 8022fa2:	6b93      	ldr	r3, [r2, #56]	; 0x38
 8022fa4:	f3c1 01c1 	ubfx	r1, r1, #3, #2
 8022fa8:	4a3a      	ldr	r2, [pc, #232]	; (8023094 <HAL_RCCEx_GetPLL2ClockFreq+0x140>)
 8022faa:	f3c3 0308 	ubfx	r3, r3, #0, #9
 8022fae:	40ca      	lsrs	r2, r1
 8022fb0:	ee07 2a10 	vmov	s14, r2
 8022fb4:	eef8 5ac7 	vcvt.f32.s32	s11, s14
 8022fb8:	ee85 7aa6 	vdiv.f32	s14, s11, s13
 8022fbc:	ee06 3a90 	vmov	s13, r3
 8022fc0:	eef8 6ae6 	vcvt.f32.s32	s13, s13
 8022fc4:	ee76 7aa7 	vadd.f32	s15, s13, s15
 8022fc8:	ee77 7a86 	vadd.f32	s15, s15, s12
 8022fcc:	4a30      	ldr	r2, [pc, #192]	; (8023090 <HAL_RCCEx_GetPLL2ClockFreq+0x13c>)
 8022fce:	ee67 7a87 	vmul.f32	s15, s15, s14
 8022fd2:	6b93      	ldr	r3, [r2, #56]	; 0x38
 8022fd4:	f3c3 2346 	ubfx	r3, r3, #9, #7
 8022fd8:	ee07 3a10 	vmov	s14, r3
 8022fdc:	eeb8 7ac7 	vcvt.f32.s32	s14, s14
 8022fe0:	ee37 7a06 	vadd.f32	s14, s14, s12
 8022fe4:	eec7 6a87 	vdiv.f32	s13, s15, s14
 8022fe8:	eefc 6ae6 	vcvt.u32.f32	s13, s13
 8022fec:	edc0 6a00 	vstr	s13, [r0]
 8022ff0:	6b93      	ldr	r3, [r2, #56]	; 0x38
 8022ff2:	f3c3 4306 	ubfx	r3, r3, #16, #7
 8022ff6:	ee07 3a10 	vmov	s14, r3
 8022ffa:	eeb8 7ac7 	vcvt.f32.s32	s14, s14
 8022ffe:	ee37 7a06 	vadd.f32	s14, s14, s12
 8023002:	eec7 6a87 	vdiv.f32	s13, s15, s14
 8023006:	eefc 6ae6 	vcvt.u32.f32	s13, s13
 802300a:	edc0 6a01 	vstr	s13, [r0, #4]
 802300e:	6b93      	ldr	r3, [r2, #56]	; 0x38
 8023010:	f3c3 6306 	ubfx	r3, r3, #24, #7
 8023014:	ee07 3a10 	vmov	s14, r3
 8023018:	eeb8 7ac7 	vcvt.f32.s32	s14, s14
 802301c:	ee37 6a06 	vadd.f32	s12, s14, s12
 8023020:	ee87 7a86 	vdiv.f32	s14, s15, s12
 8023024:	eebc 7ac7 	vcvt.u32.f32	s14, s14
 8023028:	ed80 7a02 	vstr	s14, [r0, #8]
 802302c:	bd70      	pop	{r4, r5, r6, pc}
 802302e:	6b93      	ldr	r3, [r2, #56]	; 0x38
 8023030:	eddf 5a19 	vldr	s11, [pc, #100]	; 8023098 <HAL_RCCEx_GetPLL2ClockFreq+0x144>
 8023034:	f3c3 0308 	ubfx	r3, r3, #0, #9
 8023038:	ee07 3a10 	vmov	s14, r3
 802303c:	eeb8 7ac7 	vcvt.f32.s32	s14, s14
 8023040:	ee77 7a27 	vadd.f32	s15, s14, s15
 8023044:	ee77 7a86 	vadd.f32	s15, s15, s12
 8023048:	ee85 7aa6 	vdiv.f32	s14, s11, s13
 802304c:	e7be      	b.n	8022fcc <HAL_RCCEx_GetPLL2ClockFreq+0x78>
 802304e:	6b93      	ldr	r3, [r2, #56]	; 0x38
 8023050:	eddf 5a12 	vldr	s11, [pc, #72]	; 802309c <HAL_RCCEx_GetPLL2ClockFreq+0x148>
 8023054:	f3c3 0308 	ubfx	r3, r3, #0, #9
 8023058:	ee07 3a10 	vmov	s14, r3
 802305c:	eeb8 7ac7 	vcvt.f32.s32	s14, s14
 8023060:	ee77 7a27 	vadd.f32	s15, s14, s15
 8023064:	ee77 7a86 	vadd.f32	s15, s15, s12
 8023068:	e7ee      	b.n	8023048 <HAL_RCCEx_GetPLL2ClockFreq+0xf4>
 802306a:	6b93      	ldr	r3, [r2, #56]	; 0x38
 802306c:	eddf 5a0c 	vldr	s11, [pc, #48]	; 80230a0 <HAL_RCCEx_GetPLL2ClockFreq+0x14c>
 8023070:	f3c3 0308 	ubfx	r3, r3, #0, #9
 8023074:	ee07 3a10 	vmov	s14, r3
 8023078:	eeb8 7ac7 	vcvt.f32.s32	s14, s14
 802307c:	ee77 7a27 	vadd.f32	s15, s14, s15
 8023080:	ee77 7a86 	vadd.f32	s15, s15, s12
 8023084:	e7e0      	b.n	8023048 <HAL_RCCEx_GetPLL2ClockFreq+0xf4>
 8023086:	e9c0 1100 	strd	r1, r1, [r0]
 802308a:	6081      	str	r1, [r0, #8]
 802308c:	e7ce      	b.n	802302c <HAL_RCCEx_GetPLL2ClockFreq+0xd8>
 802308e:	bf00      	nop
 8023090:	58024400 	.word	0x58024400
 8023094:	03d09000 	.word	0x03d09000
 8023098:	4c742400 	.word	0x4c742400
 802309c:	4bbebc20 	.word	0x4bbebc20
 80230a0:	4a742400 	.word	0x4a742400

080230a4 <HAL_RCCEx_GetPLL3ClockFreq>:
 80230a4:	4a4e      	ldr	r2, [pc, #312]	; (80231e0 <HAL_RCCEx_GetPLL3ClockFreq+0x13c>)
 80230a6:	b570      	push	{r4, r5, r6, lr}
 80230a8:	6a94      	ldr	r4, [r2, #40]	; 0x28
 80230aa:	6a96      	ldr	r6, [r2, #40]	; 0x28
 80230ac:	6ad3      	ldr	r3, [r2, #44]	; 0x2c
 80230ae:	f016 7f7c 	tst.w	r6, #66060288	; 0x3f00000
 80230b2:	f3c6 5105 	ubfx	r1, r6, #20, #6
 80230b6:	6c55      	ldr	r5, [r2, #68]	; 0x44
 80230b8:	f000 808d 	beq.w	80231d6 <HAL_RCCEx_GetPLL3ClockFreq+0x132>
 80230bc:	ee07 1a90 	vmov	s15, r1
 80230c0:	f3c3 2300 	ubfx	r3, r3, #8, #1
 80230c4:	f3c5 01cc 	ubfx	r1, r5, #3, #13
 80230c8:	f004 0403 	and.w	r4, r4, #3
 80230cc:	eef8 6ae7 	vcvt.f32.s32	s13, s15
 80230d0:	434b      	muls	r3, r1
 80230d2:	2c01      	cmp	r4, #1
 80230d4:	eeb7 6a00 	vmov.f32	s12, #112	; 0x3f800000  1.0
 80230d8:	ee07 3a90 	vmov	s15, r3
 80230dc:	eefa 7ae9 	vcvt.f32.s32	s15, s15, #13
 80230e0:	d06b      	beq.n	80231ba <HAL_RCCEx_GetPLL3ClockFreq+0x116>
 80230e2:	2c02      	cmp	r4, #2
 80230e4:	d05b      	beq.n	802319e <HAL_RCCEx_GetPLL3ClockFreq+0xfa>
 80230e6:	2c00      	cmp	r4, #0
 80230e8:	d167      	bne.n	80231ba <HAL_RCCEx_GetPLL3ClockFreq+0x116>
 80230ea:	6813      	ldr	r3, [r2, #0]
 80230ec:	069b      	lsls	r3, r3, #26
 80230ee:	d546      	bpl.n	802317e <HAL_RCCEx_GetPLL3ClockFreq+0xda>
 80230f0:	6811      	ldr	r1, [r2, #0]
 80230f2:	6c13      	ldr	r3, [r2, #64]	; 0x40
 80230f4:	f3c1 01c1 	ubfx	r1, r1, #3, #2
 80230f8:	4a3a      	ldr	r2, [pc, #232]	; (80231e4 <HAL_RCCEx_GetPLL3ClockFreq+0x140>)
 80230fa:	f3c3 0308 	ubfx	r3, r3, #0, #9
 80230fe:	40ca      	lsrs	r2, r1
 8023100:	ee07 2a10 	vmov	s14, r2
 8023104:	eef8 5ac7 	vcvt.f32.s32	s11, s14
 8023108:	ee85 7aa6 	vdiv.f32	s14, s11, s13
 802310c:	ee06 3a90 	vmov	s13, r3
 8023110:	eef8 6ae6 	vcvt.f32.s32	s13, s13
 8023114:	ee76 7aa7 	vadd.f32	s15, s13, s15
 8023118:	ee77 7a86 	vadd.f32	s15, s15, s12
 802311c:	4a30      	ldr	r2, [pc, #192]	; (80231e0 <HAL_RCCEx_GetPLL3ClockFreq+0x13c>)
 802311e:	ee67 7a87 	vmul.f32	s15, s15, s14
 8023122:	6c13      	ldr	r3, [r2, #64]	; 0x40
 8023124:	f3c3 2346 	ubfx	r3, r3, #9, #7
 8023128:	ee07 3a10 	vmov	s14, r3
 802312c:	eeb8 7ac7 	vcvt.f32.s32	s14, s14
 8023130:	ee37 7a06 	vadd.f32	s14, s14, s12
 8023134:	eec7 6a87 	vdiv.f32	s13, s15, s14
 8023138:	eefc 6ae6 	vcvt.u32.f32	s13, s13
 802313c:	edc0 6a00 	vstr	s13, [r0]
 8023140:	6c13      	ldr	r3, [r2, #64]	; 0x40
 8023142:	f3c3 4306 	ubfx	r3, r3, #16, #7
 8023146:	ee07 3a10 	vmov	s14, r3
 802314a:	eeb8 7ac7 	vcvt.f32.s32	s14, s14
 802314e:	ee37 7a06 	vadd.f32	s14, s14, s12
 8023152:	eec7 6a87 	vdiv.f32	s13, s15, s14
 8023156:	eefc 6ae6 	vcvt.u32.f32	s13, s13
 802315a:	edc0 6a01 	vstr	s13, [r0, #4]
 802315e:	6c13      	ldr	r3, [r2, #64]	; 0x40
 8023160:	f3c3 6306 	ubfx	r3, r3, #24, #7
 8023164:	ee07 3a10 	vmov	s14, r3
 8023168:	eeb8 7ac7 	vcvt.f32.s32	s14, s14
 802316c:	ee37 6a06 	vadd.f32	s12, s14, s12
 8023170:	ee87 7a86 	vdiv.f32	s14, s15, s12
 8023174:	eebc 7ac7 	vcvt.u32.f32	s14, s14
 8023178:	ed80 7a02 	vstr	s14, [r0, #8]
 802317c:	bd70      	pop	{r4, r5, r6, pc}
 802317e:	6c13      	ldr	r3, [r2, #64]	; 0x40
 8023180:	eddf 5a19 	vldr	s11, [pc, #100]	; 80231e8 <HAL_RCCEx_GetPLL3ClockFreq+0x144>
 8023184:	f3c3 0308 	ubfx	r3, r3, #0, #9
 8023188:	ee07 3a10 	vmov	s14, r3
 802318c:	eeb8 7ac7 	vcvt.f32.s32	s14, s14
 8023190:	ee77 7a27 	vadd.f32	s15, s14, s15
 8023194:	ee77 7a86 	vadd.f32	s15, s15, s12
 8023198:	ee85 7aa6 	vdiv.f32	s14, s11, s13
 802319c:	e7be      	b.n	802311c <HAL_RCCEx_GetPLL3ClockFreq+0x78>
 802319e:	6c13      	ldr	r3, [r2, #64]	; 0x40
 80231a0:	eddf 5a12 	vldr	s11, [pc, #72]	; 80231ec <HAL_RCCEx_GetPLL3ClockFreq+0x148>
 80231a4:	f3c3 0308 	ubfx	r3, r3, #0, #9
 80231a8:	ee07 3a10 	vmov	s14, r3
 80231ac:	eeb8 7ac7 	vcvt.f32.s32	s14, s14
 80231b0:	ee77 7a27 	vadd.f32	s15, s14, s15
 80231b4:	ee77 7a86 	vadd.f32	s15, s15, s12
 80231b8:	e7ee      	b.n	8023198 <HAL_RCCEx_GetPLL3ClockFreq+0xf4>
 80231ba:	6c13      	ldr	r3, [r2, #64]	; 0x40
 80231bc:	eddf 5a0c 	vldr	s11, [pc, #48]	; 80231f0 <HAL_RCCEx_GetPLL3ClockFreq+0x14c>
 80231c0:	f3c3 0308 	ubfx	r3, r3, #0, #9
 80231c4:	ee07 3a10 	vmov	s14, r3
 80231c8:	eeb8 7ac7 	vcvt.f32.s32	s14, s14
 80231cc:	ee77 7a27 	vadd.f32	s15, s14, s15
 80231d0:	ee77 7a86 	vadd.f32	s15, s15, s12
 80231d4:	e7e0      	b.n	8023198 <HAL_RCCEx_GetPLL3ClockFreq+0xf4>
 80231d6:	e9c0 1100 	strd	r1, r1, [r0]
 80231da:	6081      	str	r1, [r0, #8]
 80231dc:	e7ce      	b.n	802317c <HAL_RCCEx_GetPLL3ClockFreq+0xd8>
 80231de:	bf00      	nop
 80231e0:	58024400 	.word	0x58024400
 80231e4:	03d09000 	.word	0x03d09000
 80231e8:	4c742400 	.word	0x4c742400
 80231ec:	4bbebc20 	.word	0x4bbebc20
 80231f0:	4a742400 	.word	0x4a742400

080231f4 <SPI_CloseTransfer>:
 80231f4:	6803      	ldr	r3, [r0, #0]
 80231f6:	695a      	ldr	r2, [r3, #20]
 80231f8:	6999      	ldr	r1, [r3, #24]
 80231fa:	f041 0108 	orr.w	r1, r1, #8
 80231fe:	6199      	str	r1, [r3, #24]
 8023200:	6999      	ldr	r1, [r3, #24]
 8023202:	f041 0110 	orr.w	r1, r1, #16
 8023206:	6199      	str	r1, [r3, #24]
 8023208:	6819      	ldr	r1, [r3, #0]
 802320a:	f021 0101 	bic.w	r1, r1, #1
 802320e:	6019      	str	r1, [r3, #0]
 8023210:	6919      	ldr	r1, [r3, #16]
 8023212:	f421 715b 	bic.w	r1, r1, #876	; 0x36c
 8023216:	f021 0103 	bic.w	r1, r1, #3
 802321a:	6119      	str	r1, [r3, #16]
 802321c:	6899      	ldr	r1, [r3, #8]
 802321e:	f421 4140 	bic.w	r1, r1, #49152	; 0xc000
 8023222:	6099      	str	r1, [r3, #8]
 8023224:	f890 1081 	ldrb.w	r1, [r0, #129]	; 0x81
 8023228:	2904      	cmp	r1, #4
 802322a:	d00b      	beq.n	8023244 <SPI_CloseTransfer+0x50>
 802322c:	0691      	lsls	r1, r2, #26
 802322e:	d509      	bpl.n	8023244 <SPI_CloseTransfer+0x50>
 8023230:	f8d0 1084 	ldr.w	r1, [r0, #132]	; 0x84
 8023234:	f041 0180 	orr.w	r1, r1, #128	; 0x80
 8023238:	f8c0 1084 	str.w	r1, [r0, #132]	; 0x84
 802323c:	6999      	ldr	r1, [r3, #24]
 802323e:	f041 0120 	orr.w	r1, r1, #32
 8023242:	6199      	str	r1, [r3, #24]
 8023244:	f890 1081 	ldrb.w	r1, [r0, #129]	; 0x81
 8023248:	2903      	cmp	r1, #3
 802324a:	d01b      	beq.n	8023284 <SPI_CloseTransfer+0x90>
 802324c:	0651      	lsls	r1, r2, #25
 802324e:	d509      	bpl.n	8023264 <SPI_CloseTransfer+0x70>
 8023250:	f8d0 1084 	ldr.w	r1, [r0, #132]	; 0x84
 8023254:	f041 0104 	orr.w	r1, r1, #4
 8023258:	f8c0 1084 	str.w	r1, [r0, #132]	; 0x84
 802325c:	6999      	ldr	r1, [r3, #24]
 802325e:	f041 0140 	orr.w	r1, r1, #64	; 0x40
 8023262:	6199      	str	r1, [r3, #24]
 8023264:	6a81      	ldr	r1, [r0, #40]	; 0x28
 8023266:	f5b1 0f80 	cmp.w	r1, #4194304	; 0x400000
 802326a:	d10b      	bne.n	8023284 <SPI_CloseTransfer+0x90>
 802326c:	0611      	lsls	r1, r2, #24
 802326e:	d509      	bpl.n	8023284 <SPI_CloseTransfer+0x90>
 8023270:	f8d0 1084 	ldr.w	r1, [r0, #132]	; 0x84
 8023274:	f041 0102 	orr.w	r1, r1, #2
 8023278:	f8c0 1084 	str.w	r1, [r0, #132]	; 0x84
 802327c:	6999      	ldr	r1, [r3, #24]
 802327e:	f041 0180 	orr.w	r1, r1, #128	; 0x80
 8023282:	6199      	str	r1, [r3, #24]
 8023284:	0591      	lsls	r1, r2, #22
 8023286:	d509      	bpl.n	802329c <SPI_CloseTransfer+0xa8>
 8023288:	f8d0 1084 	ldr.w	r1, [r0, #132]	; 0x84
 802328c:	f041 0101 	orr.w	r1, r1, #1
 8023290:	f8c0 1084 	str.w	r1, [r0, #132]	; 0x84
 8023294:	6999      	ldr	r1, [r3, #24]
 8023296:	f441 7100 	orr.w	r1, r1, #512	; 0x200
 802329a:	6199      	str	r1, [r3, #24]
 802329c:	05d2      	lsls	r2, r2, #23
 802329e:	d509      	bpl.n	80232b4 <SPI_CloseTransfer+0xc0>
 80232a0:	f8d0 2084 	ldr.w	r2, [r0, #132]	; 0x84
 80232a4:	f042 0208 	orr.w	r2, r2, #8
 80232a8:	f8c0 2084 	str.w	r2, [r0, #132]	; 0x84
 80232ac:	699a      	ldr	r2, [r3, #24]
 80232ae:	f442 7280 	orr.w	r2, r2, #256	; 0x100
 80232b2:	619a      	str	r2, [r3, #24]
 80232b4:	2300      	movs	r3, #0
 80232b6:	f8a0 3062 	strh.w	r3, [r0, #98]	; 0x62
 80232ba:	f8a0 306a 	strh.w	r3, [r0, #106]	; 0x6a
 80232be:	4770      	bx	lr

080232c0 <SPI_WaitOnFlagUntilTimeout.constprop.0>:
 80232c0:	b570      	push	{r4, r5, r6, lr}
 80232c2:	4605      	mov	r5, r0
 80232c4:	460e      	mov	r6, r1
 80232c6:	4614      	mov	r4, r2
 80232c8:	682b      	ldr	r3, [r5, #0]
 80232ca:	695b      	ldr	r3, [r3, #20]
 80232cc:	071b      	lsls	r3, r3, #28
 80232ce:	d501      	bpl.n	80232d4 <SPI_WaitOnFlagUntilTimeout.constprop.0+0x14>
 80232d0:	2000      	movs	r0, #0
 80232d2:	bd70      	pop	{r4, r5, r6, pc}
 80232d4:	f7fd ffe2 	bl	802129c <HAL_GetTick>
 80232d8:	1b80      	subs	r0, r0, r6
 80232da:	42a0      	cmp	r0, r4
 80232dc:	d3f4      	bcc.n	80232c8 <SPI_WaitOnFlagUntilTimeout.constprop.0+0x8>
 80232de:	1c62      	adds	r2, r4, #1
 80232e0:	d0f2      	beq.n	80232c8 <SPI_WaitOnFlagUntilTimeout.constprop.0+0x8>
 80232e2:	2003      	movs	r0, #3
 80232e4:	e7f5      	b.n	80232d2 <SPI_WaitOnFlagUntilTimeout.constprop.0+0x12>
	...

080232e8 <HAL_SPI_Init>:
 80232e8:	b5f8      	push	{r3, r4, r5, r6, r7, lr}
 80232ea:	4604      	mov	r4, r0
 80232ec:	b318      	cbz	r0, 8023336 <HAL_SPI_Init+0x4e>
 80232ee:	6803      	ldr	r3, [r0, #0]
 80232f0:	4a75      	ldr	r2, [pc, #468]	; (80234c8 <HAL_SPI_Init+0x1e0>)
 80232f2:	6a85      	ldr	r5, [r0, #40]	; 0x28
 80232f4:	4293      	cmp	r3, r2
 80232f6:	68c1      	ldr	r1, [r0, #12]
 80232f8:	d009      	beq.n	802330e <HAL_SPI_Init+0x26>
 80232fa:	f5a2 4278 	sub.w	r2, r2, #63488	; 0xf800
 80232fe:	4293      	cmp	r3, r2
 8023300:	d005      	beq.n	802330e <HAL_SPI_Init+0x26>
 8023302:	f502 6280 	add.w	r2, r2, #1024	; 0x400
 8023306:	4293      	cmp	r3, r2
 8023308:	d001      	beq.n	802330e <HAL_SPI_Init+0x26>
 802330a:	290f      	cmp	r1, #15
 802330c:	d813      	bhi.n	8023336 <HAL_SPI_Init+0x4e>
 802330e:	6be2      	ldr	r2, [r4, #60]	; 0x3c
 8023310:	0950      	lsrs	r0, r2, #5
 8023312:	f101 0208 	add.w	r2, r1, #8
 8023316:	08d2      	lsrs	r2, r2, #3
 8023318:	fb00 2202 	mla	r2, r0, r2, r2
 802331c:	486a      	ldr	r0, [pc, #424]	; (80234c8 <HAL_SPI_Init+0x1e0>)
 802331e:	4283      	cmp	r3, r0
 8023320:	d00b      	beq.n	802333a <HAL_SPI_Init+0x52>
 8023322:	4e6a      	ldr	r6, [pc, #424]	; (80234cc <HAL_SPI_Init+0x1e4>)
 8023324:	42b3      	cmp	r3, r6
 8023326:	d008      	beq.n	802333a <HAL_SPI_Init+0x52>
 8023328:	f506 6680 	add.w	r6, r6, #1024	; 0x400
 802332c:	42b3      	cmp	r3, r6
 802332e:	d004      	beq.n	802333a <HAL_SPI_Init+0x52>
 8023330:	2a08      	cmp	r2, #8
 8023332:	f240 80c2 	bls.w	80234ba <HAL_SPI_Init+0x1d2>
 8023336:	2001      	movs	r0, #1
 8023338:	e0a1      	b.n	802347e <HAL_SPI_Init+0x196>
 802333a:	2a10      	cmp	r2, #16
 802333c:	d8fb      	bhi.n	8023336 <HAL_SPI_Init+0x4e>
 802333e:	f5b5 0f80 	cmp.w	r5, #4194304	; 0x400000
 8023342:	f040 80be 	bne.w	80234c2 <HAL_SPI_Init+0x1da>
 8023346:	4283      	cmp	r3, r0
 8023348:	d00a      	beq.n	8023360 <HAL_SPI_Init+0x78>
 802334a:	4a60      	ldr	r2, [pc, #384]	; (80234cc <HAL_SPI_Init+0x1e4>)
 802334c:	4293      	cmp	r3, r2
 802334e:	d007      	beq.n	8023360 <HAL_SPI_Init+0x78>
 8023350:	f502 6280 	add.w	r2, r2, #1024	; 0x400
 8023354:	4293      	cmp	r3, r2
 8023356:	d003      	beq.n	8023360 <HAL_SPI_Init+0x78>
 8023358:	6b23      	ldr	r3, [r4, #48]	; 0x30
 802335a:	f5b3 2f70 	cmp.w	r3, #983040	; 0xf0000
 802335e:	d8ea      	bhi.n	8023336 <HAL_SPI_Init+0x4e>
 8023360:	6b25      	ldr	r5, [r4, #48]	; 0x30
 8023362:	b905      	cbnz	r5, 8023366 <HAL_SPI_Init+0x7e>
 8023364:	040d      	lsls	r5, r1, #16
 8023366:	ebb1 4f15 	cmp.w	r1, r5, lsr #16
 802336a:	d8e4      	bhi.n	8023336 <HAL_SPI_Init+0x4e>
 802336c:	f894 3081 	ldrb.w	r3, [r4, #129]	; 0x81
 8023370:	f003 02ff 	and.w	r2, r3, #255	; 0xff
 8023374:	b923      	cbnz	r3, 8023380 <HAL_SPI_Init+0x98>
 8023376:	4620      	mov	r0, r4
 8023378:	f884 2080 	strb.w	r2, [r4, #128]	; 0x80
 802337c:	f7fd fda2 	bl	8020ec4 <HAL_SPI_MspInit>
 8023380:	2302      	movs	r3, #2
 8023382:	f8d4 c018 	ldr.w	ip, [r4, #24]
 8023386:	6861      	ldr	r1, [r4, #4]
 8023388:	f884 3081 	strb.w	r3, [r4, #129]	; 0x81
 802338c:	f1bc 6f80 	cmp.w	ip, #67108864	; 0x4000000
 8023390:	6823      	ldr	r3, [r4, #0]
 8023392:	6ba7      	ldr	r7, [r4, #56]	; 0x38
 8023394:	681a      	ldr	r2, [r3, #0]
 8023396:	f022 0201 	bic.w	r2, r2, #1
 802339a:	601a      	str	r2, [r3, #0]
 802339c:	d104      	bne.n	80233a8 <HAL_SPI_Init+0xc0>
 802339e:	f5b1 0f80 	cmp.w	r1, #4194304	; 0x400000
 80233a2:	d16d      	bne.n	8023480 <HAL_SPI_Init+0x198>
 80233a4:	2f00      	cmp	r7, #0
 80233a6:	d070      	beq.n	802348a <HAL_SPI_Init+0x1a2>
 80233a8:	6aa0      	ldr	r0, [r4, #40]	; 0x28
 80233aa:	69e6      	ldr	r6, [r4, #28]
 80233ac:	6be2      	ldr	r2, [r4, #60]	; 0x3c
 80233ae:	f5b0 0f80 	cmp.w	r0, #4194304	; 0x400000
 80233b2:	ea46 0600 	orr.w	r6, r6, r0
 80233b6:	ea46 0602 	orr.w	r6, r6, r2
 80233ba:	68e2      	ldr	r2, [r4, #12]
 80233bc:	ea46 0602 	orr.w	r6, r6, r2
 80233c0:	ea4c 0201 	orr.w	r2, ip, r1
 80233c4:	ea46 0605 	orr.w	r6, r6, r5
 80233c8:	ea42 0207 	orr.w	r2, r2, r7
 80233cc:	609e      	str	r6, [r3, #8]
 80233ce:	6b66      	ldr	r6, [r4, #52]	; 0x34
 80233d0:	ea42 0206 	orr.w	r2, r2, r6
 80233d4:	6a66      	ldr	r6, [r4, #36]	; 0x24
 80233d6:	ea42 0206 	orr.w	r2, r2, r6
 80233da:	6926      	ldr	r6, [r4, #16]
 80233dc:	ea42 0206 	orr.w	r2, r2, r6
 80233e0:	6966      	ldr	r6, [r4, #20]
 80233e2:	ea42 0206 	orr.w	r2, r2, r6
 80233e6:	6a26      	ldr	r6, [r4, #32]
 80233e8:	ea42 0206 	orr.w	r2, r2, r6
 80233ec:	6ce6      	ldr	r6, [r4, #76]	; 0x4c
 80233ee:	ea42 0206 	orr.w	r2, r2, r6
 80233f2:	68a6      	ldr	r6, [r4, #8]
 80233f4:	ea42 0206 	orr.w	r2, r2, r6
 80233f8:	6ca6      	ldr	r6, [r4, #72]	; 0x48
 80233fa:	ea42 0206 	orr.w	r2, r2, r6
 80233fe:	6da6      	ldr	r6, [r4, #88]	; 0x58
 8023400:	ea42 0206 	orr.w	r2, r2, r6
 8023404:	60da      	str	r2, [r3, #12]
 8023406:	d148      	bne.n	802349a <HAL_SPI_Init+0x1b2>
 8023408:	6c22      	ldr	r2, [r4, #64]	; 0x40
 802340a:	2a01      	cmp	r2, #1
 802340c:	681a      	ldr	r2, [r3, #0]
 802340e:	bf0c      	ite	eq
 8023410:	f442 4200 	orreq.w	r2, r2, #32768	; 0x8000
 8023414:	f422 4200 	bicne.w	r2, r2, #32768	; 0x8000
 8023418:	601a      	str	r2, [r3, #0]
 802341a:	6c62      	ldr	r2, [r4, #68]	; 0x44
 802341c:	2a01      	cmp	r2, #1
 802341e:	681a      	ldr	r2, [r3, #0]
 8023420:	bf0c      	ite	eq
 8023422:	f442 4280 	orreq.w	r2, r2, #16384	; 0x4000
 8023426:	f422 4280 	bicne.w	r2, r2, #16384	; 0x4000
 802342a:	601a      	str	r2, [r3, #0]
 802342c:	4a26      	ldr	r2, [pc, #152]	; (80234c8 <HAL_SPI_Init+0x1e0>)
 802342e:	4293      	cmp	r3, r2
 8023430:	d030      	beq.n	8023494 <HAL_SPI_Init+0x1ac>
 8023432:	f5a2 4278 	sub.w	r2, r2, #63488	; 0xf800
 8023436:	4293      	cmp	r3, r2
 8023438:	d02c      	beq.n	8023494 <HAL_SPI_Init+0x1ac>
 802343a:	f502 6280 	add.w	r2, r2, #1024	; 0x400
 802343e:	4293      	cmp	r3, r2
 8023440:	d028      	beq.n	8023494 <HAL_SPI_Init+0x1ac>
 8023442:	f5b5 2f70 	cmp.w	r5, #983040	; 0xf0000
 8023446:	681a      	ldr	r2, [r3, #0]
 8023448:	bf0c      	ite	eq
 802344a:	f442 5200 	orreq.w	r2, r2, #8192	; 0x2000
 802344e:	f422 5200 	bicne.w	r2, r2, #8192	; 0x2000
 8023452:	601a      	str	r2, [r3, #0]
 8023454:	6ae2      	ldr	r2, [r4, #44]	; 0x2c
 8023456:	641a      	str	r2, [r3, #64]	; 0x40
 8023458:	b341      	cbz	r1, 80234ac <HAL_SPI_Init+0x1c4>
 802345a:	6d1a      	ldr	r2, [r3, #80]	; 0x50
 802345c:	f022 0201 	bic.w	r2, r2, #1
 8023460:	651a      	str	r2, [r3, #80]	; 0x50
 8023462:	024a      	lsls	r2, r1, #9
 8023464:	d505      	bpl.n	8023472 <HAL_SPI_Init+0x18a>
 8023466:	68da      	ldr	r2, [r3, #12]
 8023468:	6d61      	ldr	r1, [r4, #84]	; 0x54
 802346a:	f022 4200 	bic.w	r2, r2, #2147483648	; 0x80000000
 802346e:	430a      	orrs	r2, r1
 8023470:	60da      	str	r2, [r3, #12]
 8023472:	2000      	movs	r0, #0
 8023474:	2301      	movs	r3, #1
 8023476:	f8c4 0084 	str.w	r0, [r4, #132]	; 0x84
 802347a:	f884 3081 	strb.w	r3, [r4, #129]	; 0x81
 802347e:	bdf8      	pop	{r3, r4, r5, r6, r7, pc}
 8023480:	2900      	cmp	r1, #0
 8023482:	d191      	bne.n	80233a8 <HAL_SPI_Init+0xc0>
 8023484:	f1b7 5f80 	cmp.w	r7, #268435456	; 0x10000000
 8023488:	d18e      	bne.n	80233a8 <HAL_SPI_Init+0xc0>
 802348a:	6818      	ldr	r0, [r3, #0]
 802348c:	f440 5080 	orr.w	r0, r0, #4096	; 0x1000
 8023490:	6018      	str	r0, [r3, #0]
 8023492:	e789      	b.n	80233a8 <HAL_SPI_Init+0xc0>
 8023494:	f5b5 1ff8 	cmp.w	r5, #2031616	; 0x1f0000
 8023498:	e7d5      	b.n	8023446 <HAL_SPI_Init+0x15e>
 802349a:	2900      	cmp	r1, #0
 802349c:	d1dd      	bne.n	802345a <HAL_SPI_Init+0x172>
 802349e:	b928      	cbnz	r0, 80234ac <HAL_SPI_Init+0x1c4>
 80234a0:	689a      	ldr	r2, [r3, #8]
 80234a2:	f422 52c0 	bic.w	r2, r2, #6144	; 0x1800
 80234a6:	f442 6200 	orr.w	r2, r2, #2048	; 0x800
 80234aa:	609a      	str	r2, [r3, #8]
 80234ac:	689a      	ldr	r2, [r3, #8]
 80234ae:	f422 62c0 	bic.w	r2, r2, #1536	; 0x600
 80234b2:	f442 6280 	orr.w	r2, r2, #1024	; 0x400
 80234b6:	609a      	str	r2, [r3, #8]
 80234b8:	e7cf      	b.n	802345a <HAL_SPI_Init+0x172>
 80234ba:	f5b5 0f80 	cmp.w	r5, #4194304	; 0x400000
 80234be:	f43f af4b 	beq.w	8023358 <HAL_SPI_Init+0x70>
 80234c2:	040d      	lsls	r5, r1, #16
 80234c4:	e752      	b.n	802336c <HAL_SPI_Init+0x84>
 80234c6:	bf00      	nop
 80234c8:	40013000 	.word	0x40013000
 80234cc:	40003800 	.word	0x40003800

080234d0 <HAL_SPI_TransmitReceive>:
 80234d0:	e92d 47f0 	stmdb	sp!, {r4, r5, r6, r7, r8, r9, sl, lr}
 80234d4:	461d      	mov	r5, r3
 80234d6:	f890 3080 	ldrb.w	r3, [r0, #128]	; 0x80
 80234da:	4604      	mov	r4, r0
 80234dc:	460e      	mov	r6, r1
 80234de:	2b01      	cmp	r3, #1
 80234e0:	4692      	mov	sl, r2
 80234e2:	9f08      	ldr	r7, [sp, #32]
 80234e4:	d017      	beq.n	8023516 <HAL_SPI_TransmitReceive+0x46>
 80234e6:	2301      	movs	r3, #1
 80234e8:	f8d0 8000 	ldr.w	r8, [r0]
 80234ec:	f880 3080 	strb.w	r3, [r0, #128]	; 0x80
 80234f0:	f7fd fed4 	bl	802129c <HAL_GetTick>
 80234f4:	f894 3081 	ldrb.w	r3, [r4, #129]	; 0x81
 80234f8:	4681      	mov	r9, r0
 80234fa:	6861      	ldr	r1, [r4, #4]
 80234fc:	2b01      	cmp	r3, #1
 80234fe:	b2da      	uxtb	r2, r3
 8023500:	d00b      	beq.n	802351a <HAL_SPI_TransmitReceive+0x4a>
 8023502:	f5b1 0f80 	cmp.w	r1, #4194304	; 0x400000
 8023506:	d103      	bne.n	8023510 <HAL_SPI_TransmitReceive+0x40>
 8023508:	68a3      	ldr	r3, [r4, #8]
 802350a:	b90b      	cbnz	r3, 8023510 <HAL_SPI_TransmitReceive+0x40>
 802350c:	2a04      	cmp	r2, #4
 802350e:	d004      	beq.n	802351a <HAL_SPI_TransmitReceive+0x4a>
 8023510:	2300      	movs	r3, #0
 8023512:	f884 3080 	strb.w	r3, [r4, #128]	; 0x80
 8023516:	2002      	movs	r0, #2
 8023518:	e008      	b.n	802352c <HAL_SPI_TransmitReceive+0x5c>
 802351a:	b11e      	cbz	r6, 8023524 <HAL_SPI_TransmitReceive+0x54>
 802351c:	f1ba 0f00 	cmp.w	sl, #0
 8023520:	d000      	beq.n	8023524 <HAL_SPI_TransmitReceive+0x54>
 8023522:	b92d      	cbnz	r5, 8023530 <HAL_SPI_TransmitReceive+0x60>
 8023524:	2300      	movs	r3, #0
 8023526:	2001      	movs	r0, #1
 8023528:	f884 3080 	strb.w	r3, [r4, #128]	; 0x80
 802352c:	e8bd 87f0 	ldmia.w	sp!, {r4, r5, r6, r7, r8, r9, sl, pc}
 8023530:	f894 3081 	ldrb.w	r3, [r4, #129]	; 0x81
 8023534:	2b04      	cmp	r3, #4
 8023536:	d002      	beq.n	802353e <HAL_SPI_TransmitReceive+0x6e>
 8023538:	2305      	movs	r3, #5
 802353a:	f884 3081 	strb.w	r3, [r4, #129]	; 0x81
 802353e:	6822      	ldr	r2, [r4, #0]
 8023540:	2300      	movs	r3, #0
 8023542:	f8c4 a064 	str.w	sl, [r4, #100]	; 0x64
 8023546:	f5b1 0f80 	cmp.w	r1, #4194304	; 0x400000
 802354a:	f8c4 3084 	str.w	r3, [r4, #132]	; 0x84
 802354e:	f8a4 506a 	strh.w	r5, [r4, #106]	; 0x6a
 8023552:	f8a4 5062 	strh.w	r5, [r4, #98]	; 0x62
 8023556:	f8a4 5068 	strh.w	r5, [r4, #104]	; 0x68
 802355a:	65e6      	str	r6, [r4, #92]	; 0x5c
 802355c:	f8a4 5060 	strh.w	r5, [r4, #96]	; 0x60
 8023560:	e9c4 331c 	strd	r3, r3, [r4, #112]	; 0x70
 8023564:	6853      	ldr	r3, [r2, #4]
 8023566:	ea4f 4313 	mov.w	r3, r3, lsr #16
 802356a:	ea4f 4303 	mov.w	r3, r3, lsl #16
 802356e:	ea43 0305 	orr.w	r3, r3, r5
 8023572:	6053      	str	r3, [r2, #4]
 8023574:	6813      	ldr	r3, [r2, #0]
 8023576:	f043 0301 	orr.w	r3, r3, #1
 802357a:	6013      	str	r3, [r2, #0]
 802357c:	d103      	bne.n	8023586 <HAL_SPI_TransmitReceive+0xb6>
 802357e:	6813      	ldr	r3, [r2, #0]
 8023580:	f443 7300 	orr.w	r3, r3, #512	; 0x200
 8023584:	6013      	str	r3, [r2, #0]
 8023586:	68e3      	ldr	r3, [r4, #12]
 8023588:	462e      	mov	r6, r5
 802358a:	2b0f      	cmp	r3, #15
 802358c:	d95b      	bls.n	8023646 <HAL_SPI_TransmitReceive+0x176>
 802358e:	f248 0808 	movw	r8, #32776	; 0x8008
 8023592:	6822      	ldr	r2, [r4, #0]
 8023594:	6953      	ldr	r3, [r2, #20]
 8023596:	0799      	lsls	r1, r3, #30
 8023598:	d50e      	bpl.n	80235b8 <HAL_SPI_TransmitReceive+0xe8>
 802359a:	b16d      	cbz	r5, 80235b8 <HAL_SPI_TransmitReceive+0xe8>
 802359c:	6de3      	ldr	r3, [r4, #92]	; 0x5c
 802359e:	f853 1b04 	ldr.w	r1, [r3], #4
 80235a2:	6211      	str	r1, [r2, #32]
 80235a4:	65e3      	str	r3, [r4, #92]	; 0x5c
 80235a6:	f8b4 3062 	ldrh.w	r3, [r4, #98]	; 0x62
 80235aa:	3b01      	subs	r3, #1
 80235ac:	b29b      	uxth	r3, r3
 80235ae:	f8a4 3062 	strh.w	r3, [r4, #98]	; 0x62
 80235b2:	f8b4 5062 	ldrh.w	r5, [r4, #98]	; 0x62
 80235b6:	b2ad      	uxth	r5, r5
 80235b8:	6953      	ldr	r3, [r2, #20]
 80235ba:	ea13 0f08 	tst.w	r3, r8
 80235be:	d00e      	beq.n	80235de <HAL_SPI_TransmitReceive+0x10e>
 80235c0:	b16e      	cbz	r6, 80235de <HAL_SPI_TransmitReceive+0x10e>
 80235c2:	6b12      	ldr	r2, [r2, #48]	; 0x30
 80235c4:	6e63      	ldr	r3, [r4, #100]	; 0x64
 80235c6:	f843 2b04 	str.w	r2, [r3], #4
 80235ca:	6663      	str	r3, [r4, #100]	; 0x64
 80235cc:	f8b4 306a 	ldrh.w	r3, [r4, #106]	; 0x6a
 80235d0:	3b01      	subs	r3, #1
 80235d2:	b29b      	uxth	r3, r3
 80235d4:	f8a4 306a 	strh.w	r3, [r4, #106]	; 0x6a
 80235d8:	f8b4 606a 	ldrh.w	r6, [r4, #106]	; 0x6a
 80235dc:	b2b6      	uxth	r6, r6
 80235de:	f7fd fe5d 	bl	802129c <HAL_GetTick>
 80235e2:	eba0 0009 	sub.w	r0, r0, r9
 80235e6:	42b8      	cmp	r0, r7
 80235e8:	d311      	bcc.n	802360e <HAL_SPI_TransmitReceive+0x13e>
 80235ea:	1c7b      	adds	r3, r7, #1
 80235ec:	d00f      	beq.n	802360e <HAL_SPI_TransmitReceive+0x13e>
 80235ee:	4620      	mov	r0, r4
 80235f0:	f7ff fe00 	bl	80231f4 <SPI_CloseTransfer>
 80235f4:	2300      	movs	r3, #0
 80235f6:	2001      	movs	r0, #1
 80235f8:	f884 3080 	strb.w	r3, [r4, #128]	; 0x80
 80235fc:	f8d4 3084 	ldr.w	r3, [r4, #132]	; 0x84
 8023600:	f443 7380 	orr.w	r3, r3, #256	; 0x100
 8023604:	f8c4 3084 	str.w	r3, [r4, #132]	; 0x84
 8023608:	f884 0081 	strb.w	r0, [r4, #129]	; 0x81
 802360c:	e78e      	b.n	802352c <HAL_SPI_TransmitReceive+0x5c>
 802360e:	ea45 0306 	orr.w	r3, r5, r6
 8023612:	b29b      	uxth	r3, r3
 8023614:	2b00      	cmp	r3, #0
 8023616:	d1bc      	bne.n	8023592 <HAL_SPI_TransmitReceive+0xc2>
 8023618:	463a      	mov	r2, r7
 802361a:	4649      	mov	r1, r9
 802361c:	4620      	mov	r0, r4
 802361e:	f7ff fe4f 	bl	80232c0 <SPI_WaitOnFlagUntilTimeout.constprop.0>
 8023622:	2800      	cmp	r0, #0
 8023624:	f040 80cd 	bne.w	80237c2 <HAL_SPI_TransmitReceive+0x2f2>
 8023628:	4620      	mov	r0, r4
 802362a:	f7ff fde3 	bl	80231f4 <SPI_CloseTransfer>
 802362e:	2300      	movs	r3, #0
 8023630:	f884 3080 	strb.w	r3, [r4, #128]	; 0x80
 8023634:	2301      	movs	r3, #1
 8023636:	f884 3081 	strb.w	r3, [r4, #129]	; 0x81
 802363a:	f8d4 0084 	ldr.w	r0, [r4, #132]	; 0x84
 802363e:	3800      	subs	r0, #0
 8023640:	bf18      	it	ne
 8023642:	2001      	movne	r0, #1
 8023644:	e772      	b.n	802352c <HAL_SPI_TransmitReceive+0x5c>
 8023646:	2b07      	cmp	r3, #7
 8023648:	d94d      	bls.n	80236e6 <HAL_SPI_TransmitReceive+0x216>
 802364a:	6822      	ldr	r2, [r4, #0]
 802364c:	6953      	ldr	r3, [r2, #20]
 802364e:	0798      	lsls	r0, r3, #30
 8023650:	d513      	bpl.n	802367a <HAL_SPI_TransmitReceive+0x1aa>
 8023652:	b195      	cbz	r5, 802367a <HAL_SPI_TransmitReceive+0x1aa>
 8023654:	2d01      	cmp	r5, #1
 8023656:	6de3      	ldr	r3, [r4, #92]	; 0x5c
 8023658:	d933      	bls.n	80236c2 <HAL_SPI_TransmitReceive+0x1f2>
 802365a:	6be1      	ldr	r1, [r4, #60]	; 0x3c
 802365c:	2900      	cmp	r1, #0
 802365e:	d030      	beq.n	80236c2 <HAL_SPI_TransmitReceive+0x1f2>
 8023660:	f853 1b04 	ldr.w	r1, [r3], #4
 8023664:	6211      	str	r1, [r2, #32]
 8023666:	65e3      	str	r3, [r4, #92]	; 0x5c
 8023668:	f8b4 3062 	ldrh.w	r3, [r4, #98]	; 0x62
 802366c:	3b02      	subs	r3, #2
 802366e:	b29b      	uxth	r3, r3
 8023670:	f8a4 3062 	strh.w	r3, [r4, #98]	; 0x62
 8023674:	f8b4 5062 	ldrh.w	r5, [r4, #98]	; 0x62
 8023678:	b2ad      	uxth	r5, r5
 802367a:	6953      	ldr	r3, [r2, #20]
 802367c:	f413 4f60 	tst.w	r3, #57344	; 0xe000
 8023680:	d011      	beq.n	80236a6 <HAL_SPI_TransmitReceive+0x1d6>
 8023682:	b186      	cbz	r6, 80236a6 <HAL_SPI_TransmitReceive+0x1d6>
 8023684:	6951      	ldr	r1, [r2, #20]
 8023686:	6e63      	ldr	r3, [r4, #100]	; 0x64
 8023688:	0409      	lsls	r1, r1, #16
 802368a:	d523      	bpl.n	80236d4 <HAL_SPI_TransmitReceive+0x204>
 802368c:	6b12      	ldr	r2, [r2, #48]	; 0x30
 802368e:	f843 2b04 	str.w	r2, [r3], #4
 8023692:	6663      	str	r3, [r4, #100]	; 0x64
 8023694:	f8b4 306a 	ldrh.w	r3, [r4, #106]	; 0x6a
 8023698:	3b02      	subs	r3, #2
 802369a:	b29b      	uxth	r3, r3
 802369c:	f8a4 306a 	strh.w	r3, [r4, #106]	; 0x6a
 80236a0:	f8b4 606a 	ldrh.w	r6, [r4, #106]	; 0x6a
 80236a4:	b2b6      	uxth	r6, r6
 80236a6:	f7fd fdf9 	bl	802129c <HAL_GetTick>
 80236aa:	eba0 0009 	sub.w	r0, r0, r9
 80236ae:	42b8      	cmp	r0, r7
 80236b0:	d301      	bcc.n	80236b6 <HAL_SPI_TransmitReceive+0x1e6>
 80236b2:	1c7b      	adds	r3, r7, #1
 80236b4:	d19b      	bne.n	80235ee <HAL_SPI_TransmitReceive+0x11e>
 80236b6:	ea45 0306 	orr.w	r3, r5, r6
 80236ba:	b29b      	uxth	r3, r3
 80236bc:	2b00      	cmp	r3, #0
 80236be:	d1c4      	bne.n	802364a <HAL_SPI_TransmitReceive+0x17a>
 80236c0:	e7aa      	b.n	8023618 <HAL_SPI_TransmitReceive+0x148>
 80236c2:	f833 1b02 	ldrh.w	r1, [r3], #2
 80236c6:	f8a8 1020 	strh.w	r1, [r8, #32]
 80236ca:	65e3      	str	r3, [r4, #92]	; 0x5c
 80236cc:	f8b4 3062 	ldrh.w	r3, [r4, #98]	; 0x62
 80236d0:	3b01      	subs	r3, #1
 80236d2:	e7cc      	b.n	802366e <HAL_SPI_TransmitReceive+0x19e>
 80236d4:	f8b8 2030 	ldrh.w	r2, [r8, #48]	; 0x30
 80236d8:	f823 2b02 	strh.w	r2, [r3], #2
 80236dc:	6663      	str	r3, [r4, #100]	; 0x64
 80236de:	f8b4 306a 	ldrh.w	r3, [r4, #106]	; 0x6a
 80236e2:	3b01      	subs	r3, #1
 80236e4:	e7d9      	b.n	802369a <HAL_SPI_TransmitReceive+0x1ca>
 80236e6:	6822      	ldr	r2, [r4, #0]
 80236e8:	6953      	ldr	r3, [r2, #20]
 80236ea:	0798      	lsls	r0, r3, #30
 80236ec:	d513      	bpl.n	8023716 <HAL_SPI_TransmitReceive+0x246>
 80236ee:	b195      	cbz	r5, 8023716 <HAL_SPI_TransmitReceive+0x246>
 80236f0:	2d03      	cmp	r5, #3
 80236f2:	6de3      	ldr	r3, [r4, #92]	; 0x5c
 80236f4:	d935      	bls.n	8023762 <HAL_SPI_TransmitReceive+0x292>
 80236f6:	6be1      	ldr	r1, [r4, #60]	; 0x3c
 80236f8:	2940      	cmp	r1, #64	; 0x40
 80236fa:	d934      	bls.n	8023766 <HAL_SPI_TransmitReceive+0x296>
 80236fc:	f853 1b04 	ldr.w	r1, [r3], #4
 8023700:	6211      	str	r1, [r2, #32]
 8023702:	65e3      	str	r3, [r4, #92]	; 0x5c
 8023704:	f8b4 3062 	ldrh.w	r3, [r4, #98]	; 0x62
 8023708:	3b04      	subs	r3, #4
 802370a:	b29b      	uxth	r3, r3
 802370c:	f8a4 3062 	strh.w	r3, [r4, #98]	; 0x62
 8023710:	f8b4 5062 	ldrh.w	r5, [r4, #98]	; 0x62
 8023714:	b2ad      	uxth	r5, r5
 8023716:	6822      	ldr	r2, [r4, #0]
 8023718:	6953      	ldr	r3, [r2, #20]
 802371a:	f413 4f60 	tst.w	r3, #57344	; 0xe000
 802371e:	d011      	beq.n	8023744 <HAL_SPI_TransmitReceive+0x274>
 8023720:	b186      	cbz	r6, 8023744 <HAL_SPI_TransmitReceive+0x274>
 8023722:	6951      	ldr	r1, [r2, #20]
 8023724:	6e63      	ldr	r3, [r4, #100]	; 0x64
 8023726:	0409      	lsls	r1, r1, #16
 8023728:	d532      	bpl.n	8023790 <HAL_SPI_TransmitReceive+0x2c0>
 802372a:	6b12      	ldr	r2, [r2, #48]	; 0x30
 802372c:	f843 2b04 	str.w	r2, [r3], #4
 8023730:	6663      	str	r3, [r4, #100]	; 0x64
 8023732:	f8b4 306a 	ldrh.w	r3, [r4, #106]	; 0x6a
 8023736:	3b04      	subs	r3, #4
 8023738:	b29b      	uxth	r3, r3
 802373a:	f8a4 306a 	strh.w	r3, [r4, #106]	; 0x6a
 802373e:	f8b4 606a 	ldrh.w	r6, [r4, #106]	; 0x6a
 8023742:	b2b6      	uxth	r6, r6
 8023744:	f7fd fdaa 	bl	802129c <HAL_GetTick>
 8023748:	eba0 0009 	sub.w	r0, r0, r9
 802374c:	42b8      	cmp	r0, r7
 802374e:	d302      	bcc.n	8023756 <HAL_SPI_TransmitReceive+0x286>
 8023750:	1c7b      	adds	r3, r7, #1
 8023752:	f47f af4c 	bne.w	80235ee <HAL_SPI_TransmitReceive+0x11e>
 8023756:	ea45 0306 	orr.w	r3, r5, r6
 802375a:	b29b      	uxth	r3, r3
 802375c:	2b00      	cmp	r3, #0
 802375e:	d1c2      	bne.n	80236e6 <HAL_SPI_TransmitReceive+0x216>
 8023760:	e75a      	b.n	8023618 <HAL_SPI_TransmitReceive+0x148>
 8023762:	2d01      	cmp	r5, #1
 8023764:	d00a      	beq.n	802377c <HAL_SPI_TransmitReceive+0x2ac>
 8023766:	6be1      	ldr	r1, [r4, #60]	; 0x3c
 8023768:	b141      	cbz	r1, 802377c <HAL_SPI_TransmitReceive+0x2ac>
 802376a:	f833 2b02 	ldrh.w	r2, [r3], #2
 802376e:	f8a8 2020 	strh.w	r2, [r8, #32]
 8023772:	65e3      	str	r3, [r4, #92]	; 0x5c
 8023774:	f8b4 3062 	ldrh.w	r3, [r4, #98]	; 0x62
 8023778:	3b02      	subs	r3, #2
 802377a:	e7c6      	b.n	802370a <HAL_SPI_TransmitReceive+0x23a>
 802377c:	781b      	ldrb	r3, [r3, #0]
 802377e:	f882 3020 	strb.w	r3, [r2, #32]
 8023782:	6de3      	ldr	r3, [r4, #92]	; 0x5c
 8023784:	3301      	adds	r3, #1
 8023786:	65e3      	str	r3, [r4, #92]	; 0x5c
 8023788:	f8b4 3062 	ldrh.w	r3, [r4, #98]	; 0x62
 802378c:	3b01      	subs	r3, #1
 802378e:	e7bc      	b.n	802370a <HAL_SPI_TransmitReceive+0x23a>
 8023790:	6951      	ldr	r1, [r2, #20]
 8023792:	f401 41c0 	and.w	r1, r1, #24576	; 0x6000
 8023796:	f5b1 5f00 	cmp.w	r1, #8192	; 0x2000
 802379a:	d908      	bls.n	80237ae <HAL_SPI_TransmitReceive+0x2de>
 802379c:	f8b8 2030 	ldrh.w	r2, [r8, #48]	; 0x30
 80237a0:	f823 2b02 	strh.w	r2, [r3], #2
 80237a4:	6663      	str	r3, [r4, #100]	; 0x64
 80237a6:	f8b4 306a 	ldrh.w	r3, [r4, #106]	; 0x6a
 80237aa:	3b02      	subs	r3, #2
 80237ac:	e7c4      	b.n	8023738 <HAL_SPI_TransmitReceive+0x268>
 80237ae:	f892 2030 	ldrb.w	r2, [r2, #48]	; 0x30
 80237b2:	701a      	strb	r2, [r3, #0]
 80237b4:	6e63      	ldr	r3, [r4, #100]	; 0x64
 80237b6:	3301      	adds	r3, #1
 80237b8:	6663      	str	r3, [r4, #100]	; 0x64
 80237ba:	f8b4 306a 	ldrh.w	r3, [r4, #106]	; 0x6a
 80237be:	3b01      	subs	r3, #1
 80237c0:	e7ba      	b.n	8023738 <HAL_SPI_TransmitReceive+0x268>
 80237c2:	f8d4 3084 	ldr.w	r3, [r4, #132]	; 0x84
 80237c6:	f043 0320 	orr.w	r3, r3, #32
 80237ca:	f8c4 3084 	str.w	r3, [r4, #132]	; 0x84
 80237ce:	e72b      	b.n	8023628 <HAL_SPI_TransmitReceive+0x158>

080237d0 <UART_SetConfig>:
 80237d0:	b5f0      	push	{r4, r5, r6, r7, lr}
 80237d2:	4604      	mov	r4, r0
 80237d4:	6803      	ldr	r3, [r0, #0]
 80237d6:	69c0      	ldr	r0, [r0, #28]
 80237d8:	b087      	sub	sp, #28
 80237da:	6921      	ldr	r1, [r4, #16]
 80237dc:	68a2      	ldr	r2, [r4, #8]
 80237de:	681d      	ldr	r5, [r3, #0]
 80237e0:	430a      	orrs	r2, r1
 80237e2:	6961      	ldr	r1, [r4, #20]
 80237e4:	430a      	orrs	r2, r1
 80237e6:	49a4      	ldr	r1, [pc, #656]	; (8023a78 <UART_SetConfig+0x2a8>)
 80237e8:	4302      	orrs	r2, r0
 80237ea:	4029      	ands	r1, r5
 80237ec:	430a      	orrs	r2, r1
 80237ee:	68e1      	ldr	r1, [r4, #12]
 80237f0:	601a      	str	r2, [r3, #0]
 80237f2:	685a      	ldr	r2, [r3, #4]
 80237f4:	f422 5240 	bic.w	r2, r2, #12288	; 0x3000
 80237f8:	430a      	orrs	r2, r1
 80237fa:	69a1      	ldr	r1, [r4, #24]
 80237fc:	605a      	str	r2, [r3, #4]
 80237fe:	4a9f      	ldr	r2, [pc, #636]	; (8023a7c <UART_SetConfig+0x2ac>)
 8023800:	4293      	cmp	r3, r2
 8023802:	bf1c      	itt	ne
 8023804:	6a22      	ldrne	r2, [r4, #32]
 8023806:	4311      	orrne	r1, r2
 8023808:	689a      	ldr	r2, [r3, #8]
 802380a:	f022 426e 	bic.w	r2, r2, #3992977408	; 0xee000000
 802380e:	f422 6230 	bic.w	r2, r2, #2816	; 0xb00
 8023812:	430a      	orrs	r2, r1
 8023814:	6a61      	ldr	r1, [r4, #36]	; 0x24
 8023816:	609a      	str	r2, [r3, #8]
 8023818:	6ada      	ldr	r2, [r3, #44]	; 0x2c
 802381a:	f022 020f 	bic.w	r2, r2, #15
 802381e:	430a      	orrs	r2, r1
 8023820:	62da      	str	r2, [r3, #44]	; 0x2c
 8023822:	4a97      	ldr	r2, [pc, #604]	; (8023a80 <UART_SetConfig+0x2b0>)
 8023824:	4293      	cmp	r3, r2
 8023826:	d11b      	bne.n	8023860 <UART_SetConfig+0x90>
 8023828:	4b96      	ldr	r3, [pc, #600]	; (8023a84 <UART_SetConfig+0x2b4>)
 802382a:	6d5b      	ldr	r3, [r3, #84]	; 0x54
 802382c:	f003 0338 	and.w	r3, r3, #56	; 0x38
 8023830:	2b28      	cmp	r3, #40	; 0x28
 8023832:	d86c      	bhi.n	802390e <UART_SetConfig+0x13e>
 8023834:	4a94      	ldr	r2, [pc, #592]	; (8023a88 <UART_SetConfig+0x2b8>)
 8023836:	f5b0 4f00 	cmp.w	r0, #32768	; 0x8000
 802383a:	5cd3      	ldrb	r3, [r2, r3]
 802383c:	f040 8102 	bne.w	8023a44 <UART_SetConfig+0x274>
 8023840:	2b08      	cmp	r3, #8
 8023842:	f200 80bf 	bhi.w	80239c4 <UART_SetConfig+0x1f4>
 8023846:	2b08      	cmp	r3, #8
 8023848:	d861      	bhi.n	802390e <UART_SetConfig+0x13e>
 802384a:	e8df f013 	tbh	[pc, r3, lsl #1]
 802384e:	00e7      	.short	0x00e7
 8023850:	006000ec 	.word	0x006000ec
 8023854:	00ef0060 	.word	0x00ef0060
 8023858:	00600060 	.word	0x00600060
 802385c:	00f40060 	.word	0x00f40060
 8023860:	4a8a      	ldr	r2, [pc, #552]	; (8023a8c <UART_SetConfig+0x2bc>)
 8023862:	4293      	cmp	r3, r2
 8023864:	d107      	bne.n	8023876 <UART_SetConfig+0xa6>
 8023866:	4b87      	ldr	r3, [pc, #540]	; (8023a84 <UART_SetConfig+0x2b4>)
 8023868:	6d5b      	ldr	r3, [r3, #84]	; 0x54
 802386a:	f003 0307 	and.w	r3, r3, #7
 802386e:	2b05      	cmp	r3, #5
 8023870:	d84d      	bhi.n	802390e <UART_SetConfig+0x13e>
 8023872:	4a87      	ldr	r2, [pc, #540]	; (8023a90 <UART_SetConfig+0x2c0>)
 8023874:	e7df      	b.n	8023836 <UART_SetConfig+0x66>
 8023876:	4a87      	ldr	r2, [pc, #540]	; (8023a94 <UART_SetConfig+0x2c4>)
 8023878:	4293      	cmp	r3, r2
 802387a:	d107      	bne.n	802388c <UART_SetConfig+0xbc>
 802387c:	4b81      	ldr	r3, [pc, #516]	; (8023a84 <UART_SetConfig+0x2b4>)
 802387e:	6d5b      	ldr	r3, [r3, #84]	; 0x54
 8023880:	f003 0307 	and.w	r3, r3, #7
 8023884:	2b05      	cmp	r3, #5
 8023886:	d842      	bhi.n	802390e <UART_SetConfig+0x13e>
 8023888:	4a83      	ldr	r2, [pc, #524]	; (8023a98 <UART_SetConfig+0x2c8>)
 802388a:	e7d4      	b.n	8023836 <UART_SetConfig+0x66>
 802388c:	4a83      	ldr	r2, [pc, #524]	; (8023a9c <UART_SetConfig+0x2cc>)
 802388e:	4293      	cmp	r3, r2
 8023890:	d107      	bne.n	80238a2 <UART_SetConfig+0xd2>
 8023892:	4b7c      	ldr	r3, [pc, #496]	; (8023a84 <UART_SetConfig+0x2b4>)
 8023894:	6d5b      	ldr	r3, [r3, #84]	; 0x54
 8023896:	f003 0307 	and.w	r3, r3, #7
 802389a:	2b05      	cmp	r3, #5
 802389c:	d837      	bhi.n	802390e <UART_SetConfig+0x13e>
 802389e:	4a80      	ldr	r2, [pc, #512]	; (8023aa0 <UART_SetConfig+0x2d0>)
 80238a0:	e7c9      	b.n	8023836 <UART_SetConfig+0x66>
 80238a2:	4a80      	ldr	r2, [pc, #512]	; (8023aa4 <UART_SetConfig+0x2d4>)
 80238a4:	4293      	cmp	r3, r2
 80238a6:	d107      	bne.n	80238b8 <UART_SetConfig+0xe8>
 80238a8:	4b76      	ldr	r3, [pc, #472]	; (8023a84 <UART_SetConfig+0x2b4>)
 80238aa:	6d5b      	ldr	r3, [r3, #84]	; 0x54
 80238ac:	f003 0307 	and.w	r3, r3, #7
 80238b0:	2b05      	cmp	r3, #5
 80238b2:	d82c      	bhi.n	802390e <UART_SetConfig+0x13e>
 80238b4:	4a7c      	ldr	r2, [pc, #496]	; (8023aa8 <UART_SetConfig+0x2d8>)
 80238b6:	e7be      	b.n	8023836 <UART_SetConfig+0x66>
 80238b8:	4a7c      	ldr	r2, [pc, #496]	; (8023aac <UART_SetConfig+0x2dc>)
 80238ba:	4293      	cmp	r3, r2
 80238bc:	d107      	bne.n	80238ce <UART_SetConfig+0xfe>
 80238be:	4b71      	ldr	r3, [pc, #452]	; (8023a84 <UART_SetConfig+0x2b4>)
 80238c0:	6d5b      	ldr	r3, [r3, #84]	; 0x54
 80238c2:	f003 0338 	and.w	r3, r3, #56	; 0x38
 80238c6:	2b28      	cmp	r3, #40	; 0x28
 80238c8:	d821      	bhi.n	802390e <UART_SetConfig+0x13e>
 80238ca:	4a79      	ldr	r2, [pc, #484]	; (8023ab0 <UART_SetConfig+0x2e0>)
 80238cc:	e7b3      	b.n	8023836 <UART_SetConfig+0x66>
 80238ce:	4a79      	ldr	r2, [pc, #484]	; (8023ab4 <UART_SetConfig+0x2e4>)
 80238d0:	4293      	cmp	r3, r2
 80238d2:	d107      	bne.n	80238e4 <UART_SetConfig+0x114>
 80238d4:	4b6b      	ldr	r3, [pc, #428]	; (8023a84 <UART_SetConfig+0x2b4>)
 80238d6:	6d5b      	ldr	r3, [r3, #84]	; 0x54
 80238d8:	f003 0307 	and.w	r3, r3, #7
 80238dc:	2b05      	cmp	r3, #5
 80238de:	d816      	bhi.n	802390e <UART_SetConfig+0x13e>
 80238e0:	4a75      	ldr	r2, [pc, #468]	; (8023ab8 <UART_SetConfig+0x2e8>)
 80238e2:	e7a8      	b.n	8023836 <UART_SetConfig+0x66>
 80238e4:	4a75      	ldr	r2, [pc, #468]	; (8023abc <UART_SetConfig+0x2ec>)
 80238e6:	4293      	cmp	r3, r2
 80238e8:	d107      	bne.n	80238fa <UART_SetConfig+0x12a>
 80238ea:	4b66      	ldr	r3, [pc, #408]	; (8023a84 <UART_SetConfig+0x2b4>)
 80238ec:	6d5b      	ldr	r3, [r3, #84]	; 0x54
 80238ee:	f003 0307 	and.w	r3, r3, #7
 80238f2:	2b05      	cmp	r3, #5
 80238f4:	d80b      	bhi.n	802390e <UART_SetConfig+0x13e>
 80238f6:	4a72      	ldr	r2, [pc, #456]	; (8023ac0 <UART_SetConfig+0x2f0>)
 80238f8:	e79d      	b.n	8023836 <UART_SetConfig+0x66>
 80238fa:	4a60      	ldr	r2, [pc, #384]	; (8023a7c <UART_SetConfig+0x2ac>)
 80238fc:	4293      	cmp	r3, r2
 80238fe:	d106      	bne.n	802390e <UART_SetConfig+0x13e>
 8023900:	f502 320e 	add.w	r2, r2, #145408	; 0x23800
 8023904:	6d93      	ldr	r3, [r2, #88]	; 0x58
 8023906:	f003 0307 	and.w	r3, r3, #7
 802390a:	2b05      	cmp	r3, #5
 802390c:	d901      	bls.n	8023912 <UART_SetConfig+0x142>
 802390e:	2001      	movs	r0, #1
 8023910:	e00e      	b.n	8023930 <UART_SetConfig+0x160>
 8023912:	496c      	ldr	r1, [pc, #432]	; (8023ac4 <UART_SetConfig+0x2f4>)
 8023914:	5ccb      	ldrb	r3, [r1, r3]
 8023916:	2b10      	cmp	r3, #16
 8023918:	d023      	beq.n	8023962 <UART_SetConfig+0x192>
 802391a:	d811      	bhi.n	8023940 <UART_SetConfig+0x170>
 802391c:	2b04      	cmp	r3, #4
 802391e:	d016      	beq.n	802394e <UART_SetConfig+0x17e>
 8023920:	2b08      	cmp	r3, #8
 8023922:	d019      	beq.n	8023958 <UART_SetConfig+0x188>
 8023924:	2b02      	cmp	r3, #2
 8023926:	d1f2      	bne.n	802390e <UART_SetConfig+0x13e>
 8023928:	f7ff fb02 	bl	8022f30 <HAL_RCCEx_GetD3PCLK1Freq>
 802392c:	bb10      	cbnz	r0, 8023974 <UART_SetConfig+0x1a4>
 802392e:	2000      	movs	r0, #0
 8023930:	f04f 1301 	mov.w	r3, #65537	; 0x10001
 8023934:	66a3      	str	r3, [r4, #104]	; 0x68
 8023936:	2300      	movs	r3, #0
 8023938:	e9c4 331c 	strd	r3, r3, [r4, #112]	; 0x70
 802393c:	b007      	add	sp, #28
 802393e:	bdf0      	pop	{r4, r5, r6, r7, pc}
 8023940:	2b20      	cmp	r3, #32
 8023942:	d03d      	beq.n	80239c0 <UART_SetConfig+0x1f0>
 8023944:	2b40      	cmp	r3, #64	; 0x40
 8023946:	d1e2      	bne.n	802390e <UART_SetConfig+0x13e>
 8023948:	f44f 4000 	mov.w	r0, #32768	; 0x8000
 802394c:	e012      	b.n	8023974 <UART_SetConfig+0x1a4>
 802394e:	4668      	mov	r0, sp
 8023950:	f7ff fb00 	bl	8022f54 <HAL_RCCEx_GetPLL2ClockFreq>
 8023954:	9801      	ldr	r0, [sp, #4]
 8023956:	e7e9      	b.n	802392c <UART_SetConfig+0x15c>
 8023958:	a803      	add	r0, sp, #12
 802395a:	f7ff fba3 	bl	80230a4 <HAL_RCCEx_GetPLL3ClockFreq>
 802395e:	9804      	ldr	r0, [sp, #16]
 8023960:	e7e4      	b.n	802392c <UART_SetConfig+0x15c>
 8023962:	6813      	ldr	r3, [r2, #0]
 8023964:	4858      	ldr	r0, [pc, #352]	; (8023ac8 <UART_SetConfig+0x2f8>)
 8023966:	f013 0f20 	tst.w	r3, #32
 802396a:	d003      	beq.n	8023974 <UART_SetConfig+0x1a4>
 802396c:	6813      	ldr	r3, [r2, #0]
 802396e:	f3c3 03c1 	ubfx	r3, r3, #3, #2
 8023972:	40d8      	lsrs	r0, r3
 8023974:	4b55      	ldr	r3, [pc, #340]	; (8023acc <UART_SetConfig+0x2fc>)
 8023976:	6a62      	ldr	r2, [r4, #36]	; 0x24
 8023978:	6865      	ldr	r5, [r4, #4]
 802397a:	f833 2012 	ldrh.w	r2, [r3, r2, lsl #1]
 802397e:	eb05 0145 	add.w	r1, r5, r5, lsl #1
 8023982:	fbb0 f3f2 	udiv	r3, r0, r2
 8023986:	4299      	cmp	r1, r3
 8023988:	d8c1      	bhi.n	802390e <UART_SetConfig+0x13e>
 802398a:	ebb3 3f05 	cmp.w	r3, r5, lsl #12
 802398e:	d8be      	bhi.n	802390e <UART_SetConfig+0x13e>
 8023990:	2300      	movs	r3, #0
 8023992:	2100      	movs	r1, #0
 8023994:	f7fc fdfc 	bl	8020590 <__aeabi_uldivmod>
 8023998:	462a      	mov	r2, r5
 802399a:	020f      	lsls	r7, r1, #8
 802399c:	2300      	movs	r3, #0
 802399e:	0206      	lsls	r6, r0, #8
 80239a0:	ea47 6710 	orr.w	r7, r7, r0, lsr #24
 80239a4:	0868      	lsrs	r0, r5, #1
 80239a6:	1830      	adds	r0, r6, r0
 80239a8:	f147 0100 	adc.w	r1, r7, #0
 80239ac:	f7fc fdf0 	bl	8020590 <__aeabi_uldivmod>
 80239b0:	4b47      	ldr	r3, [pc, #284]	; (8023ad0 <UART_SetConfig+0x300>)
 80239b2:	f5a0 7240 	sub.w	r2, r0, #768	; 0x300
 80239b6:	429a      	cmp	r2, r3
 80239b8:	d8a9      	bhi.n	802390e <UART_SetConfig+0x13e>
 80239ba:	6823      	ldr	r3, [r4, #0]
 80239bc:	60d8      	str	r0, [r3, #12]
 80239be:	e7b6      	b.n	802392e <UART_SetConfig+0x15e>
 80239c0:	4844      	ldr	r0, [pc, #272]	; (8023ad4 <UART_SetConfig+0x304>)
 80239c2:	e7d7      	b.n	8023974 <UART_SetConfig+0x1a4>
 80239c4:	2b20      	cmp	r3, #32
 80239c6:	d03b      	beq.n	8023a40 <UART_SetConfig+0x270>
 80239c8:	2b40      	cmp	r3, #64	; 0x40
 80239ca:	d00b      	beq.n	80239e4 <UART_SetConfig+0x214>
 80239cc:	2b10      	cmp	r3, #16
 80239ce:	d19e      	bne.n	802390e <UART_SetConfig+0x13e>
 80239d0:	4b2c      	ldr	r3, [pc, #176]	; (8023a84 <UART_SetConfig+0x2b4>)
 80239d2:	483d      	ldr	r0, [pc, #244]	; (8023ac8 <UART_SetConfig+0x2f8>)
 80239d4:	681a      	ldr	r2, [r3, #0]
 80239d6:	f012 0f20 	tst.w	r2, #32
 80239da:	d003      	beq.n	80239e4 <UART_SetConfig+0x214>
 80239dc:	681b      	ldr	r3, [r3, #0]
 80239de:	f3c3 03c1 	ubfx	r3, r3, #3, #2
 80239e2:	40d8      	lsrs	r0, r3
 80239e4:	6a61      	ldr	r1, [r4, #36]	; 0x24
 80239e6:	4b39      	ldr	r3, [pc, #228]	; (8023acc <UART_SetConfig+0x2fc>)
 80239e8:	6862      	ldr	r2, [r4, #4]
 80239ea:	f833 3011 	ldrh.w	r3, [r3, r1, lsl #1]
 80239ee:	fbb0 f3f3 	udiv	r3, r0, r3
 80239f2:	0850      	lsrs	r0, r2, #1
 80239f4:	eb00 0043 	add.w	r0, r0, r3, lsl #1
 80239f8:	fbb0 f0f2 	udiv	r0, r0, r2
 80239fc:	b283      	uxth	r3, r0
 80239fe:	f64f 72ef 	movw	r2, #65519	; 0xffef
 8023a02:	f1a3 0110 	sub.w	r1, r3, #16
 8023a06:	4291      	cmp	r1, r2
 8023a08:	d881      	bhi.n	802390e <UART_SetConfig+0x13e>
 8023a0a:	f020 000f 	bic.w	r0, r0, #15
 8023a0e:	f3c3 0342 	ubfx	r3, r3, #1, #3
 8023a12:	6822      	ldr	r2, [r4, #0]
 8023a14:	b280      	uxth	r0, r0
 8023a16:	4318      	orrs	r0, r3
 8023a18:	60d0      	str	r0, [r2, #12]
 8023a1a:	e788      	b.n	802392e <UART_SetConfig+0x15e>
 8023a1c:	f7fe fcbe 	bl	802239c <HAL_RCC_GetPCLK1Freq>
 8023a20:	2800      	cmp	r0, #0
 8023a22:	d084      	beq.n	802392e <UART_SetConfig+0x15e>
 8023a24:	e7de      	b.n	80239e4 <UART_SetConfig+0x214>
 8023a26:	f7fe fccb 	bl	80223c0 <HAL_RCC_GetPCLK2Freq>
 8023a2a:	e7f9      	b.n	8023a20 <UART_SetConfig+0x250>
 8023a2c:	4668      	mov	r0, sp
 8023a2e:	f7ff fa91 	bl	8022f54 <HAL_RCCEx_GetPLL2ClockFreq>
 8023a32:	9801      	ldr	r0, [sp, #4]
 8023a34:	e7f4      	b.n	8023a20 <UART_SetConfig+0x250>
 8023a36:	a803      	add	r0, sp, #12
 8023a38:	f7ff fb34 	bl	80230a4 <HAL_RCCEx_GetPLL3ClockFreq>
 8023a3c:	9804      	ldr	r0, [sp, #16]
 8023a3e:	e7ef      	b.n	8023a20 <UART_SetConfig+0x250>
 8023a40:	4824      	ldr	r0, [pc, #144]	; (8023ad4 <UART_SetConfig+0x304>)
 8023a42:	e7cf      	b.n	80239e4 <UART_SetConfig+0x214>
 8023a44:	2b08      	cmp	r3, #8
 8023a46:	d847      	bhi.n	8023ad8 <UART_SetConfig+0x308>
 8023a48:	2b08      	cmp	r3, #8
 8023a4a:	f63f af60 	bhi.w	802390e <UART_SetConfig+0x13e>
 8023a4e:	a201      	add	r2, pc, #4	; (adr r2, 8023a54 <UART_SetConfig+0x284>)
 8023a50:	f852 f023 	ldr.w	pc, [r2, r3, lsl #2]
 8023a54:	08023b29 	.word	0x08023b29
 8023a58:	08023b35 	.word	0x08023b35
 8023a5c:	0802390f 	.word	0x0802390f
 8023a60:	0802390f 	.word	0x0802390f
 8023a64:	08023b3b 	.word	0x08023b3b
 8023a68:	0802390f 	.word	0x0802390f
 8023a6c:	0802390f 	.word	0x0802390f
 8023a70:	0802390f 	.word	0x0802390f
 8023a74:	08023b45 	.word	0x08023b45
 8023a78:	cfff69f3 	.word	0xcfff69f3
 8023a7c:	58000c00 	.word	0x58000c00
 8023a80:	40011000 	.word	0x40011000
 8023a84:	58024400 	.word	0x58024400
 8023a88:	08026bb8 	.word	0x08026bb8
 8023a8c:	40004400 	.word	0x40004400
 8023a90:	08026be1 	.word	0x08026be1
 8023a94:	40004800 	.word	0x40004800
 8023a98:	08026be1 	.word	0x08026be1
 8023a9c:	40004c00 	.word	0x40004c00
 8023aa0:	08026be1 	.word	0x08026be1
 8023aa4:	40005000 	.word	0x40005000
 8023aa8:	08026be1 	.word	0x08026be1
 8023aac:	40011400 	.word	0x40011400
 8023ab0:	08026bb8 	.word	0x08026bb8
 8023ab4:	40007800 	.word	0x40007800
 8023ab8:	08026be1 	.word	0x08026be1
 8023abc:	40007c00 	.word	0x40007c00
 8023ac0:	08026be1 	.word	0x08026be1
 8023ac4:	08026be7 	.word	0x08026be7
 8023ac8:	03d09000 	.word	0x03d09000
 8023acc:	08026bee 	.word	0x08026bee
 8023ad0:	000ffcff 	.word	0x000ffcff
 8023ad4:	003d0900 	.word	0x003d0900
 8023ad8:	2b20      	cmp	r3, #32
 8023ada:	d038      	beq.n	8023b4e <UART_SetConfig+0x37e>
 8023adc:	2b40      	cmp	r3, #64	; 0x40
 8023ade:	d038      	beq.n	8023b52 <UART_SetConfig+0x382>
 8023ae0:	2b10      	cmp	r3, #16
 8023ae2:	f47f af14 	bne.w	802390e <UART_SetConfig+0x13e>
 8023ae6:	4a1d      	ldr	r2, [pc, #116]	; (8023b5c <UART_SetConfig+0x38c>)
 8023ae8:	6813      	ldr	r3, [r2, #0]
 8023aea:	f013 0f20 	tst.w	r3, #32
 8023aee:	4b1c      	ldr	r3, [pc, #112]	; (8023b60 <UART_SetConfig+0x390>)
 8023af0:	d032      	beq.n	8023b58 <UART_SetConfig+0x388>
 8023af2:	6810      	ldr	r0, [r2, #0]
 8023af4:	f3c0 00c1 	ubfx	r0, r0, #3, #2
 8023af8:	fa23 f000 	lsr.w	r0, r3, r0
 8023afc:	6a61      	ldr	r1, [r4, #36]	; 0x24
 8023afe:	4b19      	ldr	r3, [pc, #100]	; (8023b64 <UART_SetConfig+0x394>)
 8023b00:	6862      	ldr	r2, [r4, #4]
 8023b02:	f833 3011 	ldrh.w	r3, [r3, r1, lsl #1]
 8023b06:	fbb0 f3f3 	udiv	r3, r0, r3
 8023b0a:	eb03 0352 	add.w	r3, r3, r2, lsr #1
 8023b0e:	fbb3 f3f2 	udiv	r3, r3, r2
 8023b12:	b29b      	uxth	r3, r3
 8023b14:	f64f 72ef 	movw	r2, #65519	; 0xffef
 8023b18:	f1a3 0110 	sub.w	r1, r3, #16
 8023b1c:	4291      	cmp	r1, r2
 8023b1e:	f63f aef6 	bhi.w	802390e <UART_SetConfig+0x13e>
 8023b22:	6822      	ldr	r2, [r4, #0]
 8023b24:	60d3      	str	r3, [r2, #12]
 8023b26:	e702      	b.n	802392e <UART_SetConfig+0x15e>
 8023b28:	f7fe fc38 	bl	802239c <HAL_RCC_GetPCLK1Freq>
 8023b2c:	2800      	cmp	r0, #0
 8023b2e:	f43f aefe 	beq.w	802392e <UART_SetConfig+0x15e>
 8023b32:	e7e3      	b.n	8023afc <UART_SetConfig+0x32c>
 8023b34:	f7fe fc44 	bl	80223c0 <HAL_RCC_GetPCLK2Freq>
 8023b38:	e7f8      	b.n	8023b2c <UART_SetConfig+0x35c>
 8023b3a:	4668      	mov	r0, sp
 8023b3c:	f7ff fa0a 	bl	8022f54 <HAL_RCCEx_GetPLL2ClockFreq>
 8023b40:	9801      	ldr	r0, [sp, #4]
 8023b42:	e7f3      	b.n	8023b2c <UART_SetConfig+0x35c>
 8023b44:	a803      	add	r0, sp, #12
 8023b46:	f7ff faad 	bl	80230a4 <HAL_RCCEx_GetPLL3ClockFreq>
 8023b4a:	9804      	ldr	r0, [sp, #16]
 8023b4c:	e7ee      	b.n	8023b2c <UART_SetConfig+0x35c>
 8023b4e:	4806      	ldr	r0, [pc, #24]	; (8023b68 <UART_SetConfig+0x398>)
 8023b50:	e7d4      	b.n	8023afc <UART_SetConfig+0x32c>
 8023b52:	f44f 4000 	mov.w	r0, #32768	; 0x8000
 8023b56:	e7d1      	b.n	8023afc <UART_SetConfig+0x32c>
 8023b58:	4618      	mov	r0, r3
 8023b5a:	e7cf      	b.n	8023afc <UART_SetConfig+0x32c>
 8023b5c:	58024400 	.word	0x58024400
 8023b60:	03d09000 	.word	0x03d09000
 8023b64:	08026bee 	.word	0x08026bee
 8023b68:	003d0900 	.word	0x003d0900

08023b6c <UART_AdvFeatureConfig>:
 8023b6c:	6a83      	ldr	r3, [r0, #40]	; 0x28
 8023b6e:	07da      	lsls	r2, r3, #31
 8023b70:	b510      	push	{r4, lr}
 8023b72:	d506      	bpl.n	8023b82 <UART_AdvFeatureConfig+0x16>
 8023b74:	6801      	ldr	r1, [r0, #0]
 8023b76:	6ac4      	ldr	r4, [r0, #44]	; 0x2c
 8023b78:	684a      	ldr	r2, [r1, #4]
 8023b7a:	f422 3200 	bic.w	r2, r2, #131072	; 0x20000
 8023b7e:	4322      	orrs	r2, r4
 8023b80:	604a      	str	r2, [r1, #4]
 8023b82:	079c      	lsls	r4, r3, #30
 8023b84:	d506      	bpl.n	8023b94 <UART_AdvFeatureConfig+0x28>
 8023b86:	6801      	ldr	r1, [r0, #0]
 8023b88:	6b04      	ldr	r4, [r0, #48]	; 0x30
 8023b8a:	684a      	ldr	r2, [r1, #4]
 8023b8c:	f422 3280 	bic.w	r2, r2, #65536	; 0x10000
 8023b90:	4322      	orrs	r2, r4
 8023b92:	604a      	str	r2, [r1, #4]
 8023b94:	0759      	lsls	r1, r3, #29
 8023b96:	d506      	bpl.n	8023ba6 <UART_AdvFeatureConfig+0x3a>
 8023b98:	6801      	ldr	r1, [r0, #0]
 8023b9a:	6b44      	ldr	r4, [r0, #52]	; 0x34
 8023b9c:	684a      	ldr	r2, [r1, #4]
 8023b9e:	f422 2280 	bic.w	r2, r2, #262144	; 0x40000
 8023ba2:	4322      	orrs	r2, r4
 8023ba4:	604a      	str	r2, [r1, #4]
 8023ba6:	071a      	lsls	r2, r3, #28
 8023ba8:	d506      	bpl.n	8023bb8 <UART_AdvFeatureConfig+0x4c>
 8023baa:	6801      	ldr	r1, [r0, #0]
 8023bac:	6b84      	ldr	r4, [r0, #56]	; 0x38
 8023bae:	684a      	ldr	r2, [r1, #4]
 8023bb0:	f422 4200 	bic.w	r2, r2, #32768	; 0x8000
 8023bb4:	4322      	orrs	r2, r4
 8023bb6:	604a      	str	r2, [r1, #4]
 8023bb8:	06dc      	lsls	r4, r3, #27
 8023bba:	d506      	bpl.n	8023bca <UART_AdvFeatureConfig+0x5e>
 8023bbc:	6801      	ldr	r1, [r0, #0]
 8023bbe:	6bc4      	ldr	r4, [r0, #60]	; 0x3c
 8023bc0:	688a      	ldr	r2, [r1, #8]
 8023bc2:	f422 5280 	bic.w	r2, r2, #4096	; 0x1000
 8023bc6:	4322      	orrs	r2, r4
 8023bc8:	608a      	str	r2, [r1, #8]
 8023bca:	0699      	lsls	r1, r3, #26
 8023bcc:	d506      	bpl.n	8023bdc <UART_AdvFeatureConfig+0x70>
 8023bce:	6801      	ldr	r1, [r0, #0]
 8023bd0:	6c04      	ldr	r4, [r0, #64]	; 0x40
 8023bd2:	688a      	ldr	r2, [r1, #8]
 8023bd4:	f422 5200 	bic.w	r2, r2, #8192	; 0x2000
 8023bd8:	4322      	orrs	r2, r4
 8023bda:	608a      	str	r2, [r1, #8]
 8023bdc:	065a      	lsls	r2, r3, #25
 8023bde:	d510      	bpl.n	8023c02 <UART_AdvFeatureConfig+0x96>
 8023be0:	6801      	ldr	r1, [r0, #0]
 8023be2:	6c44      	ldr	r4, [r0, #68]	; 0x44
 8023be4:	684a      	ldr	r2, [r1, #4]
 8023be6:	f5b4 1f80 	cmp.w	r4, #1048576	; 0x100000
 8023bea:	f422 1280 	bic.w	r2, r2, #1048576	; 0x100000
 8023bee:	ea42 0204 	orr.w	r2, r2, r4
 8023bf2:	604a      	str	r2, [r1, #4]
 8023bf4:	d105      	bne.n	8023c02 <UART_AdvFeatureConfig+0x96>
 8023bf6:	684a      	ldr	r2, [r1, #4]
 8023bf8:	6c84      	ldr	r4, [r0, #72]	; 0x48
 8023bfa:	f422 02c0 	bic.w	r2, r2, #6291456	; 0x600000
 8023bfe:	4322      	orrs	r2, r4
 8023c00:	604a      	str	r2, [r1, #4]
 8023c02:	061b      	lsls	r3, r3, #24
 8023c04:	d506      	bpl.n	8023c14 <UART_AdvFeatureConfig+0xa8>
 8023c06:	6802      	ldr	r2, [r0, #0]
 8023c08:	6cc1      	ldr	r1, [r0, #76]	; 0x4c
 8023c0a:	6853      	ldr	r3, [r2, #4]
 8023c0c:	f423 2300 	bic.w	r3, r3, #524288	; 0x80000
 8023c10:	430b      	orrs	r3, r1
 8023c12:	6053      	str	r3, [r2, #4]
 8023c14:	bd10      	pop	{r4, pc}

08023c16 <UART_WaitOnFlagUntilTimeout>:
 8023c16:	e92d 41f0 	stmdb	sp!, {r4, r5, r6, r7, r8, lr}
 8023c1a:	f8dd 8018 	ldr.w	r8, [sp, #24]
 8023c1e:	4604      	mov	r4, r0
 8023c20:	460e      	mov	r6, r1
 8023c22:	4615      	mov	r5, r2
 8023c24:	461f      	mov	r7, r3
 8023c26:	6822      	ldr	r2, [r4, #0]
 8023c28:	69d3      	ldr	r3, [r2, #28]
 8023c2a:	ea36 0303 	bics.w	r3, r6, r3
 8023c2e:	bf0c      	ite	eq
 8023c30:	2301      	moveq	r3, #1
 8023c32:	2300      	movne	r3, #0
 8023c34:	42ab      	cmp	r3, r5
 8023c36:	d001      	beq.n	8023c3c <UART_WaitOnFlagUntilTimeout+0x26>
 8023c38:	2000      	movs	r0, #0
 8023c3a:	e01c      	b.n	8023c76 <UART_WaitOnFlagUntilTimeout+0x60>
 8023c3c:	f1b8 3fff 	cmp.w	r8, #4294967295	; 0xffffffff
 8023c40:	d0f2      	beq.n	8023c28 <UART_WaitOnFlagUntilTimeout+0x12>
 8023c42:	f7fd fb2b 	bl	802129c <HAL_GetTick>
 8023c46:	1bc0      	subs	r0, r0, r7
 8023c48:	4540      	cmp	r0, r8
 8023c4a:	6820      	ldr	r0, [r4, #0]
 8023c4c:	6803      	ldr	r3, [r0, #0]
 8023c4e:	d802      	bhi.n	8023c56 <UART_WaitOnFlagUntilTimeout+0x40>
 8023c50:	f1b8 0f00 	cmp.w	r8, #0
 8023c54:	d111      	bne.n	8023c7a <UART_WaitOnFlagUntilTimeout+0x64>
 8023c56:	f423 73d0 	bic.w	r3, r3, #416	; 0x1a0
 8023c5a:	6003      	str	r3, [r0, #0]
 8023c5c:	6883      	ldr	r3, [r0, #8]
 8023c5e:	f023 0301 	bic.w	r3, r3, #1
 8023c62:	6083      	str	r3, [r0, #8]
 8023c64:	2320      	movs	r3, #32
 8023c66:	f8c4 3084 	str.w	r3, [r4, #132]	; 0x84
 8023c6a:	f8c4 3088 	str.w	r3, [r4, #136]	; 0x88
 8023c6e:	2300      	movs	r3, #0
 8023c70:	2003      	movs	r0, #3
 8023c72:	f884 3080 	strb.w	r3, [r4, #128]	; 0x80
 8023c76:	e8bd 81f0 	ldmia.w	sp!, {r4, r5, r6, r7, r8, pc}
 8023c7a:	075a      	lsls	r2, r3, #29
 8023c7c:	d5d3      	bpl.n	8023c26 <UART_WaitOnFlagUntilTimeout+0x10>
 8023c7e:	69c3      	ldr	r3, [r0, #28]
 8023c80:	051b      	lsls	r3, r3, #20
 8023c82:	d5d0      	bpl.n	8023c26 <UART_WaitOnFlagUntilTimeout+0x10>
 8023c84:	f44f 6300 	mov.w	r3, #2048	; 0x800
 8023c88:	6203      	str	r3, [r0, #32]
 8023c8a:	6803      	ldr	r3, [r0, #0]
 8023c8c:	f423 73d0 	bic.w	r3, r3, #416	; 0x1a0
 8023c90:	6003      	str	r3, [r0, #0]
 8023c92:	6883      	ldr	r3, [r0, #8]
 8023c94:	f023 0301 	bic.w	r3, r3, #1
 8023c98:	6083      	str	r3, [r0, #8]
 8023c9a:	2320      	movs	r3, #32
 8023c9c:	f8c4 3084 	str.w	r3, [r4, #132]	; 0x84
 8023ca0:	f8c4 3088 	str.w	r3, [r4, #136]	; 0x88
 8023ca4:	f8c4 308c 	str.w	r3, [r4, #140]	; 0x8c
 8023ca8:	e7e1      	b.n	8023c6e <UART_WaitOnFlagUntilTimeout+0x58>

08023caa <UART_CheckIdleState>:
 8023caa:	b530      	push	{r4, r5, lr}
 8023cac:	2500      	movs	r5, #0
 8023cae:	4604      	mov	r4, r0
 8023cb0:	b085      	sub	sp, #20
 8023cb2:	f8c0 508c 	str.w	r5, [r0, #140]	; 0x8c
 8023cb6:	f7fd faf1 	bl	802129c <HAL_GetTick>
 8023cba:	6822      	ldr	r2, [r4, #0]
 8023cbc:	4603      	mov	r3, r0
 8023cbe:	6812      	ldr	r2, [r2, #0]
 8023cc0:	0711      	lsls	r1, r2, #28
 8023cc2:	d417      	bmi.n	8023cf4 <UART_CheckIdleState+0x4a>
 8023cc4:	6822      	ldr	r2, [r4, #0]
 8023cc6:	6812      	ldr	r2, [r2, #0]
 8023cc8:	0752      	lsls	r2, r2, #29
 8023cca:	d509      	bpl.n	8023ce0 <UART_CheckIdleState+0x36>
 8023ccc:	f06f 427e 	mvn.w	r2, #4261412864	; 0xfe000000
 8023cd0:	f44f 0180 	mov.w	r1, #4194304	; 0x400000
 8023cd4:	4620      	mov	r0, r4
 8023cd6:	9200      	str	r2, [sp, #0]
 8023cd8:	2200      	movs	r2, #0
 8023cda:	f7ff ff9c 	bl	8023c16 <UART_WaitOnFlagUntilTimeout>
 8023cde:	b9b0      	cbnz	r0, 8023d0e <UART_CheckIdleState+0x64>
 8023ce0:	2320      	movs	r3, #32
 8023ce2:	2000      	movs	r0, #0
 8023ce4:	f8c4 3084 	str.w	r3, [r4, #132]	; 0x84
 8023ce8:	f884 0080 	strb.w	r0, [r4, #128]	; 0x80
 8023cec:	f8c4 3088 	str.w	r3, [r4, #136]	; 0x88
 8023cf0:	66e0      	str	r0, [r4, #108]	; 0x6c
 8023cf2:	e00d      	b.n	8023d10 <UART_CheckIdleState+0x66>
 8023cf4:	f06f 427e 	mvn.w	r2, #4261412864	; 0xfe000000
 8023cf8:	9003      	str	r0, [sp, #12]
 8023cfa:	f44f 1100 	mov.w	r1, #2097152	; 0x200000
 8023cfe:	4620      	mov	r0, r4
 8023d00:	9200      	str	r2, [sp, #0]
 8023d02:	462a      	mov	r2, r5
 8023d04:	f7ff ff87 	bl	8023c16 <UART_WaitOnFlagUntilTimeout>
 8023d08:	9b03      	ldr	r3, [sp, #12]
 8023d0a:	2800      	cmp	r0, #0
 8023d0c:	d0da      	beq.n	8023cc4 <UART_CheckIdleState+0x1a>
 8023d0e:	2003      	movs	r0, #3
 8023d10:	b005      	add	sp, #20
 8023d12:	bd30      	pop	{r4, r5, pc}

08023d14 <HAL_UART_Init>:
 8023d14:	b510      	push	{r4, lr}
 8023d16:	4604      	mov	r4, r0
 8023d18:	b350      	cbz	r0, 8023d70 <HAL_UART_Init+0x5c>
 8023d1a:	f8d0 3084 	ldr.w	r3, [r0, #132]	; 0x84
 8023d1e:	b91b      	cbnz	r3, 8023d28 <HAL_UART_Init+0x14>
 8023d20:	f880 3080 	strb.w	r3, [r0, #128]	; 0x80
 8023d24:	f7fd f932 	bl	8020f8c <HAL_UART_MspInit>
 8023d28:	6822      	ldr	r2, [r4, #0]
 8023d2a:	2324      	movs	r3, #36	; 0x24
 8023d2c:	4620      	mov	r0, r4
 8023d2e:	f8c4 3084 	str.w	r3, [r4, #132]	; 0x84
 8023d32:	6813      	ldr	r3, [r2, #0]
 8023d34:	f023 0301 	bic.w	r3, r3, #1
 8023d38:	6013      	str	r3, [r2, #0]
 8023d3a:	f7ff fd49 	bl	80237d0 <UART_SetConfig>
 8023d3e:	2801      	cmp	r0, #1
 8023d40:	d016      	beq.n	8023d70 <HAL_UART_Init+0x5c>
 8023d42:	6aa3      	ldr	r3, [r4, #40]	; 0x28
 8023d44:	b113      	cbz	r3, 8023d4c <HAL_UART_Init+0x38>
 8023d46:	4620      	mov	r0, r4
 8023d48:	f7ff ff10 	bl	8023b6c <UART_AdvFeatureConfig>
 8023d4c:	6823      	ldr	r3, [r4, #0]
 8023d4e:	4620      	mov	r0, r4
 8023d50:	685a      	ldr	r2, [r3, #4]
 8023d52:	f422 4290 	bic.w	r2, r2, #18432	; 0x4800
 8023d56:	605a      	str	r2, [r3, #4]
 8023d58:	689a      	ldr	r2, [r3, #8]
 8023d5a:	f022 022a 	bic.w	r2, r2, #42	; 0x2a
 8023d5e:	609a      	str	r2, [r3, #8]
 8023d60:	681a      	ldr	r2, [r3, #0]
 8023d62:	f042 0201 	orr.w	r2, r2, #1
 8023d66:	e8bd 4010 	ldmia.w	sp!, {r4, lr}
 8023d6a:	601a      	str	r2, [r3, #0]
 8023d6c:	f7ff bf9d 	b.w	8023caa <UART_CheckIdleState>
 8023d70:	2001      	movs	r0, #1
 8023d72:	bd10      	pop	{r4, pc}

08023d74 <UARTEx_SetNbDataToProcess>:
 8023d74:	6e43      	ldr	r3, [r0, #100]	; 0x64
 8023d76:	b530      	push	{r4, r5, lr}
 8023d78:	b91b      	cbnz	r3, 8023d82 <UARTEx_SetNbDataToProcess+0xe>
 8023d7a:	f04f 1301 	mov.w	r3, #65537	; 0x10001
 8023d7e:	6683      	str	r3, [r0, #104]	; 0x68
 8023d80:	bd30      	pop	{r4, r5, pc}
 8023d82:	6803      	ldr	r3, [r0, #0]
 8023d84:	4d0a      	ldr	r5, [pc, #40]	; (8023db0 <UARTEx_SetNbDataToProcess+0x3c>)
 8023d86:	689a      	ldr	r2, [r3, #8]
 8023d88:	6899      	ldr	r1, [r3, #8]
 8023d8a:	4c0a      	ldr	r4, [pc, #40]	; (8023db4 <UARTEx_SetNbDataToProcess+0x40>)
 8023d8c:	f3c2 6242 	ubfx	r2, r2, #25, #3
 8023d90:	0f49      	lsrs	r1, r1, #29
 8023d92:	5c6b      	ldrb	r3, [r5, r1]
 8023d94:	5c61      	ldrb	r1, [r4, r1]
 8023d96:	011b      	lsls	r3, r3, #4
 8023d98:	fbb3 f3f1 	udiv	r3, r3, r1
 8023d9c:	f8a0 306a 	strh.w	r3, [r0, #106]	; 0x6a
 8023da0:	5cab      	ldrb	r3, [r5, r2]
 8023da2:	5ca2      	ldrb	r2, [r4, r2]
 8023da4:	011b      	lsls	r3, r3, #4
 8023da6:	fbb3 f3f2 	udiv	r3, r3, r2
 8023daa:	f8a0 3068 	strh.w	r3, [r0, #104]	; 0x68
 8023dae:	e7e7      	b.n	8023d80 <UARTEx_SetNbDataToProcess+0xc>
 8023db0:	08026c0e 	.word	0x08026c0e
 8023db4:	08026c06 	.word	0x08026c06

08023db8 <HAL_UARTEx_DisableFifoMode>:
 8023db8:	f890 3080 	ldrb.w	r3, [r0, #128]	; 0x80
 8023dbc:	2b01      	cmp	r3, #1
 8023dbe:	d014      	beq.n	8023dea <HAL_UARTEx_DisableFifoMode+0x32>
 8023dc0:	6802      	ldr	r2, [r0, #0]
 8023dc2:	2324      	movs	r3, #36	; 0x24
 8023dc4:	f8c0 3084 	str.w	r3, [r0, #132]	; 0x84
 8023dc8:	6811      	ldr	r1, [r2, #0]
 8023dca:	6813      	ldr	r3, [r2, #0]
 8023dcc:	f021 5100 	bic.w	r1, r1, #536870912	; 0x20000000
 8023dd0:	f023 0301 	bic.w	r3, r3, #1
 8023dd4:	6013      	str	r3, [r2, #0]
 8023dd6:	2300      	movs	r3, #0
 8023dd8:	6643      	str	r3, [r0, #100]	; 0x64
 8023dda:	6011      	str	r1, [r2, #0]
 8023ddc:	2220      	movs	r2, #32
 8023dde:	f880 3080 	strb.w	r3, [r0, #128]	; 0x80
 8023de2:	f8c0 2084 	str.w	r2, [r0, #132]	; 0x84
 8023de6:	4618      	mov	r0, r3
 8023de8:	4770      	bx	lr
 8023dea:	2002      	movs	r0, #2
 8023dec:	4770      	bx	lr

08023dee <HAL_UARTEx_SetTxFifoThreshold>:
 8023dee:	b538      	push	{r3, r4, r5, lr}
 8023df0:	f890 3080 	ldrb.w	r3, [r0, #128]	; 0x80
 8023df4:	4604      	mov	r4, r0
 8023df6:	2b01      	cmp	r3, #1
 8023df8:	d01b      	beq.n	8023e32 <HAL_UARTEx_SetTxFifoThreshold+0x44>
 8023dfa:	2301      	movs	r3, #1
 8023dfc:	f880 3080 	strb.w	r3, [r0, #128]	; 0x80
 8023e00:	2324      	movs	r3, #36	; 0x24
 8023e02:	f8c0 3084 	str.w	r3, [r0, #132]	; 0x84
 8023e06:	6803      	ldr	r3, [r0, #0]
 8023e08:	681d      	ldr	r5, [r3, #0]
 8023e0a:	681a      	ldr	r2, [r3, #0]
 8023e0c:	f022 0201 	bic.w	r2, r2, #1
 8023e10:	601a      	str	r2, [r3, #0]
 8023e12:	689a      	ldr	r2, [r3, #8]
 8023e14:	f022 4260 	bic.w	r2, r2, #3758096384	; 0xe0000000
 8023e18:	4311      	orrs	r1, r2
 8023e1a:	6099      	str	r1, [r3, #8]
 8023e1c:	f7ff ffaa 	bl	8023d74 <UARTEx_SetNbDataToProcess>
 8023e20:	6803      	ldr	r3, [r0, #0]
 8023e22:	601d      	str	r5, [r3, #0]
 8023e24:	2320      	movs	r3, #32
 8023e26:	f8c0 3084 	str.w	r3, [r0, #132]	; 0x84
 8023e2a:	2000      	movs	r0, #0
 8023e2c:	f884 0080 	strb.w	r0, [r4, #128]	; 0x80
 8023e30:	bd38      	pop	{r3, r4, r5, pc}
 8023e32:	2002      	movs	r0, #2
 8023e34:	e7fc      	b.n	8023e30 <HAL_UARTEx_SetTxFifoThreshold+0x42>

08023e36 <HAL_UARTEx_SetRxFifoThreshold>:
 8023e36:	b538      	push	{r3, r4, r5, lr}
 8023e38:	f890 3080 	ldrb.w	r3, [r0, #128]	; 0x80
 8023e3c:	4604      	mov	r4, r0
 8023e3e:	2b01      	cmp	r3, #1
 8023e40:	d01b      	beq.n	8023e7a <HAL_UARTEx_SetRxFifoThreshold+0x44>
 8023e42:	2301      	movs	r3, #1
 8023e44:	f880 3080 	strb.w	r3, [r0, #128]	; 0x80
 8023e48:	2324      	movs	r3, #36	; 0x24
 8023e4a:	f8c0 3084 	str.w	r3, [r0, #132]	; 0x84
 8023e4e:	6803      	ldr	r3, [r0, #0]
 8023e50:	681d      	ldr	r5, [r3, #0]
 8023e52:	681a      	ldr	r2, [r3, #0]
 8023e54:	f022 0201 	bic.w	r2, r2, #1
 8023e58:	601a      	str	r2, [r3, #0]
 8023e5a:	689a      	ldr	r2, [r3, #8]
 8023e5c:	f022 6260 	bic.w	r2, r2, #234881024	; 0xe000000
 8023e60:	4311      	orrs	r1, r2
 8023e62:	6099      	str	r1, [r3, #8]
 8023e64:	f7ff ff86 	bl	8023d74 <UARTEx_SetNbDataToProcess>
 8023e68:	6803      	ldr	r3, [r0, #0]
 8023e6a:	601d      	str	r5, [r3, #0]
 8023e6c:	2320      	movs	r3, #32
 8023e6e:	f8c0 3084 	str.w	r3, [r0, #132]	; 0x84
 8023e72:	2000      	movs	r0, #0
 8023e74:	f884 0080 	strb.w	r0, [r4, #128]	; 0x80
 8023e78:	bd38      	pop	{r3, r4, r5, pc}
 8023e7a:	2002      	movs	r0, #2
 8023e7c:	e7fc      	b.n	8023e78 <HAL_UARTEx_SetRxFifoThreshold+0x42>
	...

08023e80 <MX_FATFS_Init>:
 8023e80:	b508      	push	{r3, lr}
 8023e82:	4903      	ldr	r1, [pc, #12]	; (8023e90 <MX_FATFS_Init+0x10>)
 8023e84:	4803      	ldr	r0, [pc, #12]	; (8023e94 <MX_FATFS_Init+0x14>)
 8023e86:	f001 fe01 	bl	8025a8c <FATFS_LinkDriver>
 8023e8a:	4b03      	ldr	r3, [pc, #12]	; (8023e98 <MX_FATFS_Init+0x18>)
 8023e8c:	7018      	strb	r0, [r3, #0]
 8023e8e:	bd08      	pop	{r3, pc}
 8023e90:	20000784 	.word	0x20000784
 8023e94:	20000010 	.word	0x20000010
 8023e98:	20000788 	.word	0x20000788

08023e9c <get_fattime>:
 8023e9c:	2000      	movs	r0, #0
 8023e9e:	4770      	bx	lr

08023ea0 <USER_initialize>:
 8023ea0:	f000 b8f8 	b.w	8024094 <USER_SPI_initialize>

08023ea4 <USER_status>:
 8023ea4:	f000 b99c 	b.w	80241e0 <USER_SPI_status>

08023ea8 <USER_read>:
 8023ea8:	f000 b9a4 	b.w	80241f4 <USER_SPI_read>

08023eac <USER_write>:
 8023eac:	f000 b9e2 	b.w	8024274 <USER_SPI_write>

08023eb0 <USER_ioctl>:
 8023eb0:	f000 ba44 	b.w	802433c <USER_SPI_ioctl>

08023eb4 <xchg_spi>:
 8023eb4:	b57f      	push	{r0, r1, r2, r3, r4, r5, r6, lr}
 8023eb6:	2332      	movs	r3, #50	; 0x32
 8023eb8:	f88d 000f 	strb.w	r0, [sp, #15]
 8023ebc:	f10d 0217 	add.w	r2, sp, #23
 8023ec0:	f10d 010f 	add.w	r1, sp, #15
 8023ec4:	9300      	str	r3, [sp, #0]
 8023ec6:	2301      	movs	r3, #1
 8023ec8:	4803      	ldr	r0, [pc, #12]	; (8023ed8 <xchg_spi+0x24>)
 8023eca:	f7ff fb01 	bl	80234d0 <HAL_SPI_TransmitReceive>
 8023ece:	f89d 0017 	ldrb.w	r0, [sp, #23]
 8023ed2:	b007      	add	sp, #28
 8023ed4:	f85d fb04 	ldr.w	pc, [sp], #4
 8023ed8:	2000063c 	.word	0x2000063c

08023edc <wait_ready>:
 8023edc:	b570      	push	{r4, r5, r6, lr}
 8023ede:	4605      	mov	r5, r0
 8023ee0:	f7fd f9dc 	bl	802129c <HAL_GetTick>
 8023ee4:	4606      	mov	r6, r0
 8023ee6:	20ff      	movs	r0, #255	; 0xff
 8023ee8:	f7ff ffe4 	bl	8023eb4 <xchg_spi>
 8023eec:	28ff      	cmp	r0, #255	; 0xff
 8023eee:	4604      	mov	r4, r0
 8023ef0:	d004      	beq.n	8023efc <wait_ready+0x20>
 8023ef2:	f7fd f9d3 	bl	802129c <HAL_GetTick>
 8023ef6:	1b83      	subs	r3, r0, r6
 8023ef8:	42ab      	cmp	r3, r5
 8023efa:	d3f4      	bcc.n	8023ee6 <wait_ready+0xa>
 8023efc:	f1a4 03ff 	sub.w	r3, r4, #255	; 0xff
 8023f00:	4258      	negs	r0, r3
 8023f02:	4158      	adcs	r0, r3
 8023f04:	bd70      	pop	{r4, r5, r6, pc}
	...

08023f08 <despiselect>:
 8023f08:	4805      	ldr	r0, [pc, #20]	; (8023f20 <despiselect+0x18>)
 8023f0a:	2201      	movs	r2, #1
 8023f0c:	2110      	movs	r1, #16
 8023f0e:	b508      	push	{r3, lr}
 8023f10:	f7fd fd92 	bl	8021a38 <HAL_GPIO_WritePin>
 8023f14:	20ff      	movs	r0, #255	; 0xff
 8023f16:	e8bd 4008 	ldmia.w	sp!, {r3, lr}
 8023f1a:	f7ff bfcb 	b.w	8023eb4 <xchg_spi>
 8023f1e:	bf00      	nop
 8023f20:	58020000 	.word	0x58020000

08023f24 <spiselect>:
 8023f24:	b510      	push	{r4, lr}
 8023f26:	2200      	movs	r2, #0
 8023f28:	2110      	movs	r1, #16
 8023f2a:	4809      	ldr	r0, [pc, #36]	; (8023f50 <spiselect+0x2c>)
 8023f2c:	f7fd fd84 	bl	8021a38 <HAL_GPIO_WritePin>
 8023f30:	20ff      	movs	r0, #255	; 0xff
 8023f32:	f7ff ffbf 	bl	8023eb4 <xchg_spi>
 8023f36:	f44f 70fa 	mov.w	r0, #500	; 0x1f4
 8023f3a:	f7ff ffcf 	bl	8023edc <wait_ready>
 8023f3e:	4604      	mov	r4, r0
 8023f40:	b918      	cbnz	r0, 8023f4a <spiselect+0x26>
 8023f42:	f7ff ffe1 	bl	8023f08 <despiselect>
 8023f46:	4620      	mov	r0, r4
 8023f48:	bd10      	pop	{r4, pc}
 8023f4a:	2401      	movs	r4, #1
 8023f4c:	e7fb      	b.n	8023f46 <spiselect+0x22>
 8023f4e:	bf00      	nop
 8023f50:	58020000 	.word	0x58020000

08023f54 <send_cmd>:
 8023f54:	0602      	lsls	r2, r0, #24
 8023f56:	b538      	push	{r3, r4, r5, lr}
 8023f58:	4604      	mov	r4, r0
 8023f5a:	460d      	mov	r5, r1
 8023f5c:	d507      	bpl.n	8023f6e <send_cmd+0x1a>
 8023f5e:	2100      	movs	r1, #0
 8023f60:	2037      	movs	r0, #55	; 0x37
 8023f62:	f7ff fff7 	bl	8023f54 <send_cmd>
 8023f66:	2801      	cmp	r0, #1
 8023f68:	d82b      	bhi.n	8023fc2 <send_cmd+0x6e>
 8023f6a:	f004 047f 	and.w	r4, r4, #127	; 0x7f
 8023f6e:	2c0c      	cmp	r4, #12
 8023f70:	d128      	bne.n	8023fc4 <send_cmd+0x70>
 8023f72:	f044 0040 	orr.w	r0, r4, #64	; 0x40
 8023f76:	f7ff ff9d 	bl	8023eb4 <xchg_spi>
 8023f7a:	0e28      	lsrs	r0, r5, #24
 8023f7c:	f7ff ff9a 	bl	8023eb4 <xchg_spi>
 8023f80:	f3c5 4007 	ubfx	r0, r5, #16, #8
 8023f84:	f7ff ff96 	bl	8023eb4 <xchg_spi>
 8023f88:	f3c5 2007 	ubfx	r0, r5, #8, #8
 8023f8c:	f7ff ff92 	bl	8023eb4 <xchg_spi>
 8023f90:	b2e8      	uxtb	r0, r5
 8023f92:	f7ff ff8f 	bl	8023eb4 <xchg_spi>
 8023f96:	b1ec      	cbz	r4, 8023fd4 <send_cmd+0x80>
 8023f98:	2c08      	cmp	r4, #8
 8023f9a:	bf14      	ite	ne
 8023f9c:	2001      	movne	r0, #1
 8023f9e:	2087      	moveq	r0, #135	; 0x87
 8023fa0:	f7ff ff88 	bl	8023eb4 <xchg_spi>
 8023fa4:	2c0c      	cmp	r4, #12
 8023fa6:	d102      	bne.n	8023fae <send_cmd+0x5a>
 8023fa8:	20ff      	movs	r0, #255	; 0xff
 8023faa:	f7ff ff83 	bl	8023eb4 <xchg_spi>
 8023fae:	240a      	movs	r4, #10
 8023fb0:	20ff      	movs	r0, #255	; 0xff
 8023fb2:	f7ff ff7f 	bl	8023eb4 <xchg_spi>
 8023fb6:	0603      	lsls	r3, r0, #24
 8023fb8:	d503      	bpl.n	8023fc2 <send_cmd+0x6e>
 8023fba:	3c01      	subs	r4, #1
 8023fbc:	f014 04ff 	ands.w	r4, r4, #255	; 0xff
 8023fc0:	d1f6      	bne.n	8023fb0 <send_cmd+0x5c>
 8023fc2:	bd38      	pop	{r3, r4, r5, pc}
 8023fc4:	f7ff ffa0 	bl	8023f08 <despiselect>
 8023fc8:	f7ff ffac 	bl	8023f24 <spiselect>
 8023fcc:	2800      	cmp	r0, #0
 8023fce:	d1d0      	bne.n	8023f72 <send_cmd+0x1e>
 8023fd0:	20ff      	movs	r0, #255	; 0xff
 8023fd2:	e7f6      	b.n	8023fc2 <send_cmd+0x6e>
 8023fd4:	2095      	movs	r0, #149	; 0x95
 8023fd6:	e7e3      	b.n	8023fa0 <send_cmd+0x4c>

08023fd8 <xmit_datablock.part.0>:
 8023fd8:	b538      	push	{r3, r4, r5, lr}
 8023fda:	1e45      	subs	r5, r0, #1
 8023fdc:	f200 14ff 	addw	r4, r0, #511	; 0x1ff
 8023fe0:	f815 0f01 	ldrb.w	r0, [r5, #1]!
 8023fe4:	f7ff ff66 	bl	8023eb4 <xchg_spi>
 8023fe8:	42a5      	cmp	r5, r4
 8023fea:	d1f9      	bne.n	8023fe0 <xmit_datablock.part.0+0x8>
 8023fec:	20ff      	movs	r0, #255	; 0xff
 8023fee:	f7ff ff61 	bl	8023eb4 <xchg_spi>
 8023ff2:	20ff      	movs	r0, #255	; 0xff
 8023ff4:	f7ff ff5e 	bl	8023eb4 <xchg_spi>
 8023ff8:	20ff      	movs	r0, #255	; 0xff
 8023ffa:	f7ff ff5b 	bl	8023eb4 <xchg_spi>
 8023ffe:	f000 001f 	and.w	r0, r0, #31
 8024002:	1f43      	subs	r3, r0, #5
 8024004:	4258      	negs	r0, r3
 8024006:	4158      	adcs	r0, r3
 8024008:	bd38      	pop	{r3, r4, r5, pc}
	...

0802400c <SPI_Timer_On>:
 802400c:	b510      	push	{r4, lr}
 802400e:	4604      	mov	r4, r0
 8024010:	f7fd f944 	bl	802129c <HAL_GetTick>
 8024014:	4b02      	ldr	r3, [pc, #8]	; (8024020 <SPI_Timer_On+0x14>)
 8024016:	6018      	str	r0, [r3, #0]
 8024018:	4b02      	ldr	r3, [pc, #8]	; (8024024 <SPI_Timer_On+0x18>)
 802401a:	601c      	str	r4, [r3, #0]
 802401c:	bd10      	pop	{r4, pc}
 802401e:	bf00      	nop
 8024020:	200027f0 	.word	0x200027f0
 8024024:	200027f4 	.word	0x200027f4

08024028 <SPI_Timer_Status>:
 8024028:	b508      	push	{r3, lr}
 802402a:	f7fd f937 	bl	802129c <HAL_GetTick>
 802402e:	4b05      	ldr	r3, [pc, #20]	; (8024044 <SPI_Timer_Status+0x1c>)
 8024030:	681b      	ldr	r3, [r3, #0]
 8024032:	1ac0      	subs	r0, r0, r3
 8024034:	4b04      	ldr	r3, [pc, #16]	; (8024048 <SPI_Timer_Status+0x20>)
 8024036:	681b      	ldr	r3, [r3, #0]
 8024038:	4298      	cmp	r0, r3
 802403a:	bf2c      	ite	cs
 802403c:	2000      	movcs	r0, #0
 802403e:	2001      	movcc	r0, #1
 8024040:	bd08      	pop	{r3, pc}
 8024042:	bf00      	nop
 8024044:	200027f0 	.word	0x200027f0
 8024048:	200027f4 	.word	0x200027f4

0802404c <rcvr_datablock>:
 802404c:	b538      	push	{r3, r4, r5, lr}
 802404e:	4604      	mov	r4, r0
 8024050:	20c8      	movs	r0, #200	; 0xc8
 8024052:	460d      	mov	r5, r1
 8024054:	f7ff ffda 	bl	802400c <SPI_Timer_On>
 8024058:	20ff      	movs	r0, #255	; 0xff
 802405a:	f7ff ff2b 	bl	8023eb4 <xchg_spi>
 802405e:	28ff      	cmp	r0, #255	; 0xff
 8024060:	d105      	bne.n	802406e <rcvr_datablock+0x22>
 8024062:	f7ff ffe1 	bl	8024028 <SPI_Timer_Status>
 8024066:	2800      	cmp	r0, #0
 8024068:	d1f6      	bne.n	8024058 <rcvr_datablock+0xc>
 802406a:	2000      	movs	r0, #0
 802406c:	bd38      	pop	{r3, r4, r5, pc}
 802406e:	28fe      	cmp	r0, #254	; 0xfe
 8024070:	d1fb      	bne.n	802406a <rcvr_datablock+0x1e>
 8024072:	4425      	add	r5, r4
 8024074:	20ff      	movs	r0, #255	; 0xff
 8024076:	f7ff ff1d 	bl	8023eb4 <xchg_spi>
 802407a:	f804 0b01 	strb.w	r0, [r4], #1
 802407e:	42a5      	cmp	r5, r4
 8024080:	d1f8      	bne.n	8024074 <rcvr_datablock+0x28>
 8024082:	20ff      	movs	r0, #255	; 0xff
 8024084:	f7ff ff16 	bl	8023eb4 <xchg_spi>
 8024088:	20ff      	movs	r0, #255	; 0xff
 802408a:	f7ff ff13 	bl	8023eb4 <xchg_spi>
 802408e:	2001      	movs	r0, #1
 8024090:	e7ec      	b.n	802406c <rcvr_datablock+0x20>
	...

08024094 <USER_SPI_initialize>:
 8024094:	e92d 41f3 	stmdb	sp!, {r0, r1, r4, r5, r6, r7, r8, lr}
 8024098:	2800      	cmp	r0, #0
 802409a:	f040 8098 	bne.w	80241ce <USER_SPI_initialize+0x13a>
 802409e:	4b4d      	ldr	r3, [pc, #308]	; (80241d4 <USER_SPI_initialize+0x140>)
 80240a0:	781a      	ldrb	r2, [r3, #0]
 80240a2:	461e      	mov	r6, r3
 80240a4:	f012 0f02 	tst.w	r2, #2
 80240a8:	d004      	beq.n	80240b4 <USER_SPI_initialize+0x20>
 80240aa:	7818      	ldrb	r0, [r3, #0]
 80240ac:	b2c0      	uxtb	r0, r0
 80240ae:	b002      	add	sp, #8
 80240b0:	e8bd 81f0 	ldmia.w	sp!, {r4, r5, r6, r7, r8, pc}
 80240b4:	4f48      	ldr	r7, [pc, #288]	; (80241d8 <USER_SPI_initialize+0x144>)
 80240b6:	240a      	movs	r4, #10
 80240b8:	683a      	ldr	r2, [r7, #0]
 80240ba:	6813      	ldr	r3, [r2, #0]
 80240bc:	f023 43e0 	bic.w	r3, r3, #1879048192	; 0x70000000
 80240c0:	f043 43c0 	orr.w	r3, r3, #1610612736	; 0x60000000
 80240c4:	6013      	str	r3, [r2, #0]
 80240c6:	3c01      	subs	r4, #1
 80240c8:	20ff      	movs	r0, #255	; 0xff
 80240ca:	f7ff fef3 	bl	8023eb4 <xchg_spi>
 80240ce:	f014 04ff 	ands.w	r4, r4, #255	; 0xff
 80240d2:	d1f8      	bne.n	80240c6 <USER_SPI_initialize+0x32>
 80240d4:	4621      	mov	r1, r4
 80240d6:	4620      	mov	r0, r4
 80240d8:	f7ff ff3c 	bl	8023f54 <send_cmd>
 80240dc:	2801      	cmp	r0, #1
 80240de:	4605      	mov	r5, r0
 80240e0:	d171      	bne.n	80241c6 <USER_SPI_initialize+0x132>
 80240e2:	f44f 707a 	mov.w	r0, #1000	; 0x3e8
 80240e6:	f7ff ff91 	bl	802400c <SPI_Timer_On>
 80240ea:	f44f 71d5 	mov.w	r1, #426	; 0x1aa
 80240ee:	2008      	movs	r0, #8
 80240f0:	f7ff ff30 	bl	8023f54 <send_cmd>
 80240f4:	2801      	cmp	r0, #1
 80240f6:	d14a      	bne.n	802418e <USER_SPI_initialize+0xfa>
 80240f8:	ad01      	add	r5, sp, #4
 80240fa:	2404      	movs	r4, #4
 80240fc:	46a8      	mov	r8, r5
 80240fe:	3c01      	subs	r4, #1
 8024100:	20ff      	movs	r0, #255	; 0xff
 8024102:	f7ff fed7 	bl	8023eb4 <xchg_spi>
 8024106:	f808 0b01 	strb.w	r0, [r8], #1
 802410a:	f014 04ff 	ands.w	r4, r4, #255	; 0xff
 802410e:	d1f6      	bne.n	80240fe <USER_SPI_initialize+0x6a>
 8024110:	f89d 3006 	ldrb.w	r3, [sp, #6]
 8024114:	2b01      	cmp	r3, #1
 8024116:	d156      	bne.n	80241c6 <USER_SPI_initialize+0x132>
 8024118:	f89d 3007 	ldrb.w	r3, [sp, #7]
 802411c:	2baa      	cmp	r3, #170	; 0xaa
 802411e:	d152      	bne.n	80241c6 <USER_SPI_initialize+0x132>
 8024120:	f7ff ff82 	bl	8024028 <SPI_Timer_Status>
 8024124:	b130      	cbz	r0, 8024134 <USER_SPI_initialize+0xa0>
 8024126:	f04f 4180 	mov.w	r1, #1073741824	; 0x40000000
 802412a:	20a9      	movs	r0, #169	; 0xa9
 802412c:	f7ff ff12 	bl	8023f54 <send_cmd>
 8024130:	2800      	cmp	r0, #0
 8024132:	d1f5      	bne.n	8024120 <USER_SPI_initialize+0x8c>
 8024134:	f7ff ff78 	bl	8024028 <SPI_Timer_Status>
 8024138:	2800      	cmp	r0, #0
 802413a:	d044      	beq.n	80241c6 <USER_SPI_initialize+0x132>
 802413c:	2100      	movs	r1, #0
 802413e:	203a      	movs	r0, #58	; 0x3a
 8024140:	f7ff ff08 	bl	8023f54 <send_cmd>
 8024144:	2800      	cmp	r0, #0
 8024146:	d13e      	bne.n	80241c6 <USER_SPI_initialize+0x132>
 8024148:	2404      	movs	r4, #4
 802414a:	3c01      	subs	r4, #1
 802414c:	20ff      	movs	r0, #255	; 0xff
 802414e:	f7ff feb1 	bl	8023eb4 <xchg_spi>
 8024152:	f805 0b01 	strb.w	r0, [r5], #1
 8024156:	f014 04ff 	ands.w	r4, r4, #255	; 0xff
 802415a:	d1f6      	bne.n	802414a <USER_SPI_initialize+0xb6>
 802415c:	f89d 3004 	ldrb.w	r3, [sp, #4]
 8024160:	f013 0f40 	tst.w	r3, #64	; 0x40
 8024164:	bf14      	ite	ne
 8024166:	240c      	movne	r4, #12
 8024168:	2404      	moveq	r4, #4
 802416a:	4b1c      	ldr	r3, [pc, #112]	; (80241dc <USER_SPI_initialize+0x148>)
 802416c:	701c      	strb	r4, [r3, #0]
 802416e:	f7ff fecb 	bl	8023f08 <despiselect>
 8024172:	b354      	cbz	r4, 80241ca <USER_SPI_initialize+0x136>
 8024174:	683a      	ldr	r2, [r7, #0]
 8024176:	6813      	ldr	r3, [r2, #0]
 8024178:	f023 43e0 	bic.w	r3, r3, #1879048192	; 0x70000000
 802417c:	f043 5300 	orr.w	r3, r3, #536870912	; 0x20000000
 8024180:	6013      	str	r3, [r2, #0]
 8024182:	7833      	ldrb	r3, [r6, #0]
 8024184:	f003 03fe 	and.w	r3, r3, #254	; 0xfe
 8024188:	7033      	strb	r3, [r6, #0]
 802418a:	7830      	ldrb	r0, [r6, #0]
 802418c:	e78e      	b.n	80240ac <USER_SPI_initialize+0x18>
 802418e:	4621      	mov	r1, r4
 8024190:	20a9      	movs	r0, #169	; 0xa9
 8024192:	f7ff fedf 	bl	8023f54 <send_cmd>
 8024196:	2802      	cmp	r0, #2
 8024198:	bf36      	itet	cc
 802419a:	2402      	movcc	r4, #2
 802419c:	2401      	movcs	r4, #1
 802419e:	25a9      	movcc	r5, #169	; 0xa9
 80241a0:	f7ff ff42 	bl	8024028 <SPI_Timer_Status>
 80241a4:	b128      	cbz	r0, 80241b2 <USER_SPI_initialize+0x11e>
 80241a6:	2100      	movs	r1, #0
 80241a8:	4628      	mov	r0, r5
 80241aa:	f7ff fed3 	bl	8023f54 <send_cmd>
 80241ae:	2800      	cmp	r0, #0
 80241b0:	d1f6      	bne.n	80241a0 <USER_SPI_initialize+0x10c>
 80241b2:	f7ff ff39 	bl	8024028 <SPI_Timer_Status>
 80241b6:	b130      	cbz	r0, 80241c6 <USER_SPI_initialize+0x132>
 80241b8:	f44f 7100 	mov.w	r1, #512	; 0x200
 80241bc:	2010      	movs	r0, #16
 80241be:	f7ff fec9 	bl	8023f54 <send_cmd>
 80241c2:	2800      	cmp	r0, #0
 80241c4:	d0d1      	beq.n	802416a <USER_SPI_initialize+0xd6>
 80241c6:	2400      	movs	r4, #0
 80241c8:	e7cf      	b.n	802416a <USER_SPI_initialize+0xd6>
 80241ca:	2301      	movs	r3, #1
 80241cc:	e7dc      	b.n	8024188 <USER_SPI_initialize+0xf4>
 80241ce:	2001      	movs	r0, #1
 80241d0:	e76d      	b.n	80240ae <USER_SPI_initialize+0x1a>
 80241d2:	bf00      	nop
 80241d4:	20000024 	.word	0x20000024
 80241d8:	2000063c 	.word	0x2000063c
 80241dc:	2000056c 	.word	0x2000056c

080241e0 <USER_SPI_status>:
 80241e0:	b918      	cbnz	r0, 80241ea <USER_SPI_status+0xa>
 80241e2:	4b03      	ldr	r3, [pc, #12]	; (80241f0 <USER_SPI_status+0x10>)
 80241e4:	7818      	ldrb	r0, [r3, #0]
 80241e6:	b2c0      	uxtb	r0, r0
 80241e8:	4770      	bx	lr
 80241ea:	2001      	movs	r0, #1
 80241ec:	4770      	bx	lr
 80241ee:	bf00      	nop
 80241f0:	20000024 	.word	0x20000024

080241f4 <USER_SPI_read>:
 80241f4:	b538      	push	{r3, r4, r5, lr}
 80241f6:	460d      	mov	r5, r1
 80241f8:	461c      	mov	r4, r3
 80241fa:	4611      	mov	r1, r2
 80241fc:	bb88      	cbnz	r0, 8024262 <USER_SPI_read+0x6e>
 80241fe:	b383      	cbz	r3, 8024262 <USER_SPI_read+0x6e>
 8024200:	4b1a      	ldr	r3, [pc, #104]	; (802426c <USER_SPI_read+0x78>)
 8024202:	781b      	ldrb	r3, [r3, #0]
 8024204:	07da      	lsls	r2, r3, #31
 8024206:	d42e      	bmi.n	8024266 <USER_SPI_read+0x72>
 8024208:	4b19      	ldr	r3, [pc, #100]	; (8024270 <USER_SPI_read+0x7c>)
 802420a:	781b      	ldrb	r3, [r3, #0]
 802420c:	071b      	lsls	r3, r3, #28
 802420e:	bf58      	it	pl
 8024210:	0249      	lslpl	r1, r1, #9
 8024212:	2c01      	cmp	r4, #1
 8024214:	d111      	bne.n	802423a <USER_SPI_read+0x46>
 8024216:	2011      	movs	r0, #17
 8024218:	f7ff fe9c 	bl	8023f54 <send_cmd>
 802421c:	b938      	cbnz	r0, 802422e <USER_SPI_read+0x3a>
 802421e:	f44f 7100 	mov.w	r1, #512	; 0x200
 8024222:	4628      	mov	r0, r5
 8024224:	f7ff ff12 	bl	802404c <rcvr_datablock>
 8024228:	fab0 f480 	clz	r4, r0
 802422c:	0964      	lsrs	r4, r4, #5
 802422e:	f7ff fe6b 	bl	8023f08 <despiselect>
 8024232:	1e20      	subs	r0, r4, #0
 8024234:	bf18      	it	ne
 8024236:	2001      	movne	r0, #1
 8024238:	bd38      	pop	{r3, r4, r5, pc}
 802423a:	2012      	movs	r0, #18
 802423c:	f7ff fe8a 	bl	8023f54 <send_cmd>
 8024240:	2800      	cmp	r0, #0
 8024242:	d1f4      	bne.n	802422e <USER_SPI_read+0x3a>
 8024244:	f44f 7100 	mov.w	r1, #512	; 0x200
 8024248:	4628      	mov	r0, r5
 802424a:	f7ff feff 	bl	802404c <rcvr_datablock>
 802424e:	b118      	cbz	r0, 8024258 <USER_SPI_read+0x64>
 8024250:	3c01      	subs	r4, #1
 8024252:	f505 7500 	add.w	r5, r5, #512	; 0x200
 8024256:	d1f5      	bne.n	8024244 <USER_SPI_read+0x50>
 8024258:	2100      	movs	r1, #0
 802425a:	200c      	movs	r0, #12
 802425c:	f7ff fe7a 	bl	8023f54 <send_cmd>
 8024260:	e7e5      	b.n	802422e <USER_SPI_read+0x3a>
 8024262:	2004      	movs	r0, #4
 8024264:	e7e8      	b.n	8024238 <USER_SPI_read+0x44>
 8024266:	2003      	movs	r0, #3
 8024268:	e7e6      	b.n	8024238 <USER_SPI_read+0x44>
 802426a:	bf00      	nop
 802426c:	20000024 	.word	0x20000024
 8024270:	2000056c 	.word	0x2000056c

08024274 <USER_SPI_write>:
 8024274:	b570      	push	{r4, r5, r6, lr}
 8024276:	460d      	mov	r5, r1
 8024278:	4616      	mov	r6, r2
 802427a:	461c      	mov	r4, r3
 802427c:	2800      	cmp	r0, #0
 802427e:	d152      	bne.n	8024326 <USER_SPI_write+0xb2>
 8024280:	2b00      	cmp	r3, #0
 8024282:	d050      	beq.n	8024326 <USER_SPI_write+0xb2>
 8024284:	4b2b      	ldr	r3, [pc, #172]	; (8024334 <USER_SPI_write+0xc0>)
 8024286:	781a      	ldrb	r2, [r3, #0]
 8024288:	07d0      	lsls	r0, r2, #31
 802428a:	d44e      	bmi.n	802432a <USER_SPI_write+0xb6>
 802428c:	781b      	ldrb	r3, [r3, #0]
 802428e:	0759      	lsls	r1, r3, #29
 8024290:	d44d      	bmi.n	802432e <USER_SPI_write+0xba>
 8024292:	4b29      	ldr	r3, [pc, #164]	; (8024338 <USER_SPI_write+0xc4>)
 8024294:	781b      	ldrb	r3, [r3, #0]
 8024296:	071a      	lsls	r2, r3, #28
 8024298:	bf58      	it	pl
 802429a:	0276      	lslpl	r6, r6, #9
 802429c:	2c01      	cmp	r4, #1
 802429e:	d11b      	bne.n	80242d8 <USER_SPI_write+0x64>
 80242a0:	4631      	mov	r1, r6
 80242a2:	2018      	movs	r0, #24
 80242a4:	f7ff fe56 	bl	8023f54 <send_cmd>
 80242a8:	b130      	cbz	r0, 80242b8 <USER_SPI_write+0x44>
 80242aa:	2401      	movs	r4, #1
 80242ac:	f7ff fe2c 	bl	8023f08 <despiselect>
 80242b0:	1e20      	subs	r0, r4, #0
 80242b2:	bf18      	it	ne
 80242b4:	2001      	movne	r0, #1
 80242b6:	bd70      	pop	{r4, r5, r6, pc}
 80242b8:	f44f 70fa 	mov.w	r0, #500	; 0x1f4
 80242bc:	f7ff fe0e 	bl	8023edc <wait_ready>
 80242c0:	2800      	cmp	r0, #0
 80242c2:	d0f2      	beq.n	80242aa <USER_SPI_write+0x36>
 80242c4:	20fe      	movs	r0, #254	; 0xfe
 80242c6:	f7ff fdf5 	bl	8023eb4 <xchg_spi>
 80242ca:	4628      	mov	r0, r5
 80242cc:	f7ff fe84 	bl	8023fd8 <xmit_datablock.part.0>
 80242d0:	fab0 f480 	clz	r4, r0
 80242d4:	0964      	lsrs	r4, r4, #5
 80242d6:	e7e9      	b.n	80242ac <USER_SPI_write+0x38>
 80242d8:	f013 0f06 	tst.w	r3, #6
 80242dc:	d003      	beq.n	80242e6 <USER_SPI_write+0x72>
 80242de:	4621      	mov	r1, r4
 80242e0:	2097      	movs	r0, #151	; 0x97
 80242e2:	f7ff fe37 	bl	8023f54 <send_cmd>
 80242e6:	4631      	mov	r1, r6
 80242e8:	2019      	movs	r0, #25
 80242ea:	f7ff fe33 	bl	8023f54 <send_cmd>
 80242ee:	2800      	cmp	r0, #0
 80242f0:	d1dc      	bne.n	80242ac <USER_SPI_write+0x38>
 80242f2:	f44f 70fa 	mov.w	r0, #500	; 0x1f4
 80242f6:	f7ff fdf1 	bl	8023edc <wait_ready>
 80242fa:	b150      	cbz	r0, 8024312 <USER_SPI_write+0x9e>
 80242fc:	20fc      	movs	r0, #252	; 0xfc
 80242fe:	f7ff fdd9 	bl	8023eb4 <xchg_spi>
 8024302:	4628      	mov	r0, r5
 8024304:	f7ff fe68 	bl	8023fd8 <xmit_datablock.part.0>
 8024308:	b118      	cbz	r0, 8024312 <USER_SPI_write+0x9e>
 802430a:	3c01      	subs	r4, #1
 802430c:	f505 7500 	add.w	r5, r5, #512	; 0x200
 8024310:	d1ef      	bne.n	80242f2 <USER_SPI_write+0x7e>
 8024312:	f44f 70fa 	mov.w	r0, #500	; 0x1f4
 8024316:	f7ff fde1 	bl	8023edc <wait_ready>
 802431a:	2800      	cmp	r0, #0
 802431c:	d0c5      	beq.n	80242aa <USER_SPI_write+0x36>
 802431e:	20fd      	movs	r0, #253	; 0xfd
 8024320:	f7ff fdc8 	bl	8023eb4 <xchg_spi>
 8024324:	e7c2      	b.n	80242ac <USER_SPI_write+0x38>
 8024326:	2004      	movs	r0, #4
 8024328:	e7c5      	b.n	80242b6 <USER_SPI_write+0x42>
 802432a:	2003      	movs	r0, #3
 802432c:	e7c3      	b.n	80242b6 <USER_SPI_write+0x42>
 802432e:	2002      	movs	r0, #2
 8024330:	e7c1      	b.n	80242b6 <USER_SPI_write+0x42>
 8024332:	bf00      	nop
 8024334:	20000024 	.word	0x20000024
 8024338:	2000056c 	.word	0x2000056c

0802433c <USER_SPI_ioctl>:
 802433c:	b57f      	push	{r0, r1, r2, r3, r4, r5, r6, lr}
 802433e:	4615      	mov	r5, r2
 8024340:	2800      	cmp	r0, #0
 8024342:	f040 80d8 	bne.w	80244f6 <USER_SPI_ioctl+0x1ba>
 8024346:	4b6e      	ldr	r3, [pc, #440]	; (8024500 <USER_SPI_ioctl+0x1c4>)
 8024348:	781b      	ldrb	r3, [r3, #0]
 802434a:	07d8      	lsls	r0, r3, #31
 802434c:	f100 80d5 	bmi.w	80244fa <USER_SPI_ioctl+0x1be>
 8024350:	2904      	cmp	r1, #4
 8024352:	f200 80ce 	bhi.w	80244f2 <USER_SPI_ioctl+0x1b6>
 8024356:	e8df f001 	tbb	[pc, r1]
 802435a:	0903      	.short	0x0903
 802435c:	4acc      	.short	0x4acc
 802435e:	94          	.byte	0x94
 802435f:	00          	.byte	0x00
 8024360:	f7ff fde0 	bl	8023f24 <spiselect>
 8024364:	fab0 f480 	clz	r4, r0
 8024368:	0964      	lsrs	r4, r4, #5
 802436a:	e006      	b.n	802437a <USER_SPI_ioctl+0x3e>
 802436c:	2100      	movs	r1, #0
 802436e:	2009      	movs	r0, #9
 8024370:	f7ff fdf0 	bl	8023f54 <send_cmd>
 8024374:	4604      	mov	r4, r0
 8024376:	b128      	cbz	r0, 8024384 <USER_SPI_ioctl+0x48>
 8024378:	2401      	movs	r4, #1
 802437a:	f7ff fdc5 	bl	8023f08 <despiselect>
 802437e:	4620      	mov	r0, r4
 8024380:	b004      	add	sp, #16
 8024382:	bd70      	pop	{r4, r5, r6, pc}
 8024384:	2110      	movs	r1, #16
 8024386:	4668      	mov	r0, sp
 8024388:	f7ff fe60 	bl	802404c <rcvr_datablock>
 802438c:	2800      	cmp	r0, #0
 802438e:	d0f3      	beq.n	8024378 <USER_SPI_ioctl+0x3c>
 8024390:	f89d 3000 	ldrb.w	r3, [sp]
 8024394:	f89d 1008 	ldrb.w	r1, [sp, #8]
 8024398:	099b      	lsrs	r3, r3, #6
 802439a:	f89d 0009 	ldrb.w	r0, [sp, #9]
 802439e:	2b01      	cmp	r3, #1
 80243a0:	f89d 3007 	ldrb.w	r3, [sp, #7]
 80243a4:	d109      	bne.n	80243ba <USER_SPI_ioctl+0x7e>
 80243a6:	041a      	lsls	r2, r3, #16
 80243a8:	eb00 2101 	add.w	r1, r0, r1, lsl #8
 80243ac:	f402 127c 	and.w	r2, r2, #4128768	; 0x3f0000
 80243b0:	3201      	adds	r2, #1
 80243b2:	440a      	add	r2, r1
 80243b4:	0292      	lsls	r2, r2, #10
 80243b6:	602a      	str	r2, [r5, #0]
 80243b8:	e7df      	b.n	802437a <USER_SPI_ioctl+0x3e>
 80243ba:	f89d 2006 	ldrb.w	r2, [sp, #6]
 80243be:	009b      	lsls	r3, r3, #2
 80243c0:	0292      	lsls	r2, r2, #10
 80243c2:	eb03 1391 	add.w	r3, r3, r1, lsr #6
 80243c6:	f89d 100a 	ldrb.w	r1, [sp, #10]
 80243ca:	f402 6240 	and.w	r2, r2, #3072	; 0xc00
 80243ce:	4413      	add	r3, r2
 80243d0:	f89d 2005 	ldrb.w	r2, [sp, #5]
 80243d4:	f002 020f 	and.w	r2, r2, #15
 80243d8:	3301      	adds	r3, #1
 80243da:	eb02 12d1 	add.w	r2, r2, r1, lsr #7
 80243de:	0041      	lsls	r1, r0, #1
 80243e0:	f001 0106 	and.w	r1, r1, #6
 80243e4:	440a      	add	r2, r1
 80243e6:	3a07      	subs	r2, #7
 80243e8:	4093      	lsls	r3, r2
 80243ea:	602b      	str	r3, [r5, #0]
 80243ec:	e7c5      	b.n	802437a <USER_SPI_ioctl+0x3e>
 80243ee:	4e45      	ldr	r6, [pc, #276]	; (8024504 <USER_SPI_ioctl+0x1c8>)
 80243f0:	7831      	ldrb	r1, [r6, #0]
 80243f2:	f011 0104 	ands.w	r1, r1, #4
 80243f6:	d01b      	beq.n	8024430 <USER_SPI_ioctl+0xf4>
 80243f8:	2100      	movs	r1, #0
 80243fa:	208d      	movs	r0, #141	; 0x8d
 80243fc:	f7ff fdaa 	bl	8023f54 <send_cmd>
 8024400:	2800      	cmp	r0, #0
 8024402:	d1b9      	bne.n	8024378 <USER_SPI_ioctl+0x3c>
 8024404:	20ff      	movs	r0, #255	; 0xff
 8024406:	f7ff fd55 	bl	8023eb4 <xchg_spi>
 802440a:	2110      	movs	r1, #16
 802440c:	4668      	mov	r0, sp
 802440e:	f7ff fe1d 	bl	802404c <rcvr_datablock>
 8024412:	2800      	cmp	r0, #0
 8024414:	d0b0      	beq.n	8024378 <USER_SPI_ioctl+0x3c>
 8024416:	2430      	movs	r4, #48	; 0x30
 8024418:	20ff      	movs	r0, #255	; 0xff
 802441a:	f7ff fd4b 	bl	8023eb4 <xchg_spi>
 802441e:	1e60      	subs	r0, r4, #1
 8024420:	f010 04ff 	ands.w	r4, r0, #255	; 0xff
 8024424:	d1f8      	bne.n	8024418 <USER_SPI_ioctl+0xdc>
 8024426:	f89d 300a 	ldrb.w	r3, [sp, #10]
 802442a:	091a      	lsrs	r2, r3, #4
 802442c:	2310      	movs	r3, #16
 802442e:	e7db      	b.n	80243e8 <USER_SPI_ioctl+0xac>
 8024430:	2009      	movs	r0, #9
 8024432:	f7ff fd8f 	bl	8023f54 <send_cmd>
 8024436:	4604      	mov	r4, r0
 8024438:	2800      	cmp	r0, #0
 802443a:	d19d      	bne.n	8024378 <USER_SPI_ioctl+0x3c>
 802443c:	2110      	movs	r1, #16
 802443e:	4668      	mov	r0, sp
 8024440:	f7ff fe04 	bl	802404c <rcvr_datablock>
 8024444:	2800      	cmp	r0, #0
 8024446:	d097      	beq.n	8024378 <USER_SPI_ioctl+0x3c>
 8024448:	7832      	ldrb	r2, [r6, #0]
 802444a:	f89d 300a 	ldrb.w	r3, [sp, #10]
 802444e:	0792      	lsls	r2, r2, #30
 8024450:	f89d 100b 	ldrb.w	r1, [sp, #11]
 8024454:	d50a      	bpl.n	802446c <USER_SPI_ioctl+0x130>
 8024456:	005b      	lsls	r3, r3, #1
 8024458:	f89d 200d 	ldrb.w	r2, [sp, #13]
 802445c:	f003 037e 	and.w	r3, r3, #126	; 0x7e
 8024460:	0992      	lsrs	r2, r2, #6
 8024462:	eb03 13d1 	add.w	r3, r3, r1, lsr #7
 8024466:	3a01      	subs	r2, #1
 8024468:	3301      	adds	r3, #1
 802446a:	e7bd      	b.n	80243e8 <USER_SPI_ioctl+0xac>
 802446c:	00ca      	lsls	r2, r1, #3
 802446e:	f3c3 0384 	ubfx	r3, r3, #2, #5
 8024472:	f002 0218 	and.w	r2, r2, #24
 8024476:	3301      	adds	r3, #1
 8024478:	eb02 1251 	add.w	r2, r2, r1, lsr #5
 802447c:	fb02 3303 	mla	r3, r2, r3, r3
 8024480:	e7b3      	b.n	80243ea <USER_SPI_ioctl+0xae>
 8024482:	4e20      	ldr	r6, [pc, #128]	; (8024504 <USER_SPI_ioctl+0x1c8>)
 8024484:	7833      	ldrb	r3, [r6, #0]
 8024486:	f013 0f06 	tst.w	r3, #6
 802448a:	f43f af75 	beq.w	8024378 <USER_SPI_ioctl+0x3c>
 802448e:	466a      	mov	r2, sp
 8024490:	210b      	movs	r1, #11
 8024492:	2000      	movs	r0, #0
 8024494:	f7ff ff52 	bl	802433c <USER_SPI_ioctl>
 8024498:	2800      	cmp	r0, #0
 802449a:	f47f af6d 	bne.w	8024378 <USER_SPI_ioctl+0x3c>
 802449e:	f89d 300a 	ldrb.w	r3, [sp, #10]
 80244a2:	f89d 2000 	ldrb.w	r2, [sp]
 80244a6:	f003 0340 	and.w	r3, r3, #64	; 0x40
 80244aa:	ea53 1392 	orrs.w	r3, r3, r2, lsr #6
 80244ae:	f43f af63 	beq.w	8024378 <USER_SPI_ioctl+0x3c>
 80244b2:	7833      	ldrb	r3, [r6, #0]
 80244b4:	2020      	movs	r0, #32
 80244b6:	071b      	lsls	r3, r3, #28
 80244b8:	e9d5 1400 	ldrd	r1, r4, [r5]
 80244bc:	bf5c      	itt	pl
 80244be:	0249      	lslpl	r1, r1, #9
 80244c0:	0264      	lslpl	r4, r4, #9
 80244c2:	f7ff fd47 	bl	8023f54 <send_cmd>
 80244c6:	2800      	cmp	r0, #0
 80244c8:	f47f af56 	bne.w	8024378 <USER_SPI_ioctl+0x3c>
 80244cc:	4621      	mov	r1, r4
 80244ce:	2021      	movs	r0, #33	; 0x21
 80244d0:	f7ff fd40 	bl	8023f54 <send_cmd>
 80244d4:	4601      	mov	r1, r0
 80244d6:	2800      	cmp	r0, #0
 80244d8:	f47f af4e 	bne.w	8024378 <USER_SPI_ioctl+0x3c>
 80244dc:	2026      	movs	r0, #38	; 0x26
 80244de:	f7ff fd39 	bl	8023f54 <send_cmd>
 80244e2:	2800      	cmp	r0, #0
 80244e4:	f47f af48 	bne.w	8024378 <USER_SPI_ioctl+0x3c>
 80244e8:	f247 5030 	movw	r0, #30000	; 0x7530
 80244ec:	f7ff fcf6 	bl	8023edc <wait_ready>
 80244f0:	e738      	b.n	8024364 <USER_SPI_ioctl+0x28>
 80244f2:	2404      	movs	r4, #4
 80244f4:	e741      	b.n	802437a <USER_SPI_ioctl+0x3e>
 80244f6:	2404      	movs	r4, #4
 80244f8:	e741      	b.n	802437e <USER_SPI_ioctl+0x42>
 80244fa:	2403      	movs	r4, #3
 80244fc:	e73f      	b.n	802437e <USER_SPI_ioctl+0x42>
 80244fe:	bf00      	nop
 8024500:	20000024 	.word	0x20000024
 8024504:	2000056c 	.word	0x2000056c

08024508 <disk_status>:
 8024508:	4b03      	ldr	r3, [pc, #12]	; (8024518 <disk_status+0x10>)
 802450a:	181a      	adds	r2, r3, r0
 802450c:	eb03 0080 	add.w	r0, r3, r0, lsl #2
 8024510:	6843      	ldr	r3, [r0, #4]
 8024512:	7a10      	ldrb	r0, [r2, #8]
 8024514:	685b      	ldr	r3, [r3, #4]
 8024516:	4718      	bx	r3
 8024518:	20000598 	.word	0x20000598

0802451c <disk_initialize>:
 802451c:	4b06      	ldr	r3, [pc, #24]	; (8024538 <disk_initialize+0x1c>)
 802451e:	5c1a      	ldrb	r2, [r3, r0]
 8024520:	b942      	cbnz	r2, 8024534 <disk_initialize+0x18>
 8024522:	2201      	movs	r2, #1
 8024524:	541a      	strb	r2, [r3, r0]
 8024526:	181a      	adds	r2, r3, r0
 8024528:	eb03 0380 	add.w	r3, r3, r0, lsl #2
 802452c:	7a10      	ldrb	r0, [r2, #8]
 802452e:	685b      	ldr	r3, [r3, #4]
 8024530:	681b      	ldr	r3, [r3, #0]
 8024532:	4718      	bx	r3
 8024534:	2000      	movs	r0, #0
 8024536:	4770      	bx	lr
 8024538:	20000598 	.word	0x20000598

0802453c <disk_read>:
 802453c:	b430      	push	{r4, r5}
 802453e:	4c05      	ldr	r4, [pc, #20]	; (8024554 <disk_read+0x18>)
 8024540:	1825      	adds	r5, r4, r0
 8024542:	eb04 0080 	add.w	r0, r4, r0, lsl #2
 8024546:	6840      	ldr	r0, [r0, #4]
 8024548:	6884      	ldr	r4, [r0, #8]
 802454a:	7a28      	ldrb	r0, [r5, #8]
 802454c:	46a4      	mov	ip, r4
 802454e:	bc30      	pop	{r4, r5}
 8024550:	4760      	bx	ip
 8024552:	bf00      	nop
 8024554:	20000598 	.word	0x20000598

08024558 <disk_write>:
 8024558:	b430      	push	{r4, r5}
 802455a:	4c05      	ldr	r4, [pc, #20]	; (8024570 <disk_write+0x18>)
 802455c:	1825      	adds	r5, r4, r0
 802455e:	eb04 0080 	add.w	r0, r4, r0, lsl #2
 8024562:	6840      	ldr	r0, [r0, #4]
 8024564:	68c4      	ldr	r4, [r0, #12]
 8024566:	7a28      	ldrb	r0, [r5, #8]
 8024568:	46a4      	mov	ip, r4
 802456a:	bc30      	pop	{r4, r5}
 802456c:	4760      	bx	ip
 802456e:	bf00      	nop
 8024570:	20000598 	.word	0x20000598

08024574 <disk_ioctl>:
 8024574:	4b05      	ldr	r3, [pc, #20]	; (802458c <disk_ioctl+0x18>)
 8024576:	b410      	push	{r4}
 8024578:	181c      	adds	r4, r3, r0
 802457a:	eb03 0080 	add.w	r0, r3, r0, lsl #2
 802457e:	6843      	ldr	r3, [r0, #4]
 8024580:	7a20      	ldrb	r0, [r4, #8]
 8024582:	691b      	ldr	r3, [r3, #16]
 8024584:	f85d 4b04 	ldr.w	r4, [sp], #4
 8024588:	4718      	bx	r3
 802458a:	bf00      	nop
 802458c:	20000598 	.word	0x20000598

08024590 <ld_dword>:
 8024590:	8842      	ldrh	r2, [r0, #2]
 8024592:	7843      	ldrb	r3, [r0, #1]
 8024594:	7800      	ldrb	r0, [r0, #0]
 8024596:	ea43 2302 	orr.w	r3, r3, r2, lsl #8
 802459a:	ea40 2003 	orr.w	r0, r0, r3, lsl #8
 802459e:	4770      	bx	lr

080245a0 <st_dword>:
 80245a0:	0a0b      	lsrs	r3, r1, #8
 80245a2:	7001      	strb	r1, [r0, #0]
 80245a4:	7043      	strb	r3, [r0, #1]
 80245a6:	0c0b      	lsrs	r3, r1, #16
 80245a8:	0e09      	lsrs	r1, r1, #24
 80245aa:	7083      	strb	r3, [r0, #2]
 80245ac:	70c1      	strb	r1, [r0, #3]
 80245ae:	4770      	bx	lr

080245b0 <mem_set>:
 80245b0:	4402      	add	r2, r0
 80245b2:	f800 1b01 	strb.w	r1, [r0], #1
 80245b6:	4290      	cmp	r0, r2
 80245b8:	d1fb      	bne.n	80245b2 <mem_set+0x2>
 80245ba:	4770      	bx	lr

080245bc <chk_lock>:
 80245bc:	4a1b      	ldr	r2, [pc, #108]	; (802462c <chk_lock+0x70>)
 80245be:	6813      	ldr	r3, [r2, #0]
 80245c0:	b530      	push	{r4, r5, lr}
 80245c2:	b163      	cbz	r3, 80245de <chk_lock+0x22>
 80245c4:	6804      	ldr	r4, [r0, #0]
 80245c6:	429c      	cmp	r4, r3
 80245c8:	d107      	bne.n	80245da <chk_lock+0x1e>
 80245ca:	6854      	ldr	r4, [r2, #4]
 80245cc:	6883      	ldr	r3, [r0, #8]
 80245ce:	429c      	cmp	r4, r3
 80245d0:	d103      	bne.n	80245da <chk_lock+0x1e>
 80245d2:	6894      	ldr	r4, [r2, #8]
 80245d4:	6943      	ldr	r3, [r0, #20]
 80245d6:	429c      	cmp	r4, r3
 80245d8:	d020      	beq.n	802461c <chk_lock+0x60>
 80245da:	2400      	movs	r4, #0
 80245dc:	e000      	b.n	80245e0 <chk_lock+0x24>
 80245de:	2401      	movs	r4, #1
 80245e0:	6913      	ldr	r3, [r2, #16]
 80245e2:	b1cb      	cbz	r3, 8024618 <chk_lock+0x5c>
 80245e4:	6805      	ldr	r5, [r0, #0]
 80245e6:	42ab      	cmp	r3, r5
 80245e8:	d107      	bne.n	80245fa <chk_lock+0x3e>
 80245ea:	6955      	ldr	r5, [r2, #20]
 80245ec:	6883      	ldr	r3, [r0, #8]
 80245ee:	429d      	cmp	r5, r3
 80245f0:	d103      	bne.n	80245fa <chk_lock+0x3e>
 80245f2:	6995      	ldr	r5, [r2, #24]
 80245f4:	6943      	ldr	r3, [r0, #20]
 80245f6:	429d      	cmp	r5, r3
 80245f8:	d015      	beq.n	8024626 <chk_lock+0x6a>
 80245fa:	b96c      	cbnz	r4, 8024618 <chk_lock+0x5c>
 80245fc:	2902      	cmp	r1, #2
 80245fe:	bf0c      	ite	eq
 8024600:	2000      	moveq	r0, #0
 8024602:	2012      	movne	r0, #18
 8024604:	bd30      	pop	{r4, r5, pc}
 8024606:	eb02 1203 	add.w	r2, r2, r3, lsl #4
 802460a:	8993      	ldrh	r3, [r2, #12]
 802460c:	f5b3 7f80 	cmp.w	r3, #256	; 0x100
 8024610:	bf14      	ite	ne
 8024612:	2000      	movne	r0, #0
 8024614:	2010      	moveq	r0, #16
 8024616:	e7f5      	b.n	8024604 <chk_lock+0x48>
 8024618:	2000      	movs	r0, #0
 802461a:	e7f3      	b.n	8024604 <chk_lock+0x48>
 802461c:	2300      	movs	r3, #0
 802461e:	2900      	cmp	r1, #0
 8024620:	d0f1      	beq.n	8024606 <chk_lock+0x4a>
 8024622:	2010      	movs	r0, #16
 8024624:	e7ee      	b.n	8024604 <chk_lock+0x48>
 8024626:	2301      	movs	r3, #1
 8024628:	e7f9      	b.n	802461e <chk_lock+0x62>
 802462a:	bf00      	nop
 802462c:	20000574 	.word	0x20000574

08024630 <inc_lock>:
 8024630:	4a1f      	ldr	r2, [pc, #124]	; (80246b0 <inc_lock+0x80>)
 8024632:	b5f0      	push	{r4, r5, r6, r7, lr}
 8024634:	6813      	ldr	r3, [r2, #0]
 8024636:	6806      	ldr	r6, [r0, #0]
 8024638:	429e      	cmp	r6, r3
 802463a:	d107      	bne.n	802464c <inc_lock+0x1c>
 802463c:	6855      	ldr	r5, [r2, #4]
 802463e:	6884      	ldr	r4, [r0, #8]
 8024640:	42a5      	cmp	r5, r4
 8024642:	d103      	bne.n	802464c <inc_lock+0x1c>
 8024644:	6945      	ldr	r5, [r0, #20]
 8024646:	6894      	ldr	r4, [r2, #8]
 8024648:	42a5      	cmp	r5, r4
 802464a:	d01b      	beq.n	8024684 <inc_lock+0x54>
 802464c:	6914      	ldr	r4, [r2, #16]
 802464e:	42b4      	cmp	r4, r6
 8024650:	d107      	bne.n	8024662 <inc_lock+0x32>
 8024652:	6957      	ldr	r7, [r2, #20]
 8024654:	6885      	ldr	r5, [r0, #8]
 8024656:	42af      	cmp	r7, r5
 8024658:	d103      	bne.n	8024662 <inc_lock+0x32>
 802465a:	6997      	ldr	r7, [r2, #24]
 802465c:	6945      	ldr	r5, [r0, #20]
 802465e:	42af      	cmp	r7, r5
 8024660:	d019      	beq.n	8024696 <inc_lock+0x66>
 8024662:	b10b      	cbz	r3, 8024668 <inc_lock+0x38>
 8024664:	b9ac      	cbnz	r4, 8024692 <inc_lock+0x62>
 8024666:	2301      	movs	r3, #1
 8024668:	011d      	lsls	r5, r3, #4
 802466a:	eb02 1403 	add.w	r4, r2, r3, lsl #4
 802466e:	5156      	str	r6, [r2, r5]
 8024670:	6885      	ldr	r5, [r0, #8]
 8024672:	6940      	ldr	r0, [r0, #20]
 8024674:	6065      	str	r5, [r4, #4]
 8024676:	60a0      	str	r0, [r4, #8]
 8024678:	2000      	movs	r0, #0
 802467a:	81a0      	strh	r0, [r4, #12]
 802467c:	b169      	cbz	r1, 802469a <inc_lock+0x6a>
 802467e:	f44f 7180 	mov.w	r1, #256	; 0x100
 8024682:	e00f      	b.n	80246a4 <inc_lock+0x74>
 8024684:	2300      	movs	r3, #0
 8024686:	b141      	cbz	r1, 802469a <inc_lock+0x6a>
 8024688:	eb02 1103 	add.w	r1, r2, r3, lsl #4
 802468c:	8989      	ldrh	r1, [r1, #12]
 802468e:	2900      	cmp	r1, #0
 8024690:	d0f5      	beq.n	802467e <inc_lock+0x4e>
 8024692:	2000      	movs	r0, #0
 8024694:	e00a      	b.n	80246ac <inc_lock+0x7c>
 8024696:	2301      	movs	r3, #1
 8024698:	e7f5      	b.n	8024686 <inc_lock+0x56>
 802469a:	eb02 1103 	add.w	r1, r2, r3, lsl #4
 802469e:	8989      	ldrh	r1, [r1, #12]
 80246a0:	3101      	adds	r1, #1
 80246a2:	b289      	uxth	r1, r1
 80246a4:	eb02 1203 	add.w	r2, r2, r3, lsl #4
 80246a8:	1c58      	adds	r0, r3, #1
 80246aa:	8191      	strh	r1, [r2, #12]
 80246ac:	bdf0      	pop	{r4, r5, r6, r7, pc}
 80246ae:	bf00      	nop
 80246b0:	20000574 	.word	0x20000574

080246b4 <dec_lock>:
 80246b4:	3801      	subs	r0, #1
 80246b6:	2801      	cmp	r0, #1
 80246b8:	d815      	bhi.n	80246e6 <dec_lock+0x32>
 80246ba:	4a0c      	ldr	r2, [pc, #48]	; (80246ec <dec_lock+0x38>)
 80246bc:	0101      	lsls	r1, r0, #4
 80246be:	eb02 1000 	add.w	r0, r2, r0, lsl #4
 80246c2:	8983      	ldrh	r3, [r0, #12]
 80246c4:	f5b3 7f80 	cmp.w	r3, #256	; 0x100
 80246c8:	d104      	bne.n	80246d4 <dec_lock+0x20>
 80246ca:	2300      	movs	r3, #0
 80246cc:	8183      	strh	r3, [r0, #12]
 80246ce:	2000      	movs	r0, #0
 80246d0:	5050      	str	r0, [r2, r1]
 80246d2:	4770      	bx	lr
 80246d4:	2b00      	cmp	r3, #0
 80246d6:	d0fa      	beq.n	80246ce <dec_lock+0x1a>
 80246d8:	3b01      	subs	r3, #1
 80246da:	b29b      	uxth	r3, r3
 80246dc:	8183      	strh	r3, [r0, #12]
 80246de:	2b00      	cmp	r3, #0
 80246e0:	d0f5      	beq.n	80246ce <dec_lock+0x1a>
 80246e2:	2000      	movs	r0, #0
 80246e4:	4770      	bx	lr
 80246e6:	2002      	movs	r0, #2
 80246e8:	4770      	bx	lr
 80246ea:	bf00      	nop
 80246ec:	20000574 	.word	0x20000574

080246f0 <clust2sect>:
 80246f0:	6983      	ldr	r3, [r0, #24]
 80246f2:	3902      	subs	r1, #2
 80246f4:	3b02      	subs	r3, #2
 80246f6:	428b      	cmp	r3, r1
 80246f8:	bf83      	ittte	hi
 80246fa:	8943      	ldrhhi	r3, [r0, #10]
 80246fc:	6ac0      	ldrhi	r0, [r0, #44]	; 0x2c
 80246fe:	fb01 0003 	mlahi	r0, r1, r3, r0
 8024702:	2000      	movls	r0, #0
 8024704:	4770      	bx	lr

08024706 <clmt_clust>:
 8024706:	6802      	ldr	r2, [r0, #0]
 8024708:	6ac3      	ldr	r3, [r0, #44]	; 0x2c
 802470a:	8990      	ldrh	r0, [r2, #12]
 802470c:	8952      	ldrh	r2, [r2, #10]
 802470e:	3304      	adds	r3, #4
 8024710:	fbb1 f1f0 	udiv	r1, r1, r0
 8024714:	fbb1 f1f2 	udiv	r1, r1, r2
 8024718:	6818      	ldr	r0, [r3, #0]
 802471a:	b130      	cbz	r0, 802472a <clmt_clust+0x24>
 802471c:	4281      	cmp	r1, r0
 802471e:	d302      	bcc.n	8024726 <clmt_clust+0x20>
 8024720:	1a09      	subs	r1, r1, r0
 8024722:	3308      	adds	r3, #8
 8024724:	e7f8      	b.n	8024718 <clmt_clust+0x12>
 8024726:	6858      	ldr	r0, [r3, #4]
 8024728:	4408      	add	r0, r1
 802472a:	4770      	bx	lr

0802472c <get_ldnumber>:
 802472c:	6802      	ldr	r2, [r0, #0]
 802472e:	b510      	push	{r4, lr}
 8024730:	b152      	cbz	r2, 8024748 <get_ldnumber+0x1c>
 8024732:	4611      	mov	r1, r2
 8024734:	460b      	mov	r3, r1
 8024736:	f811 4b01 	ldrb.w	r4, [r1], #1
 802473a:	2c20      	cmp	r4, #32
 802473c:	d90c      	bls.n	8024758 <get_ldnumber+0x2c>
 802473e:	2c3a      	cmp	r4, #58	; 0x3a
 8024740:	d1f8      	bne.n	8024734 <get_ldnumber+0x8>
 8024742:	1c51      	adds	r1, r2, #1
 8024744:	428b      	cmp	r3, r1
 8024746:	d002      	beq.n	802474e <get_ldnumber+0x22>
 8024748:	f04f 30ff 	mov.w	r0, #4294967295	; 0xffffffff
 802474c:	e005      	b.n	802475a <get_ldnumber+0x2e>
 802474e:	7812      	ldrb	r2, [r2, #0]
 8024750:	2a30      	cmp	r2, #48	; 0x30
 8024752:	d1f9      	bne.n	8024748 <get_ldnumber+0x1c>
 8024754:	3301      	adds	r3, #1
 8024756:	6003      	str	r3, [r0, #0]
 8024758:	2000      	movs	r0, #0
 802475a:	bd10      	pop	{r4, pc}

0802475c <validate>:
 802475c:	b538      	push	{r3, r4, r5, lr}
 802475e:	460d      	mov	r5, r1
 8024760:	4604      	mov	r4, r0
 8024762:	b918      	cbnz	r0, 802476c <validate+0x10>
 8024764:	2009      	movs	r0, #9
 8024766:	2300      	movs	r3, #0
 8024768:	602b      	str	r3, [r5, #0]
 802476a:	bd38      	pop	{r3, r4, r5, pc}
 802476c:	6803      	ldr	r3, [r0, #0]
 802476e:	2b00      	cmp	r3, #0
 8024770:	d0f8      	beq.n	8024764 <validate+0x8>
 8024772:	781a      	ldrb	r2, [r3, #0]
 8024774:	2a00      	cmp	r2, #0
 8024776:	d0f5      	beq.n	8024764 <validate+0x8>
 8024778:	8881      	ldrh	r1, [r0, #4]
 802477a:	88da      	ldrh	r2, [r3, #6]
 802477c:	4291      	cmp	r1, r2
 802477e:	d1f1      	bne.n	8024764 <validate+0x8>
 8024780:	7858      	ldrb	r0, [r3, #1]
 8024782:	f7ff fec1 	bl	8024508 <disk_status>
 8024786:	f010 0001 	ands.w	r0, r0, #1
 802478a:	d1eb      	bne.n	8024764 <validate+0x8>
 802478c:	6823      	ldr	r3, [r4, #0]
 802478e:	e7eb      	b.n	8024768 <validate+0xc>

08024790 <mem_cpy.part.0>:
 8024790:	3801      	subs	r0, #1
 8024792:	440a      	add	r2, r1
 8024794:	f811 3b01 	ldrb.w	r3, [r1], #1
 8024798:	4291      	cmp	r1, r2
 802479a:	f800 3f01 	strb.w	r3, [r0, #1]!
 802479e:	d1f9      	bne.n	8024794 <mem_cpy.part.0+0x4>
 80247a0:	4770      	bx	lr

080247a2 <ld_clust.isra.0>:
 80247a2:	2803      	cmp	r0, #3
 80247a4:	7eca      	ldrb	r2, [r1, #27]
 80247a6:	7e8b      	ldrb	r3, [r1, #26]
 80247a8:	bf08      	it	eq
 80247aa:	7d48      	ldrbeq	r0, [r1, #21]
 80247ac:	ea43 2302 	orr.w	r3, r3, r2, lsl #8
 80247b0:	bf02      	ittt	eq
 80247b2:	7d0a      	ldrbeq	r2, [r1, #20]
 80247b4:	ea42 2200 	orreq.w	r2, r2, r0, lsl #8
 80247b8:	ea43 4302 	orreq.w	r3, r3, r2, lsl #16
 80247bc:	4618      	mov	r0, r3
 80247be:	4770      	bx	lr

080247c0 <st_clust.isra.0>:
 80247c0:	f3c2 2307 	ubfx	r3, r2, #8, #8
 80247c4:	768a      	strb	r2, [r1, #26]
 80247c6:	76cb      	strb	r3, [r1, #27]
 80247c8:	7803      	ldrb	r3, [r0, #0]
 80247ca:	2b03      	cmp	r3, #3
 80247cc:	bf01      	itttt	eq
 80247ce:	0c12      	lsreq	r2, r2, #16
 80247d0:	750a      	strbeq	r2, [r1, #20]
 80247d2:	0a12      	lsreq	r2, r2, #8
 80247d4:	754a      	strbeq	r2, [r1, #21]
 80247d6:	4770      	bx	lr

080247d8 <sync_window.part.0>:
 80247d8:	e92d 41f0 	stmdb	sp!, {r4, r5, r6, r7, r8, lr}
 80247dc:	6b06      	ldr	r6, [r0, #48]	; 0x30
 80247de:	f100 0834 	add.w	r8, r0, #52	; 0x34
 80247e2:	4604      	mov	r4, r0
 80247e4:	2301      	movs	r3, #1
 80247e6:	4632      	mov	r2, r6
 80247e8:	4641      	mov	r1, r8
 80247ea:	7840      	ldrb	r0, [r0, #1]
 80247ec:	f7ff feb4 	bl	8024558 <disk_write>
 80247f0:	4605      	mov	r5, r0
 80247f2:	b9a8      	cbnz	r0, 8024820 <sync_window.part.0+0x48>
 80247f4:	6a63      	ldr	r3, [r4, #36]	; 0x24
 80247f6:	69e2      	ldr	r2, [r4, #28]
 80247f8:	1af3      	subs	r3, r6, r3
 80247fa:	70e0      	strb	r0, [r4, #3]
 80247fc:	4293      	cmp	r3, r2
 80247fe:	d202      	bcs.n	8024806 <sync_window.part.0+0x2e>
 8024800:	78a7      	ldrb	r7, [r4, #2]
 8024802:	2f01      	cmp	r7, #1
 8024804:	d802      	bhi.n	802480c <sync_window.part.0+0x34>
 8024806:	4628      	mov	r0, r5
 8024808:	e8bd 81f0 	ldmia.w	sp!, {r4, r5, r6, r7, r8, pc}
 802480c:	69e3      	ldr	r3, [r4, #28]
 802480e:	4641      	mov	r1, r8
 8024810:	7860      	ldrb	r0, [r4, #1]
 8024812:	3f01      	subs	r7, #1
 8024814:	441e      	add	r6, r3
 8024816:	2301      	movs	r3, #1
 8024818:	4632      	mov	r2, r6
 802481a:	f7ff fe9d 	bl	8024558 <disk_write>
 802481e:	e7f0      	b.n	8024802 <sync_window.part.0+0x2a>
 8024820:	2501      	movs	r5, #1
 8024822:	e7f0      	b.n	8024806 <sync_window.part.0+0x2e>

08024824 <sync_window>:
 8024824:	78c3      	ldrb	r3, [r0, #3]
 8024826:	b10b      	cbz	r3, 802482c <sync_window+0x8>
 8024828:	f7ff bfd6 	b.w	80247d8 <sync_window.part.0>
 802482c:	4618      	mov	r0, r3
 802482e:	4770      	bx	lr

08024830 <move_window>:
 8024830:	b538      	push	{r3, r4, r5, lr}
 8024832:	6b03      	ldr	r3, [r0, #48]	; 0x30
 8024834:	4605      	mov	r5, r0
 8024836:	460c      	mov	r4, r1
 8024838:	428b      	cmp	r3, r1
 802483a:	d010      	beq.n	802485e <move_window+0x2e>
 802483c:	f7ff fff2 	bl	8024824 <sync_window>
 8024840:	b960      	cbnz	r0, 802485c <move_window+0x2c>
 8024842:	4622      	mov	r2, r4
 8024844:	2301      	movs	r3, #1
 8024846:	f105 0134 	add.w	r1, r5, #52	; 0x34
 802484a:	7868      	ldrb	r0, [r5, #1]
 802484c:	f7ff fe76 	bl	802453c <disk_read>
 8024850:	2800      	cmp	r0, #0
 8024852:	bf1c      	itt	ne
 8024854:	f04f 34ff 	movne.w	r4, #4294967295	; 0xffffffff
 8024858:	2001      	movne	r0, #1
 802485a:	632c      	str	r4, [r5, #48]	; 0x30
 802485c:	bd38      	pop	{r3, r4, r5, pc}
 802485e:	2000      	movs	r0, #0
 8024860:	e7fc      	b.n	802485c <move_window+0x2c>
	...

08024864 <check_fs>:
 8024864:	2300      	movs	r3, #0
 8024866:	b510      	push	{r4, lr}
 8024868:	70c3      	strb	r3, [r0, #3]
 802486a:	f04f 33ff 	mov.w	r3, #4294967295	; 0xffffffff
 802486e:	4604      	mov	r4, r0
 8024870:	6303      	str	r3, [r0, #48]	; 0x30
 8024872:	f7ff ffdd 	bl	8024830 <move_window>
 8024876:	4601      	mov	r1, r0
 8024878:	bb30      	cbnz	r0, 80248c8 <check_fs+0x64>
 802487a:	f894 2233 	ldrb.w	r2, [r4, #563]	; 0x233
 802487e:	f894 3232 	ldrb.w	r3, [r4, #562]	; 0x232
 8024882:	ea43 2302 	orr.w	r3, r3, r2, lsl #8
 8024886:	f64a 2255 	movw	r2, #43605	; 0xaa55
 802488a:	4293      	cmp	r3, r2
 802488c:	d11e      	bne.n	80248cc <check_fs+0x68>
 802488e:	f894 3034 	ldrb.w	r3, [r4, #52]	; 0x34
 8024892:	2be9      	cmp	r3, #233	; 0xe9
 8024894:	d005      	beq.n	80248a2 <check_fs+0x3e>
 8024896:	6b63      	ldr	r3, [r4, #52]	; 0x34
 8024898:	4a0e      	ldr	r2, [pc, #56]	; (80248d4 <check_fs+0x70>)
 802489a:	f003 13ff 	and.w	r3, r3, #16711935	; 0xff00ff
 802489e:	4293      	cmp	r3, r2
 80248a0:	d116      	bne.n	80248d0 <check_fs+0x6c>
 80248a2:	f104 006a 	add.w	r0, r4, #106	; 0x6a
 80248a6:	f7ff fe73 	bl	8024590 <ld_dword>
 80248aa:	4b0b      	ldr	r3, [pc, #44]	; (80248d8 <check_fs+0x74>)
 80248ac:	f020 407f 	bic.w	r0, r0, #4278190080	; 0xff000000
 80248b0:	4298      	cmp	r0, r3
 80248b2:	d007      	beq.n	80248c4 <check_fs+0x60>
 80248b4:	f104 0086 	add.w	r0, r4, #134	; 0x86
 80248b8:	f7ff fe6a 	bl	8024590 <ld_dword>
 80248bc:	4b07      	ldr	r3, [pc, #28]	; (80248dc <check_fs+0x78>)
 80248be:	4298      	cmp	r0, r3
 80248c0:	bf18      	it	ne
 80248c2:	2102      	movne	r1, #2
 80248c4:	4608      	mov	r0, r1
 80248c6:	bd10      	pop	{r4, pc}
 80248c8:	2104      	movs	r1, #4
 80248ca:	e7fb      	b.n	80248c4 <check_fs+0x60>
 80248cc:	2103      	movs	r1, #3
 80248ce:	e7f9      	b.n	80248c4 <check_fs+0x60>
 80248d0:	2102      	movs	r1, #2
 80248d2:	e7f7      	b.n	80248c4 <check_fs+0x60>
 80248d4:	009000eb 	.word	0x009000eb
 80248d8:	00544146 	.word	0x00544146
 80248dc:	33544146 	.word	0x33544146

080248e0 <find_volume>:
 80248e0:	2300      	movs	r3, #0
 80248e2:	e92d 4ff0 	stmdb	sp!, {r4, r5, r6, r7, r8, r9, sl, fp, lr}
 80248e6:	600b      	str	r3, [r1, #0]
 80248e8:	b087      	sub	sp, #28
 80248ea:	460f      	mov	r7, r1
 80248ec:	4615      	mov	r5, r2
 80248ee:	f7ff ff1d 	bl	802472c <get_ldnumber>
 80248f2:	1e06      	subs	r6, r0, #0
 80248f4:	f2c0 8167 	blt.w	8024bc6 <find_volume+0x2e6>
 80248f8:	4bb6      	ldr	r3, [pc, #728]	; (8024bd4 <find_volume+0x2f4>)
 80248fa:	f853 4026 	ldr.w	r4, [r3, r6, lsl #2]
 80248fe:	2c00      	cmp	r4, #0
 8024900:	f000 8163 	beq.w	8024bca <find_volume+0x2ea>
 8024904:	603c      	str	r4, [r7, #0]
 8024906:	f005 05fe 	and.w	r5, r5, #254	; 0xfe
 802490a:	7823      	ldrb	r3, [r4, #0]
 802490c:	b16b      	cbz	r3, 802492a <find_volume+0x4a>
 802490e:	7860      	ldrb	r0, [r4, #1]
 8024910:	f7ff fdfa 	bl	8024508 <disk_status>
 8024914:	07c1      	lsls	r1, r0, #31
 8024916:	d408      	bmi.n	802492a <find_volume+0x4a>
 8024918:	b11d      	cbz	r5, 8024922 <find_volume+0x42>
 802491a:	f010 0504 	ands.w	r5, r0, #4
 802491e:	d000      	beq.n	8024922 <find_volume+0x42>
 8024920:	250a      	movs	r5, #10
 8024922:	4628      	mov	r0, r5
 8024924:	b007      	add	sp, #28
 8024926:	e8bd 8ff0 	ldmia.w	sp!, {r4, r5, r6, r7, r8, r9, sl, fp, pc}
 802492a:	2300      	movs	r3, #0
 802492c:	b2f0      	uxtb	r0, r6
 802492e:	7023      	strb	r3, [r4, #0]
 8024930:	7060      	strb	r0, [r4, #1]
 8024932:	f7ff fdf3 	bl	802451c <disk_initialize>
 8024936:	07c2      	lsls	r2, r0, #31
 8024938:	f100 8149 	bmi.w	8024bce <find_volume+0x2ee>
 802493c:	b10d      	cbz	r5, 8024942 <find_volume+0x62>
 802493e:	0743      	lsls	r3, r0, #29
 8024940:	d4ee      	bmi.n	8024920 <find_volume+0x40>
 8024942:	f104 020c 	add.w	r2, r4, #12
 8024946:	2102      	movs	r1, #2
 8024948:	7860      	ldrb	r0, [r4, #1]
 802494a:	f7ff fe13 	bl	8024574 <disk_ioctl>
 802494e:	4605      	mov	r5, r0
 8024950:	b108      	cbz	r0, 8024956 <find_volume+0x76>
 8024952:	2501      	movs	r5, #1
 8024954:	e7e5      	b.n	8024922 <find_volume+0x42>
 8024956:	89a3      	ldrh	r3, [r4, #12]
 8024958:	f5a3 7200 	sub.w	r2, r3, #512	; 0x200
 802495c:	f5b2 6f60 	cmp.w	r2, #3584	; 0xe00
 8024960:	d8f7      	bhi.n	8024952 <find_volume+0x72>
 8024962:	1e5a      	subs	r2, r3, #1
 8024964:	421a      	tst	r2, r3
 8024966:	d1f4      	bne.n	8024952 <find_volume+0x72>
 8024968:	4601      	mov	r1, r0
 802496a:	4620      	mov	r0, r4
 802496c:	f7ff ff7a 	bl	8024864 <check_fs>
 8024970:	2802      	cmp	r0, #2
 8024972:	f040 810a 	bne.w	8024b8a <find_volume+0x2aa>
 8024976:	ae02      	add	r6, sp, #8
 8024978:	f504 71fd 	add.w	r1, r4, #506	; 0x1fa
 802497c:	f204 283a 	addw	r8, r4, #570	; 0x23a
 8024980:	4637      	mov	r7, r6
 8024982:	f811 0c04 	ldrb.w	r0, [r1, #-4]
 8024986:	b110      	cbz	r0, 802498e <find_volume+0xae>
 8024988:	4608      	mov	r0, r1
 802498a:	f7ff fe01 	bl	8024590 <ld_dword>
 802498e:	3110      	adds	r1, #16
 8024990:	f847 0b04 	str.w	r0, [r7], #4
 8024994:	4588      	cmp	r8, r1
 8024996:	d1f4      	bne.n	8024982 <find_volume+0xa2>
 8024998:	2700      	movs	r7, #0
 802499a:	f856 bb04 	ldr.w	fp, [r6], #4
 802499e:	f1bb 0f00 	cmp.w	fp, #0
 80249a2:	f000 80ea 	beq.w	8024b7a <find_volume+0x29a>
 80249a6:	4659      	mov	r1, fp
 80249a8:	4620      	mov	r0, r4
 80249aa:	f7ff ff5b 	bl	8024864 <check_fs>
 80249ae:	2801      	cmp	r0, #1
 80249b0:	f200 80e4 	bhi.w	8024b7c <find_volume+0x29c>
 80249b4:	f894 2040 	ldrb.w	r2, [r4, #64]	; 0x40
 80249b8:	f894 303f 	ldrb.w	r3, [r4, #63]	; 0x3f
 80249bc:	f8b4 a00c 	ldrh.w	sl, [r4, #12]
 80249c0:	ea43 2302 	orr.w	r3, r3, r2, lsl #8
 80249c4:	459a      	cmp	sl, r3
 80249c6:	f040 80e5 	bne.w	8024b94 <find_volume+0x2b4>
 80249ca:	f894 004b 	ldrb.w	r0, [r4, #75]	; 0x4b
 80249ce:	f894 604a 	ldrb.w	r6, [r4, #74]	; 0x4a
 80249d2:	ea56 2600 	orrs.w	r6, r6, r0, lsl #8
 80249d6:	d104      	bne.n	80249e2 <find_volume+0x102>
 80249d8:	f104 0058 	add.w	r0, r4, #88	; 0x58
 80249dc:	f7ff fdd8 	bl	8024590 <ld_dword>
 80249e0:	4606      	mov	r6, r0
 80249e2:	f894 9044 	ldrb.w	r9, [r4, #68]	; 0x44
 80249e6:	61e6      	str	r6, [r4, #28]
 80249e8:	f109 33ff 	add.w	r3, r9, #4294967295	; 0xffffffff
 80249ec:	f884 9002 	strb.w	r9, [r4, #2]
 80249f0:	2b01      	cmp	r3, #1
 80249f2:	f200 80cf 	bhi.w	8024b94 <find_volume+0x2b4>
 80249f6:	f894 3041 	ldrb.w	r3, [r4, #65]	; 0x41
 80249fa:	8163      	strh	r3, [r4, #10]
 80249fc:	2b00      	cmp	r3, #0
 80249fe:	f000 80c9 	beq.w	8024b94 <find_volume+0x2b4>
 8024a02:	1e5a      	subs	r2, r3, #1
 8024a04:	421a      	tst	r2, r3
 8024a06:	f040 80c5 	bne.w	8024b94 <find_volume+0x2b4>
 8024a0a:	f894 2046 	ldrb.w	r2, [r4, #70]	; 0x46
 8024a0e:	f894 8045 	ldrb.w	r8, [r4, #69]	; 0x45
 8024a12:	ea48 2802 	orr.w	r8, r8, r2, lsl #8
 8024a16:	ea4f 125a 	mov.w	r2, sl, lsr #5
 8024a1a:	fa0f f188 	sxth.w	r1, r8
 8024a1e:	f8a4 8008 	strh.w	r8, [r4, #8]
 8024a22:	fbb8 f7f2 	udiv	r7, r8, r2
 8024a26:	fb02 8217 	mls	r2, r2, r7, r8
 8024a2a:	b292      	uxth	r2, r2
 8024a2c:	2a00      	cmp	r2, #0
 8024a2e:	f040 80b1 	bne.w	8024b94 <find_volume+0x2b4>
 8024a32:	f894 2048 	ldrb.w	r2, [r4, #72]	; 0x48
 8024a36:	f894 0047 	ldrb.w	r0, [r4, #71]	; 0x47
 8024a3a:	ea50 2002 	orrs.w	r0, r0, r2, lsl #8
 8024a3e:	d105      	bne.n	8024a4c <find_volume+0x16c>
 8024a40:	f104 0054 	add.w	r0, r4, #84	; 0x54
 8024a44:	9301      	str	r3, [sp, #4]
 8024a46:	f7ff fda3 	bl	8024590 <ld_dword>
 8024a4a:	9b01      	ldr	r3, [sp, #4]
 8024a4c:	f894 c043 	ldrb.w	ip, [r4, #67]	; 0x43
 8024a50:	f894 2042 	ldrb.w	r2, [r4, #66]	; 0x42
 8024a54:	ea52 220c 	orrs.w	r2, r2, ip, lsl #8
 8024a58:	f000 809c 	beq.w	8024b94 <find_volume+0x2b4>
 8024a5c:	fb06 fc09 	mul.w	ip, r6, r9
 8024a60:	4417      	add	r7, r2
 8024a62:	eb07 0e0c 	add.w	lr, r7, ip
 8024a66:	4570      	cmp	r0, lr
 8024a68:	f0c0 8094 	bcc.w	8024b94 <find_volume+0x2b4>
 8024a6c:	eba0 000e 	sub.w	r0, r0, lr
 8024a70:	4298      	cmp	r0, r3
 8024a72:	fbb0 f7f3 	udiv	r7, r0, r3
 8024a76:	f0c0 808d 	bcc.w	8024b94 <find_volume+0x2b4>
 8024a7a:	f64f 73f5 	movw	r3, #65525	; 0xfff5
 8024a7e:	429f      	cmp	r7, r3
 8024a80:	f200 808c 	bhi.w	8024b9c <find_volume+0x2bc>
 8024a84:	f640 79f5 	movw	r9, #4085	; 0xff5
 8024a88:	454f      	cmp	r7, r9
 8024a8a:	bf8c      	ite	hi
 8024a8c:	f04f 0902 	movhi.w	r9, #2
 8024a90:	f04f 0901 	movls.w	r9, #1
 8024a94:	3702      	adds	r7, #2
 8024a96:	445a      	add	r2, fp
 8024a98:	eb0e 030b 	add.w	r3, lr, fp
 8024a9c:	f1b9 0f03 	cmp.w	r9, #3
 8024aa0:	61a7      	str	r7, [r4, #24]
 8024aa2:	f8c4 b020 	str.w	fp, [r4, #32]
 8024aa6:	6262      	str	r2, [r4, #36]	; 0x24
 8024aa8:	62e3      	str	r3, [r4, #44]	; 0x2c
 8024aaa:	d17a      	bne.n	8024ba2 <find_volume+0x2c2>
 8024aac:	f894 205f 	ldrb.w	r2, [r4, #95]	; 0x5f
 8024ab0:	f894 305e 	ldrb.w	r3, [r4, #94]	; 0x5e
 8024ab4:	ea43 2302 	orr.w	r3, r3, r2, lsl #8
 8024ab8:	4319      	orrs	r1, r3
 8024aba:	b209      	sxth	r1, r1
 8024abc:	2900      	cmp	r1, #0
 8024abe:	d169      	bne.n	8024b94 <find_volume+0x2b4>
 8024ac0:	00bf      	lsls	r7, r7, #2
 8024ac2:	f104 0060 	add.w	r0, r4, #96	; 0x60
 8024ac6:	f7ff fd63 	bl	8024590 <ld_dword>
 8024aca:	62a0      	str	r0, [r4, #40]	; 0x28
 8024acc:	f10a 33ff 	add.w	r3, sl, #4294967295	; 0xffffffff
 8024ad0:	441f      	add	r7, r3
 8024ad2:	fbb7 fafa 	udiv	sl, r7, sl
 8024ad6:	45b2      	cmp	sl, r6
 8024ad8:	d85c      	bhi.n	8024b94 <find_volume+0x2b4>
 8024ada:	f04f 33ff 	mov.w	r3, #4294967295	; 0xffffffff
 8024ade:	f1b9 0f03 	cmp.w	r9, #3
 8024ae2:	e9c4 3304 	strd	r3, r3, [r4, #16]
 8024ae6:	f04f 0380 	mov.w	r3, #128	; 0x80
 8024aea:	7123      	strb	r3, [r4, #4]
 8024aec:	d130      	bne.n	8024b50 <find_volume+0x270>
 8024aee:	f894 2065 	ldrb.w	r2, [r4, #101]	; 0x65
 8024af2:	f894 3064 	ldrb.w	r3, [r4, #100]	; 0x64
 8024af6:	ea43 2302 	orr.w	r3, r3, r2, lsl #8
 8024afa:	2b01      	cmp	r3, #1
 8024afc:	d128      	bne.n	8024b50 <find_volume+0x270>
 8024afe:	f10b 0101 	add.w	r1, fp, #1
 8024b02:	4620      	mov	r0, r4
 8024b04:	f7ff fe94 	bl	8024830 <move_window>
 8024b08:	bb10      	cbnz	r0, 8024b50 <find_volume+0x270>
 8024b0a:	f894 2233 	ldrb.w	r2, [r4, #563]	; 0x233
 8024b0e:	f894 3232 	ldrb.w	r3, [r4, #562]	; 0x232
 8024b12:	7120      	strb	r0, [r4, #4]
 8024b14:	ea43 2302 	orr.w	r3, r3, r2, lsl #8
 8024b18:	f64a 2255 	movw	r2, #43605	; 0xaa55
 8024b1c:	4293      	cmp	r3, r2
 8024b1e:	d117      	bne.n	8024b50 <find_volume+0x270>
 8024b20:	f104 0034 	add.w	r0, r4, #52	; 0x34
 8024b24:	f7ff fd34 	bl	8024590 <ld_dword>
 8024b28:	4b2b      	ldr	r3, [pc, #172]	; (8024bd8 <find_volume+0x2f8>)
 8024b2a:	4298      	cmp	r0, r3
 8024b2c:	d110      	bne.n	8024b50 <find_volume+0x270>
 8024b2e:	f504 7006 	add.w	r0, r4, #536	; 0x218
 8024b32:	f7ff fd2d 	bl	8024590 <ld_dword>
 8024b36:	4b29      	ldr	r3, [pc, #164]	; (8024bdc <find_volume+0x2fc>)
 8024b38:	4298      	cmp	r0, r3
 8024b3a:	d109      	bne.n	8024b50 <find_volume+0x270>
 8024b3c:	f504 7007 	add.w	r0, r4, #540	; 0x21c
 8024b40:	f7ff fd26 	bl	8024590 <ld_dword>
 8024b44:	6160      	str	r0, [r4, #20]
 8024b46:	f504 7008 	add.w	r0, r4, #544	; 0x220
 8024b4a:	f7ff fd21 	bl	8024590 <ld_dword>
 8024b4e:	6120      	str	r0, [r4, #16]
 8024b50:	4a23      	ldr	r2, [pc, #140]	; (8024be0 <find_volume+0x300>)
 8024b52:	f884 9000 	strb.w	r9, [r4]
 8024b56:	8813      	ldrh	r3, [r2, #0]
 8024b58:	3301      	adds	r3, #1
 8024b5a:	b29b      	uxth	r3, r3
 8024b5c:	8013      	strh	r3, [r2, #0]
 8024b5e:	80e3      	strh	r3, [r4, #6]
 8024b60:	4b20      	ldr	r3, [pc, #128]	; (8024be4 <find_volume+0x304>)
 8024b62:	681a      	ldr	r2, [r3, #0]
 8024b64:	4294      	cmp	r4, r2
 8024b66:	bf04      	itt	eq
 8024b68:	2200      	moveq	r2, #0
 8024b6a:	601a      	streq	r2, [r3, #0]
 8024b6c:	691a      	ldr	r2, [r3, #16]
 8024b6e:	4294      	cmp	r4, r2
 8024b70:	f47f aed7 	bne.w	8024922 <find_volume+0x42>
 8024b74:	2200      	movs	r2, #0
 8024b76:	611a      	str	r2, [r3, #16]
 8024b78:	e6d3      	b.n	8024922 <find_volume+0x42>
 8024b7a:	2003      	movs	r0, #3
 8024b7c:	3701      	adds	r7, #1
 8024b7e:	2f04      	cmp	r7, #4
 8024b80:	f47f af0b 	bne.w	802499a <find_volume+0xba>
 8024b84:	2804      	cmp	r0, #4
 8024b86:	d105      	bne.n	8024b94 <find_volume+0x2b4>
 8024b88:	e6e3      	b.n	8024952 <find_volume+0x72>
 8024b8a:	2804      	cmp	r0, #4
 8024b8c:	f43f aee1 	beq.w	8024952 <find_volume+0x72>
 8024b90:	2801      	cmp	r0, #1
 8024b92:	d901      	bls.n	8024b98 <find_volume+0x2b8>
 8024b94:	250d      	movs	r5, #13
 8024b96:	e6c4      	b.n	8024922 <find_volume+0x42>
 8024b98:	46ab      	mov	fp, r5
 8024b9a:	e70b      	b.n	80249b4 <find_volume+0xd4>
 8024b9c:	f04f 0903 	mov.w	r9, #3
 8024ba0:	e778      	b.n	8024a94 <find_volume+0x1b4>
 8024ba2:	f1b8 0f00 	cmp.w	r8, #0
 8024ba6:	d0f5      	beq.n	8024b94 <find_volume+0x2b4>
 8024ba8:	f1b9 0f02 	cmp.w	r9, #2
 8024bac:	ea4f 0347 	mov.w	r3, r7, lsl #1
 8024bb0:	4462      	add	r2, ip
 8024bb2:	bf1a      	itte	ne
 8024bb4:	19db      	addne	r3, r3, r7
 8024bb6:	f007 0701 	andne.w	r7, r7, #1
 8024bba:	461f      	moveq	r7, r3
 8024bbc:	62a2      	str	r2, [r4, #40]	; 0x28
 8024bbe:	bf18      	it	ne
 8024bc0:	eb07 0753 	addne.w	r7, r7, r3, lsr #1
 8024bc4:	e782      	b.n	8024acc <find_volume+0x1ec>
 8024bc6:	250b      	movs	r5, #11
 8024bc8:	e6ab      	b.n	8024922 <find_volume+0x42>
 8024bca:	250c      	movs	r5, #12
 8024bcc:	e6a9      	b.n	8024922 <find_volume+0x42>
 8024bce:	2503      	movs	r5, #3
 8024bd0:	e6a7      	b.n	8024922 <find_volume+0x42>
 8024bd2:	bf00      	nop
 8024bd4:	20000570 	.word	0x20000570
 8024bd8:	41615252 	.word	0x41615252
 8024bdc:	61417272 	.word	0x61417272
 8024be0:	20000594 	.word	0x20000594
 8024be4:	20000574 	.word	0x20000574

08024be8 <put_fat>:
 8024be8:	2901      	cmp	r1, #1
 8024bea:	e92d 47f0 	stmdb	sp!, {r4, r5, r6, r7, r8, r9, sl, lr}
 8024bee:	4604      	mov	r4, r0
 8024bf0:	460e      	mov	r6, r1
 8024bf2:	4617      	mov	r7, r2
 8024bf4:	f240 808b 	bls.w	8024d0e <put_fat+0x126>
 8024bf8:	6983      	ldr	r3, [r0, #24]
 8024bfa:	428b      	cmp	r3, r1
 8024bfc:	f240 8087 	bls.w	8024d0e <put_fat+0x126>
 8024c00:	7803      	ldrb	r3, [r0, #0]
 8024c02:	2b02      	cmp	r3, #2
 8024c04:	d049      	beq.n	8024c9a <put_fat+0xb2>
 8024c06:	2b03      	cmp	r3, #3
 8024c08:	d060      	beq.n	8024ccc <put_fat+0xe4>
 8024c0a:	2b01      	cmp	r3, #1
 8024c0c:	d17f      	bne.n	8024d0e <put_fat+0x126>
 8024c0e:	eb01 0a51 	add.w	sl, r1, r1, lsr #1
 8024c12:	8983      	ldrh	r3, [r0, #12]
 8024c14:	6a41      	ldr	r1, [r0, #36]	; 0x24
 8024c16:	fbba f3f3 	udiv	r3, sl, r3
 8024c1a:	4419      	add	r1, r3
 8024c1c:	f7ff fe08 	bl	8024830 <move_window>
 8024c20:	4605      	mov	r5, r0
 8024c22:	bb78      	cbnz	r0, 8024c84 <put_fat+0x9c>
 8024c24:	89a3      	ldrh	r3, [r4, #12]
 8024c26:	f016 0601 	ands.w	r6, r6, #1
 8024c2a:	f104 0834 	add.w	r8, r4, #52	; 0x34
 8024c2e:	f10a 0901 	add.w	r9, sl, #1
 8024c32:	4620      	mov	r0, r4
 8024c34:	fbba f2f3 	udiv	r2, sl, r3
 8024c38:	fb03 a212 	mls	r2, r3, r2, sl
 8024c3c:	bf0f      	iteee	eq
 8024c3e:	b2fb      	uxtbeq	r3, r7
 8024c40:	f818 3002 	ldrbne.w	r3, [r8, r2]
 8024c44:	f003 010f 	andne.w	r1, r3, #15
 8024c48:	013b      	lslne	r3, r7, #4
 8024c4a:	bf1c      	itt	ne
 8024c4c:	f003 03f0 	andne.w	r3, r3, #240	; 0xf0
 8024c50:	430b      	orrne	r3, r1
 8024c52:	f808 3002 	strb.w	r3, [r8, r2]
 8024c56:	2301      	movs	r3, #1
 8024c58:	6a61      	ldr	r1, [r4, #36]	; 0x24
 8024c5a:	70e3      	strb	r3, [r4, #3]
 8024c5c:	89a3      	ldrh	r3, [r4, #12]
 8024c5e:	fbb9 f3f3 	udiv	r3, r9, r3
 8024c62:	4419      	add	r1, r3
 8024c64:	f7ff fde4 	bl	8024830 <move_window>
 8024c68:	4605      	mov	r5, r0
 8024c6a:	b958      	cbnz	r0, 8024c84 <put_fat+0x9c>
 8024c6c:	89a3      	ldrh	r3, [r4, #12]
 8024c6e:	fbb9 f0f3 	udiv	r0, r9, r3
 8024c72:	fb03 9010 	mls	r0, r3, r0, r9
 8024c76:	b146      	cbz	r6, 8024c8a <put_fat+0xa2>
 8024c78:	f3c7 1707 	ubfx	r7, r7, #4, #8
 8024c7c:	f808 7000 	strb.w	r7, [r8, r0]
 8024c80:	2301      	movs	r3, #1
 8024c82:	70e3      	strb	r3, [r4, #3]
 8024c84:	4628      	mov	r0, r5
 8024c86:	e8bd 87f0 	ldmia.w	sp!, {r4, r5, r6, r7, r8, r9, sl, pc}
 8024c8a:	f818 3000 	ldrb.w	r3, [r8, r0]
 8024c8e:	f3c7 2703 	ubfx	r7, r7, #8, #4
 8024c92:	f023 030f 	bic.w	r3, r3, #15
 8024c96:	431f      	orrs	r7, r3
 8024c98:	e7f0      	b.n	8024c7c <put_fat+0x94>
 8024c9a:	8983      	ldrh	r3, [r0, #12]
 8024c9c:	085b      	lsrs	r3, r3, #1
 8024c9e:	fbb1 f3f3 	udiv	r3, r1, r3
 8024ca2:	6a41      	ldr	r1, [r0, #36]	; 0x24
 8024ca4:	4419      	add	r1, r3
 8024ca6:	f7ff fdc3 	bl	8024830 <move_window>
 8024caa:	4605      	mov	r5, r0
 8024cac:	2800      	cmp	r0, #0
 8024cae:	d1e9      	bne.n	8024c84 <put_fat+0x9c>
 8024cb0:	89a0      	ldrh	r0, [r4, #12]
 8024cb2:	0076      	lsls	r6, r6, #1
 8024cb4:	f104 0234 	add.w	r2, r4, #52	; 0x34
 8024cb8:	fbb6 f3f0 	udiv	r3, r6, r0
 8024cbc:	fb00 6613 	mls	r6, r0, r3, r6
 8024cc0:	5597      	strb	r7, [r2, r6]
 8024cc2:	1993      	adds	r3, r2, r6
 8024cc4:	f3c7 2707 	ubfx	r7, r7, #8, #8
 8024cc8:	705f      	strb	r7, [r3, #1]
 8024cca:	e7d9      	b.n	8024c80 <put_fat+0x98>
 8024ccc:	8983      	ldrh	r3, [r0, #12]
 8024cce:	089b      	lsrs	r3, r3, #2
 8024cd0:	fbb1 f3f3 	udiv	r3, r1, r3
 8024cd4:	6a41      	ldr	r1, [r0, #36]	; 0x24
 8024cd6:	4419      	add	r1, r3
 8024cd8:	f7ff fdaa 	bl	8024830 <move_window>
 8024cdc:	4605      	mov	r5, r0
 8024cde:	2800      	cmp	r0, #0
 8024ce0:	d1d0      	bne.n	8024c84 <put_fat+0x9c>
 8024ce2:	89a2      	ldrh	r2, [r4, #12]
 8024ce4:	00b6      	lsls	r6, r6, #2
 8024ce6:	f104 0334 	add.w	r3, r4, #52	; 0x34
 8024cea:	f027 4770 	bic.w	r7, r7, #4026531840	; 0xf0000000
 8024cee:	fbb6 f1f2 	udiv	r1, r6, r2
 8024cf2:	fb02 6611 	mls	r6, r2, r1, r6
 8024cf6:	441e      	add	r6, r3
 8024cf8:	4630      	mov	r0, r6
 8024cfa:	f7ff fc49 	bl	8024590 <ld_dword>
 8024cfe:	f000 4070 	and.w	r0, r0, #4026531840	; 0xf0000000
 8024d02:	ea47 0100 	orr.w	r1, r7, r0
 8024d06:	4630      	mov	r0, r6
 8024d08:	f7ff fc4a 	bl	80245a0 <st_dword>
 8024d0c:	e7b8      	b.n	8024c80 <put_fat+0x98>
 8024d0e:	2502      	movs	r5, #2
 8024d10:	e7b8      	b.n	8024c84 <put_fat+0x9c>

08024d12 <get_fat.isra.0>:
 8024d12:	2901      	cmp	r1, #1
 8024d14:	b5f8      	push	{r3, r4, r5, r6, r7, lr}
 8024d16:	4604      	mov	r4, r0
 8024d18:	460e      	mov	r6, r1
 8024d1a:	d968      	bls.n	8024dee <get_fat.isra.0+0xdc>
 8024d1c:	6983      	ldr	r3, [r0, #24]
 8024d1e:	4299      	cmp	r1, r3
 8024d20:	d265      	bcs.n	8024dee <get_fat.isra.0+0xdc>
 8024d22:	7803      	ldrb	r3, [r0, #0]
 8024d24:	2b02      	cmp	r3, #2
 8024d26:	d032      	beq.n	8024d8e <get_fat.isra.0+0x7c>
 8024d28:	2b03      	cmp	r3, #3
 8024d2a:	d048      	beq.n	8024dbe <get_fat.isra.0+0xac>
 8024d2c:	2b01      	cmp	r3, #1
 8024d2e:	d15e      	bne.n	8024dee <get_fat.isra.0+0xdc>
 8024d30:	eb01 0551 	add.w	r5, r1, r1, lsr #1
 8024d34:	8983      	ldrh	r3, [r0, #12]
 8024d36:	6a41      	ldr	r1, [r0, #36]	; 0x24
 8024d38:	fbb5 f3f3 	udiv	r3, r5, r3
 8024d3c:	4419      	add	r1, r3
 8024d3e:	f7ff fd77 	bl	8024830 <move_window>
 8024d42:	b110      	cbz	r0, 8024d4a <get_fat.isra.0+0x38>
 8024d44:	f04f 30ff 	mov.w	r0, #4294967295	; 0xffffffff
 8024d48:	bdf8      	pop	{r3, r4, r5, r6, r7, pc}
 8024d4a:	89a1      	ldrh	r1, [r4, #12]
 8024d4c:	1c6f      	adds	r7, r5, #1
 8024d4e:	4620      	mov	r0, r4
 8024d50:	fbb5 f3f1 	udiv	r3, r5, r1
 8024d54:	fb01 5313 	mls	r3, r1, r3, r5
 8024d58:	fbb7 f1f1 	udiv	r1, r7, r1
 8024d5c:	4423      	add	r3, r4
 8024d5e:	f893 5034 	ldrb.w	r5, [r3, #52]	; 0x34
 8024d62:	6a63      	ldr	r3, [r4, #36]	; 0x24
 8024d64:	4419      	add	r1, r3
 8024d66:	f7ff fd63 	bl	8024830 <move_window>
 8024d6a:	2800      	cmp	r0, #0
 8024d6c:	d1ea      	bne.n	8024d44 <get_fat.isra.0+0x32>
 8024d6e:	89a3      	ldrh	r3, [r4, #12]
 8024d70:	fbb7 f0f3 	udiv	r0, r7, r3
 8024d74:	fb03 7010 	mls	r0, r3, r0, r7
 8024d78:	07f3      	lsls	r3, r6, #31
 8024d7a:	4404      	add	r4, r0
 8024d7c:	f894 0034 	ldrb.w	r0, [r4, #52]	; 0x34
 8024d80:	ea45 2000 	orr.w	r0, r5, r0, lsl #8
 8024d84:	bf4c      	ite	mi
 8024d86:	0900      	lsrmi	r0, r0, #4
 8024d88:	f3c0 000b 	ubfxpl	r0, r0, #0, #12
 8024d8c:	e7dc      	b.n	8024d48 <get_fat.isra.0+0x36>
 8024d8e:	8983      	ldrh	r3, [r0, #12]
 8024d90:	085b      	lsrs	r3, r3, #1
 8024d92:	fbb1 f3f3 	udiv	r3, r1, r3
 8024d96:	6a41      	ldr	r1, [r0, #36]	; 0x24
 8024d98:	4419      	add	r1, r3
 8024d9a:	f7ff fd49 	bl	8024830 <move_window>
 8024d9e:	2800      	cmp	r0, #0
 8024da0:	d1d0      	bne.n	8024d44 <get_fat.isra.0+0x32>
 8024da2:	f104 0234 	add.w	r2, r4, #52	; 0x34
 8024da6:	0076      	lsls	r6, r6, #1
 8024da8:	89a4      	ldrh	r4, [r4, #12]
 8024daa:	fbb6 f3f4 	udiv	r3, r6, r4
 8024dae:	fb04 6613 	mls	r6, r4, r3, r6
 8024db2:	1993      	adds	r3, r2, r6
 8024db4:	5d90      	ldrb	r0, [r2, r6]
 8024db6:	785b      	ldrb	r3, [r3, #1]
 8024db8:	ea40 2003 	orr.w	r0, r0, r3, lsl #8
 8024dbc:	e7c4      	b.n	8024d48 <get_fat.isra.0+0x36>
 8024dbe:	8983      	ldrh	r3, [r0, #12]
 8024dc0:	089b      	lsrs	r3, r3, #2
 8024dc2:	fbb1 f3f3 	udiv	r3, r1, r3
 8024dc6:	6a41      	ldr	r1, [r0, #36]	; 0x24
 8024dc8:	4419      	add	r1, r3
 8024dca:	f7ff fd31 	bl	8024830 <move_window>
 8024dce:	2800      	cmp	r0, #0
 8024dd0:	d1b8      	bne.n	8024d44 <get_fat.isra.0+0x32>
 8024dd2:	89a3      	ldrh	r3, [r4, #12]
 8024dd4:	00b6      	lsls	r6, r6, #2
 8024dd6:	f104 0034 	add.w	r0, r4, #52	; 0x34
 8024dda:	fbb6 f1f3 	udiv	r1, r6, r3
 8024dde:	fb03 6611 	mls	r6, r3, r1, r6
 8024de2:	4430      	add	r0, r6
 8024de4:	f7ff fbd4 	bl	8024590 <ld_dword>
 8024de8:	f020 4070 	bic.w	r0, r0, #4026531840	; 0xf0000000
 8024dec:	e7ac      	b.n	8024d48 <get_fat.isra.0+0x36>
 8024dee:	2001      	movs	r0, #1
 8024df0:	e7aa      	b.n	8024d48 <get_fat.isra.0+0x36>

08024df2 <create_chain>:
 8024df2:	e92d 41f0 	stmdb	sp!, {r4, r5, r6, r7, r8, lr}
 8024df6:	4680      	mov	r8, r0
 8024df8:	6805      	ldr	r5, [r0, #0]
 8024dfa:	460f      	mov	r7, r1
 8024dfc:	b971      	cbnz	r1, 8024e1c <create_chain+0x2a>
 8024dfe:	692e      	ldr	r6, [r5, #16]
 8024e00:	b1ee      	cbz	r6, 8024e3e <create_chain+0x4c>
 8024e02:	69ab      	ldr	r3, [r5, #24]
 8024e04:	42b3      	cmp	r3, r6
 8024e06:	bf98      	it	ls
 8024e08:	2601      	movls	r6, #1
 8024e0a:	4634      	mov	r4, r6
 8024e0c:	3401      	adds	r4, #1
 8024e0e:	69ab      	ldr	r3, [r5, #24]
 8024e10:	42a3      	cmp	r3, r4
 8024e12:	d817      	bhi.n	8024e44 <create_chain+0x52>
 8024e14:	2e01      	cmp	r6, #1
 8024e16:	d814      	bhi.n	8024e42 <create_chain+0x50>
 8024e18:	2400      	movs	r4, #0
 8024e1a:	e006      	b.n	8024e2a <create_chain+0x38>
 8024e1c:	4628      	mov	r0, r5
 8024e1e:	f7ff ff78 	bl	8024d12 <get_fat.isra.0>
 8024e22:	2801      	cmp	r0, #1
 8024e24:	4604      	mov	r4, r0
 8024e26:	d803      	bhi.n	8024e30 <create_chain+0x3e>
 8024e28:	2401      	movs	r4, #1
 8024e2a:	4620      	mov	r0, r4
 8024e2c:	e8bd 81f0 	ldmia.w	sp!, {r4, r5, r6, r7, r8, pc}
 8024e30:	1c43      	adds	r3, r0, #1
 8024e32:	d030      	beq.n	8024e96 <create_chain+0xa4>
 8024e34:	69ab      	ldr	r3, [r5, #24]
 8024e36:	4283      	cmp	r3, r0
 8024e38:	d8f7      	bhi.n	8024e2a <create_chain+0x38>
 8024e3a:	463e      	mov	r6, r7
 8024e3c:	e7e5      	b.n	8024e0a <create_chain+0x18>
 8024e3e:	2601      	movs	r6, #1
 8024e40:	e7e3      	b.n	8024e0a <create_chain+0x18>
 8024e42:	2402      	movs	r4, #2
 8024e44:	4621      	mov	r1, r4
 8024e46:	f8d8 0000 	ldr.w	r0, [r8]
 8024e4a:	f7ff ff62 	bl	8024d12 <get_fat.isra.0>
 8024e4e:	b130      	cbz	r0, 8024e5e <create_chain+0x6c>
 8024e50:	2801      	cmp	r0, #1
 8024e52:	d0e9      	beq.n	8024e28 <create_chain+0x36>
 8024e54:	3001      	adds	r0, #1
 8024e56:	d01e      	beq.n	8024e96 <create_chain+0xa4>
 8024e58:	42b4      	cmp	r4, r6
 8024e5a:	d1d7      	bne.n	8024e0c <create_chain+0x1a>
 8024e5c:	e7dc      	b.n	8024e18 <create_chain+0x26>
 8024e5e:	f04f 32ff 	mov.w	r2, #4294967295	; 0xffffffff
 8024e62:	4621      	mov	r1, r4
 8024e64:	4628      	mov	r0, r5
 8024e66:	f7ff febf 	bl	8024be8 <put_fat>
 8024e6a:	b990      	cbnz	r0, 8024e92 <create_chain+0xa0>
 8024e6c:	b957      	cbnz	r7, 8024e84 <create_chain+0x92>
 8024e6e:	612c      	str	r4, [r5, #16]
 8024e70:	e9d5 3205 	ldrd	r3, r2, [r5, #20]
 8024e74:	3a02      	subs	r2, #2
 8024e76:	4293      	cmp	r3, r2
 8024e78:	d910      	bls.n	8024e9c <create_chain+0xaa>
 8024e7a:	792b      	ldrb	r3, [r5, #4]
 8024e7c:	f043 0301 	orr.w	r3, r3, #1
 8024e80:	712b      	strb	r3, [r5, #4]
 8024e82:	e7d2      	b.n	8024e2a <create_chain+0x38>
 8024e84:	4622      	mov	r2, r4
 8024e86:	4639      	mov	r1, r7
 8024e88:	4628      	mov	r0, r5
 8024e8a:	f7ff fead 	bl	8024be8 <put_fat>
 8024e8e:	2800      	cmp	r0, #0
 8024e90:	d0ed      	beq.n	8024e6e <create_chain+0x7c>
 8024e92:	2801      	cmp	r0, #1
 8024e94:	d1c8      	bne.n	8024e28 <create_chain+0x36>
 8024e96:	f04f 34ff 	mov.w	r4, #4294967295	; 0xffffffff
 8024e9a:	e7c6      	b.n	8024e2a <create_chain+0x38>
 8024e9c:	3b01      	subs	r3, #1
 8024e9e:	616b      	str	r3, [r5, #20]
 8024ea0:	e7eb      	b.n	8024e7a <create_chain+0x88>

08024ea2 <remove_chain>:
 8024ea2:	b573      	push	{r0, r1, r4, r5, r6, lr}
 8024ea4:	460c      	mov	r4, r1
 8024ea6:	4606      	mov	r6, r0
 8024ea8:	4611      	mov	r1, r2
 8024eaa:	6805      	ldr	r5, [r0, #0]
 8024eac:	2c01      	cmp	r4, #1
 8024eae:	d92c      	bls.n	8024f0a <remove_chain+0x68>
 8024eb0:	69ab      	ldr	r3, [r5, #24]
 8024eb2:	42a3      	cmp	r3, r4
 8024eb4:	d929      	bls.n	8024f0a <remove_chain+0x68>
 8024eb6:	b12a      	cbz	r2, 8024ec4 <remove_chain+0x22>
 8024eb8:	f04f 32ff 	mov.w	r2, #4294967295	; 0xffffffff
 8024ebc:	4628      	mov	r0, r5
 8024ebe:	f7ff fe93 	bl	8024be8 <put_fat>
 8024ec2:	b940      	cbnz	r0, 8024ed6 <remove_chain+0x34>
 8024ec4:	4621      	mov	r1, r4
 8024ec6:	6830      	ldr	r0, [r6, #0]
 8024ec8:	9401      	str	r4, [sp, #4]
 8024eca:	f7ff ff22 	bl	8024d12 <get_fat.isra.0>
 8024ece:	9901      	ldr	r1, [sp, #4]
 8024ed0:	4604      	mov	r4, r0
 8024ed2:	b910      	cbnz	r0, 8024eda <remove_chain+0x38>
 8024ed4:	2000      	movs	r0, #0
 8024ed6:	b002      	add	sp, #8
 8024ed8:	bd70      	pop	{r4, r5, r6, pc}
 8024eda:	2801      	cmp	r0, #1
 8024edc:	d015      	beq.n	8024f0a <remove_chain+0x68>
 8024ede:	1c43      	adds	r3, r0, #1
 8024ee0:	d015      	beq.n	8024f0e <remove_chain+0x6c>
 8024ee2:	2200      	movs	r2, #0
 8024ee4:	4628      	mov	r0, r5
 8024ee6:	f7ff fe7f 	bl	8024be8 <put_fat>
 8024eea:	2800      	cmp	r0, #0
 8024eec:	d1f3      	bne.n	8024ed6 <remove_chain+0x34>
 8024eee:	e9d5 3205 	ldrd	r3, r2, [r5, #20]
 8024ef2:	1e91      	subs	r1, r2, #2
 8024ef4:	428b      	cmp	r3, r1
 8024ef6:	d205      	bcs.n	8024f04 <remove_chain+0x62>
 8024ef8:	3301      	adds	r3, #1
 8024efa:	616b      	str	r3, [r5, #20]
 8024efc:	792b      	ldrb	r3, [r5, #4]
 8024efe:	f043 0301 	orr.w	r3, r3, #1
 8024f02:	712b      	strb	r3, [r5, #4]
 8024f04:	42a2      	cmp	r2, r4
 8024f06:	d8dd      	bhi.n	8024ec4 <remove_chain+0x22>
 8024f08:	e7e4      	b.n	8024ed4 <remove_chain+0x32>
 8024f0a:	2002      	movs	r0, #2
 8024f0c:	e7e3      	b.n	8024ed6 <remove_chain+0x34>
 8024f0e:	2001      	movs	r0, #1
 8024f10:	e7e1      	b.n	8024ed6 <remove_chain+0x34>

08024f12 <sync_fs>:
 8024f12:	b5f8      	push	{r3, r4, r5, r6, r7, lr}
 8024f14:	4604      	mov	r4, r0
 8024f16:	f7ff fc85 	bl	8024824 <sync_window>
 8024f1a:	4605      	mov	r5, r0
 8024f1c:	2800      	cmp	r0, #0
 8024f1e:	d141      	bne.n	8024fa4 <sync_fs+0x92>
 8024f20:	7823      	ldrb	r3, [r4, #0]
 8024f22:	2b03      	cmp	r3, #3
 8024f24:	d136      	bne.n	8024f94 <sync_fs+0x82>
 8024f26:	7927      	ldrb	r7, [r4, #4]
 8024f28:	2f01      	cmp	r7, #1
 8024f2a:	d133      	bne.n	8024f94 <sync_fs+0x82>
 8024f2c:	f104 0634 	add.w	r6, r4, #52	; 0x34
 8024f30:	4601      	mov	r1, r0
 8024f32:	89a2      	ldrh	r2, [r4, #12]
 8024f34:	4630      	mov	r0, r6
 8024f36:	f7ff fb3b 	bl	80245b0 <mem_set>
 8024f3a:	2355      	movs	r3, #85	; 0x55
 8024f3c:	2241      	movs	r2, #65	; 0x41
 8024f3e:	2172      	movs	r1, #114	; 0x72
 8024f40:	f884 3232 	strb.w	r3, [r4, #562]	; 0x232
 8024f44:	23aa      	movs	r3, #170	; 0xaa
 8024f46:	f884 2037 	strb.w	r2, [r4, #55]	; 0x37
 8024f4a:	f504 7007 	add.w	r0, r4, #540	; 0x21c
 8024f4e:	f884 3233 	strb.w	r3, [r4, #563]	; 0x233
 8024f52:	2352      	movs	r3, #82	; 0x52
 8024f54:	f884 221a 	strb.w	r2, [r4, #538]	; 0x21a
 8024f58:	f884 3034 	strb.w	r3, [r4, #52]	; 0x34
 8024f5c:	f884 3035 	strb.w	r3, [r4, #53]	; 0x35
 8024f60:	2361      	movs	r3, #97	; 0x61
 8024f62:	f884 1218 	strb.w	r1, [r4, #536]	; 0x218
 8024f66:	f884 3036 	strb.w	r3, [r4, #54]	; 0x36
 8024f6a:	f884 321b 	strb.w	r3, [r4, #539]	; 0x21b
 8024f6e:	f884 1219 	strb.w	r1, [r4, #537]	; 0x219
 8024f72:	6961      	ldr	r1, [r4, #20]
 8024f74:	f7ff fb14 	bl	80245a0 <st_dword>
 8024f78:	6921      	ldr	r1, [r4, #16]
 8024f7a:	f504 7008 	add.w	r0, r4, #544	; 0x220
 8024f7e:	f7ff fb0f 	bl	80245a0 <st_dword>
 8024f82:	6a22      	ldr	r2, [r4, #32]
 8024f84:	463b      	mov	r3, r7
 8024f86:	4631      	mov	r1, r6
 8024f88:	3201      	adds	r2, #1
 8024f8a:	7860      	ldrb	r0, [r4, #1]
 8024f8c:	6322      	str	r2, [r4, #48]	; 0x30
 8024f8e:	f7ff fae3 	bl	8024558 <disk_write>
 8024f92:	7125      	strb	r5, [r4, #4]
 8024f94:	2200      	movs	r2, #0
 8024f96:	7860      	ldrb	r0, [r4, #1]
 8024f98:	4611      	mov	r1, r2
 8024f9a:	f7ff faeb 	bl	8024574 <disk_ioctl>
 8024f9e:	3800      	subs	r0, #0
 8024fa0:	bf18      	it	ne
 8024fa2:	2001      	movne	r0, #1
 8024fa4:	bdf8      	pop	{r3, r4, r5, r6, r7, pc}

08024fa6 <dir_sdi.constprop.0>:
 8024fa6:	b538      	push	{r3, r4, r5, lr}
 8024fa8:	6882      	ldr	r2, [r0, #8]
 8024faa:	2300      	movs	r3, #0
 8024fac:	4604      	mov	r4, r0
 8024fae:	6805      	ldr	r5, [r0, #0]
 8024fb0:	6143      	str	r3, [r0, #20]
 8024fb2:	b99a      	cbnz	r2, 8024fdc <dir_sdi.constprop.0+0x36>
 8024fb4:	782b      	ldrb	r3, [r5, #0]
 8024fb6:	2b02      	cmp	r3, #2
 8024fb8:	d901      	bls.n	8024fbe <dir_sdi.constprop.0+0x18>
 8024fba:	6aab      	ldr	r3, [r5, #40]	; 0x28
 8024fbc:	b96b      	cbnz	r3, 8024fda <dir_sdi.constprop.0+0x34>
 8024fbe:	892b      	ldrh	r3, [r5, #8]
 8024fc0:	b90b      	cbnz	r3, 8024fc6 <dir_sdi.constprop.0+0x20>
 8024fc2:	2002      	movs	r0, #2
 8024fc4:	bd38      	pop	{r3, r4, r5, pc}
 8024fc6:	6aab      	ldr	r3, [r5, #40]	; 0x28
 8024fc8:	61e3      	str	r3, [r4, #28]
 8024fca:	69e3      	ldr	r3, [r4, #28]
 8024fcc:	61a2      	str	r2, [r4, #24]
 8024fce:	2b00      	cmp	r3, #0
 8024fd0:	d0f7      	beq.n	8024fc2 <dir_sdi.constprop.0+0x1c>
 8024fd2:	3534      	adds	r5, #52	; 0x34
 8024fd4:	2000      	movs	r0, #0
 8024fd6:	6225      	str	r5, [r4, #32]
 8024fd8:	e7f4      	b.n	8024fc4 <dir_sdi.constprop.0+0x1e>
 8024fda:	461a      	mov	r2, r3
 8024fdc:	896b      	ldrh	r3, [r5, #10]
 8024fde:	89a9      	ldrh	r1, [r5, #12]
 8024fe0:	4359      	muls	r1, r3
 8024fe2:	d10c      	bne.n	8024ffe <dir_sdi.constprop.0+0x58>
 8024fe4:	4611      	mov	r1, r2
 8024fe6:	6820      	ldr	r0, [r4, #0]
 8024fe8:	f7ff fe93 	bl	8024d12 <get_fat.isra.0>
 8024fec:	1c43      	adds	r3, r0, #1
 8024fee:	4602      	mov	r2, r0
 8024ff0:	d00b      	beq.n	802500a <dir_sdi.constprop.0+0x64>
 8024ff2:	2801      	cmp	r0, #1
 8024ff4:	d9e5      	bls.n	8024fc2 <dir_sdi.constprop.0+0x1c>
 8024ff6:	69ab      	ldr	r3, [r5, #24]
 8024ff8:	4298      	cmp	r0, r3
 8024ffa:	d3f3      	bcc.n	8024fe4 <dir_sdi.constprop.0+0x3e>
 8024ffc:	e7e1      	b.n	8024fc2 <dir_sdi.constprop.0+0x1c>
 8024ffe:	4611      	mov	r1, r2
 8025000:	4628      	mov	r0, r5
 8025002:	f7ff fb75 	bl	80246f0 <clust2sect>
 8025006:	61e0      	str	r0, [r4, #28]
 8025008:	e7df      	b.n	8024fca <dir_sdi.constprop.0+0x24>
 802500a:	2001      	movs	r0, #1
 802500c:	e7da      	b.n	8024fc4 <dir_sdi.constprop.0+0x1e>

0802500e <dir_next>:
 802500e:	e92d 43f8 	stmdb	sp!, {r3, r4, r5, r6, r7, r8, r9, lr}
 8025012:	6947      	ldr	r7, [r0, #20]
 8025014:	4605      	mov	r5, r0
 8025016:	69c3      	ldr	r3, [r0, #28]
 8025018:	4689      	mov	r9, r1
 802501a:	3720      	adds	r7, #32
 802501c:	b1a3      	cbz	r3, 8025048 <dir_next+0x3a>
 802501e:	f5b7 1f00 	cmp.w	r7, #2097152	; 0x200000
 8025022:	d211      	bcs.n	8025048 <dir_next+0x3a>
 8025024:	6804      	ldr	r4, [r0, #0]
 8025026:	89a2      	ldrh	r2, [r4, #12]
 8025028:	fbb7 f0f2 	udiv	r0, r7, r2
 802502c:	fb02 7210 	mls	r2, r2, r0, r7
 8025030:	2a00      	cmp	r2, #0
 8025032:	d14f      	bne.n	80250d4 <dir_next+0xc6>
 8025034:	3301      	adds	r3, #1
 8025036:	69a9      	ldr	r1, [r5, #24]
 8025038:	61eb      	str	r3, [r5, #28]
 802503a:	b939      	cbnz	r1, 802504c <dir_next+0x3e>
 802503c:	8923      	ldrh	r3, [r4, #8]
 802503e:	ebb3 1f57 	cmp.w	r3, r7, lsr #5
 8025042:	d847      	bhi.n	80250d4 <dir_next+0xc6>
 8025044:	2300      	movs	r3, #0
 8025046:	61eb      	str	r3, [r5, #28]
 8025048:	2004      	movs	r0, #4
 802504a:	e00d      	b.n	8025068 <dir_next+0x5a>
 802504c:	f8b4 800a 	ldrh.w	r8, [r4, #10]
 8025050:	f108 38ff 	add.w	r8, r8, #4294967295	; 0xffffffff
 8025054:	ea18 0800 	ands.w	r8, r8, r0
 8025058:	d13c      	bne.n	80250d4 <dir_next+0xc6>
 802505a:	4620      	mov	r0, r4
 802505c:	f7ff fe59 	bl	8024d12 <get_fat.isra.0>
 8025060:	2801      	cmp	r0, #1
 8025062:	4606      	mov	r6, r0
 8025064:	d802      	bhi.n	802506c <dir_next+0x5e>
 8025066:	2002      	movs	r0, #2
 8025068:	e8bd 83f8 	ldmia.w	sp!, {r3, r4, r5, r6, r7, r8, r9, pc}
 802506c:	1c42      	adds	r2, r0, #1
 802506e:	d101      	bne.n	8025074 <dir_next+0x66>
 8025070:	2001      	movs	r0, #1
 8025072:	e7f9      	b.n	8025068 <dir_next+0x5a>
 8025074:	69a3      	ldr	r3, [r4, #24]
 8025076:	4283      	cmp	r3, r0
 8025078:	d826      	bhi.n	80250c8 <dir_next+0xba>
 802507a:	f1b9 0f00 	cmp.w	r9, #0
 802507e:	d0e1      	beq.n	8025044 <dir_next+0x36>
 8025080:	69a9      	ldr	r1, [r5, #24]
 8025082:	4628      	mov	r0, r5
 8025084:	f7ff feb5 	bl	8024df2 <create_chain>
 8025088:	4606      	mov	r6, r0
 802508a:	2800      	cmp	r0, #0
 802508c:	d03b      	beq.n	8025106 <dir_next+0xf8>
 802508e:	2801      	cmp	r0, #1
 8025090:	d0e9      	beq.n	8025066 <dir_next+0x58>
 8025092:	1c43      	adds	r3, r0, #1
 8025094:	d0ec      	beq.n	8025070 <dir_next+0x62>
 8025096:	4620      	mov	r0, r4
 8025098:	f7ff fbc4 	bl	8024824 <sync_window>
 802509c:	4601      	mov	r1, r0
 802509e:	2800      	cmp	r0, #0
 80250a0:	d1e6      	bne.n	8025070 <dir_next+0x62>
 80250a2:	89a2      	ldrh	r2, [r4, #12]
 80250a4:	f104 0034 	add.w	r0, r4, #52	; 0x34
 80250a8:	f04f 0901 	mov.w	r9, #1
 80250ac:	f7ff fa80 	bl	80245b0 <mem_set>
 80250b0:	4631      	mov	r1, r6
 80250b2:	4620      	mov	r0, r4
 80250b4:	f7ff fb1c 	bl	80246f0 <clust2sect>
 80250b8:	6320      	str	r0, [r4, #48]	; 0x30
 80250ba:	8963      	ldrh	r3, [r4, #10]
 80250bc:	4598      	cmp	r8, r3
 80250be:	d315      	bcc.n	80250ec <dir_next+0xde>
 80250c0:	6b23      	ldr	r3, [r4, #48]	; 0x30
 80250c2:	eba3 0308 	sub.w	r3, r3, r8
 80250c6:	6323      	str	r3, [r4, #48]	; 0x30
 80250c8:	4631      	mov	r1, r6
 80250ca:	4620      	mov	r0, r4
 80250cc:	61ae      	str	r6, [r5, #24]
 80250ce:	f7ff fb0f 	bl	80246f0 <clust2sect>
 80250d2:	61e8      	str	r0, [r5, #28]
 80250d4:	89a1      	ldrh	r1, [r4, #12]
 80250d6:	f104 0334 	add.w	r3, r4, #52	; 0x34
 80250da:	616f      	str	r7, [r5, #20]
 80250dc:	2000      	movs	r0, #0
 80250de:	fbb7 f2f1 	udiv	r2, r7, r1
 80250e2:	fb01 7712 	mls	r7, r1, r2, r7
 80250e6:	441f      	add	r7, r3
 80250e8:	622f      	str	r7, [r5, #32]
 80250ea:	e7bd      	b.n	8025068 <dir_next+0x5a>
 80250ec:	4620      	mov	r0, r4
 80250ee:	f884 9003 	strb.w	r9, [r4, #3]
 80250f2:	f7ff fb71 	bl	80247d8 <sync_window.part.0>
 80250f6:	2800      	cmp	r0, #0
 80250f8:	d1ba      	bne.n	8025070 <dir_next+0x62>
 80250fa:	6b23      	ldr	r3, [r4, #48]	; 0x30
 80250fc:	f108 0801 	add.w	r8, r8, #1
 8025100:	3301      	adds	r3, #1
 8025102:	6323      	str	r3, [r4, #48]	; 0x30
 8025104:	e7d9      	b.n	80250ba <dir_next+0xac>
 8025106:	2007      	movs	r0, #7
 8025108:	e7ae      	b.n	8025068 <dir_next+0x5a>
	...

0802510c <follow_path>:
 802510c:	e92d 43f8 	stmdb	sp!, {r3, r4, r5, r6, r7, r8, r9, lr}
 8025110:	4681      	mov	r9, r0
 8025112:	6805      	ldr	r5, [r0, #0]
 8025114:	460c      	mov	r4, r1
 8025116:	f811 3b01 	ldrb.w	r3, [r1], #1
 802511a:	2b2f      	cmp	r3, #47	; 0x2f
 802511c:	d0fa      	beq.n	8025114 <follow_path+0x8>
 802511e:	2b5c      	cmp	r3, #92	; 0x5c
 8025120:	d0f8      	beq.n	8025114 <follow_path+0x8>
 8025122:	2300      	movs	r3, #0
 8025124:	f8c9 3008 	str.w	r3, [r9, #8]
 8025128:	7823      	ldrb	r3, [r4, #0]
 802512a:	2b1f      	cmp	r3, #31
 802512c:	d95a      	bls.n	80251e4 <follow_path+0xd8>
 802512e:	4f55      	ldr	r7, [pc, #340]	; (8025284 <follow_path+0x178>)
 8025130:	f109 0624 	add.w	r6, r9, #36	; 0x24
 8025134:	220b      	movs	r2, #11
 8025136:	2120      	movs	r1, #32
 8025138:	f1c4 0802 	rsb	r8, r4, #2
 802513c:	4630      	mov	r0, r6
 802513e:	f7ff fa37 	bl	80245b0 <mem_set>
 8025142:	f104 3cff 	add.w	ip, r4, #4294967295	; 0xffffffff
 8025146:	2200      	movs	r2, #0
 8025148:	2008      	movs	r0, #8
 802514a:	eb08 010c 	add.w	r1, r8, ip
 802514e:	f81c 3f01 	ldrb.w	r3, [ip, #1]!
 8025152:	2b20      	cmp	r3, #32
 8025154:	d908      	bls.n	8025168 <follow_path+0x5c>
 8025156:	2b2f      	cmp	r3, #47	; 0x2f
 8025158:	d001      	beq.n	802515e <follow_path+0x52>
 802515a:	2b5c      	cmp	r3, #92	; 0x5c
 802515c:	d14c      	bne.n	80251f8 <follow_path+0xec>
 802515e:	5c60      	ldrb	r0, [r4, r1]
 8025160:	282f      	cmp	r0, #47	; 0x2f
 8025162:	d047      	beq.n	80251f4 <follow_path+0xe8>
 8025164:	285c      	cmp	r0, #92	; 0x5c
 8025166:	d045      	beq.n	80251f4 <follow_path+0xe8>
 8025168:	440c      	add	r4, r1
 802516a:	2a00      	cmp	r2, #0
 802516c:	d053      	beq.n	8025216 <follow_path+0x10a>
 802516e:	f899 2024 	ldrb.w	r2, [r9, #36]	; 0x24
 8025172:	4648      	mov	r0, r9
 8025174:	f8d9 8000 	ldr.w	r8, [r9]
 8025178:	2ae5      	cmp	r2, #229	; 0xe5
 802517a:	bf04      	itt	eq
 802517c:	2205      	moveq	r2, #5
 802517e:	f889 2024 	strbeq.w	r2, [r9, #36]	; 0x24
 8025182:	2b21      	cmp	r3, #33	; 0x21
 8025184:	bf34      	ite	cc
 8025186:	2304      	movcc	r3, #4
 8025188:	2300      	movcs	r3, #0
 802518a:	f889 302f 	strb.w	r3, [r9, #47]	; 0x2f
 802518e:	f7ff ff0a 	bl	8024fa6 <dir_sdi.constprop.0>
 8025192:	2800      	cmp	r0, #0
 8025194:	d14c      	bne.n	8025230 <follow_path+0x124>
 8025196:	f8d9 101c 	ldr.w	r1, [r9, #28]
 802519a:	4640      	mov	r0, r8
 802519c:	f7ff fb48 	bl	8024830 <move_window>
 80251a0:	2800      	cmp	r0, #0
 80251a2:	d145      	bne.n	8025230 <follow_path+0x124>
 80251a4:	f8d9 2020 	ldr.w	r2, [r9, #32]
 80251a8:	7813      	ldrb	r3, [r2, #0]
 80251aa:	2b00      	cmp	r3, #0
 80251ac:	d04b      	beq.n	8025246 <follow_path+0x13a>
 80251ae:	7ad3      	ldrb	r3, [r2, #11]
 80251b0:	f003 033f 	and.w	r3, r3, #63	; 0x3f
 80251b4:	f889 3006 	strb.w	r3, [r9, #6]
 80251b8:	7ad3      	ldrb	r3, [r2, #11]
 80251ba:	f013 0008 	ands.w	r0, r3, #8
 80251be:	d10c      	bne.n	80251da <follow_path+0xce>
 80251c0:	f102 0c0b 	add.w	ip, r2, #11
 80251c4:	4631      	mov	r1, r6
 80251c6:	f812 3b01 	ldrb.w	r3, [r2], #1
 80251ca:	f811 eb01 	ldrb.w	lr, [r1], #1
 80251ce:	4562      	cmp	r2, ip
 80251d0:	eba3 030e 	sub.w	r3, r3, lr
 80251d4:	d02a      	beq.n	802522c <follow_path+0x120>
 80251d6:	2b00      	cmp	r3, #0
 80251d8:	d0f5      	beq.n	80251c6 <follow_path+0xba>
 80251da:	2100      	movs	r1, #0
 80251dc:	4648      	mov	r0, r9
 80251de:	f7ff ff16 	bl	802500e <dir_next>
 80251e2:	e7d6      	b.n	8025192 <follow_path+0x86>
 80251e4:	2380      	movs	r3, #128	; 0x80
 80251e6:	4648      	mov	r0, r9
 80251e8:	f889 302f 	strb.w	r3, [r9, #47]	; 0x2f
 80251ec:	e8bd 43f8 	ldmia.w	sp!, {r3, r4, r5, r6, r7, r8, r9, lr}
 80251f0:	f7ff bed9 	b.w	8024fa6 <dir_sdi.constprop.0>
 80251f4:	3101      	adds	r1, #1
 80251f6:	e7b2      	b.n	802515e <follow_path+0x52>
 80251f8:	2b2e      	cmp	r3, #46	; 0x2e
 80251fa:	d03e      	beq.n	802527a <follow_path+0x16e>
 80251fc:	4290      	cmp	r0, r2
 80251fe:	d90a      	bls.n	8025216 <follow_path+0x10a>
 8025200:	0619      	lsls	r1, r3, #24
 8025202:	f8df e084 	ldr.w	lr, [pc, #132]	; 8025288 <follow_path+0x17c>
 8025206:	bf44      	itt	mi
 8025208:	3b80      	submi	r3, #128	; 0x80
 802520a:	5cfb      	ldrbmi	r3, [r7, r3]
 802520c:	f81e 1b01 	ldrb.w	r1, [lr], #1
 8025210:	b119      	cbz	r1, 802521a <follow_path+0x10e>
 8025212:	428b      	cmp	r3, r1
 8025214:	d1fa      	bne.n	802520c <follow_path+0x100>
 8025216:	2006      	movs	r0, #6
 8025218:	e013      	b.n	8025242 <follow_path+0x136>
 802521a:	f1a3 0161 	sub.w	r1, r3, #97	; 0x61
 802521e:	2919      	cmp	r1, #25
 8025220:	bf9c      	itt	ls
 8025222:	3b20      	subls	r3, #32
 8025224:	b2db      	uxtbls	r3, r3
 8025226:	54b3      	strb	r3, [r6, r2]
 8025228:	3201      	adds	r2, #1
 802522a:	e78e      	b.n	802514a <follow_path+0x3e>
 802522c:	2b00      	cmp	r3, #0
 802522e:	d1d4      	bne.n	80251da <follow_path+0xce>
 8025230:	f899 302f 	ldrb.w	r3, [r9, #47]	; 0x2f
 8025234:	b148      	cbz	r0, 802524a <follow_path+0x13e>
 8025236:	2804      	cmp	r0, #4
 8025238:	d103      	bne.n	8025242 <follow_path+0x136>
 802523a:	f013 0f04 	tst.w	r3, #4
 802523e:	bf08      	it	eq
 8025240:	2005      	moveq	r0, #5
 8025242:	e8bd 83f8 	ldmia.w	sp!, {r3, r4, r5, r6, r7, r8, r9, pc}
 8025246:	2004      	movs	r0, #4
 8025248:	e7f2      	b.n	8025230 <follow_path+0x124>
 802524a:	075a      	lsls	r2, r3, #29
 802524c:	d4f9      	bmi.n	8025242 <follow_path+0x136>
 802524e:	f899 3006 	ldrb.w	r3, [r9, #6]
 8025252:	06db      	lsls	r3, r3, #27
 8025254:	d50f      	bpl.n	8025276 <follow_path+0x16a>
 8025256:	89aa      	ldrh	r2, [r5, #12]
 8025258:	f105 0134 	add.w	r1, r5, #52	; 0x34
 802525c:	f8d9 0014 	ldr.w	r0, [r9, #20]
 8025260:	fbb0 f3f2 	udiv	r3, r0, r2
 8025264:	fb02 0313 	mls	r3, r2, r3, r0
 8025268:	7828      	ldrb	r0, [r5, #0]
 802526a:	4419      	add	r1, r3
 802526c:	f7ff fa99 	bl	80247a2 <ld_clust.isra.0>
 8025270:	f8c9 0008 	str.w	r0, [r9, #8]
 8025274:	e75c      	b.n	8025130 <follow_path+0x24>
 8025276:	2005      	movs	r0, #5
 8025278:	e7e3      	b.n	8025242 <follow_path+0x136>
 802527a:	280b      	cmp	r0, #11
 802527c:	d0cb      	beq.n	8025216 <follow_path+0x10a>
 802527e:	2208      	movs	r2, #8
 8025280:	200b      	movs	r0, #11
 8025282:	e762      	b.n	802514a <follow_path+0x3e>
 8025284:	08026c25 	.word	0x08026c25
 8025288:	08026c16 	.word	0x08026c16

0802528c <dir_register>:
 802528c:	b570      	push	{r4, r5, r6, lr}
 802528e:	4605      	mov	r5, r0
 8025290:	6806      	ldr	r6, [r0, #0]
 8025292:	f7ff fe88 	bl	8024fa6 <dir_sdi.constprop.0>
 8025296:	4604      	mov	r4, r0
 8025298:	bb28      	cbnz	r0, 80252e6 <dir_register+0x5a>
 802529a:	69e9      	ldr	r1, [r5, #28]
 802529c:	4630      	mov	r0, r6
 802529e:	f7ff fac7 	bl	8024830 <move_window>
 80252a2:	4604      	mov	r4, r0
 80252a4:	b9f8      	cbnz	r0, 80252e6 <dir_register+0x5a>
 80252a6:	6a2b      	ldr	r3, [r5, #32]
 80252a8:	781b      	ldrb	r3, [r3, #0]
 80252aa:	2be5      	cmp	r3, #229	; 0xe5
 80252ac:	d114      	bne.n	80252d8 <dir_register+0x4c>
 80252ae:	69e9      	ldr	r1, [r5, #28]
 80252b0:	4630      	mov	r0, r6
 80252b2:	f7ff fabd 	bl	8024830 <move_window>
 80252b6:	4604      	mov	r4, r0
 80252b8:	b960      	cbnz	r0, 80252d4 <dir_register+0x48>
 80252ba:	4601      	mov	r1, r0
 80252bc:	2220      	movs	r2, #32
 80252be:	6a28      	ldr	r0, [r5, #32]
 80252c0:	f7ff f976 	bl	80245b0 <mem_set>
 80252c4:	220b      	movs	r2, #11
 80252c6:	f105 0124 	add.w	r1, r5, #36	; 0x24
 80252ca:	6a28      	ldr	r0, [r5, #32]
 80252cc:	f7ff fa60 	bl	8024790 <mem_cpy.part.0>
 80252d0:	2301      	movs	r3, #1
 80252d2:	70f3      	strb	r3, [r6, #3]
 80252d4:	4620      	mov	r0, r4
 80252d6:	bd70      	pop	{r4, r5, r6, pc}
 80252d8:	2b00      	cmp	r3, #0
 80252da:	d0e8      	beq.n	80252ae <dir_register+0x22>
 80252dc:	2101      	movs	r1, #1
 80252de:	4628      	mov	r0, r5
 80252e0:	f7ff fe95 	bl	802500e <dir_next>
 80252e4:	e7d7      	b.n	8025296 <dir_register+0xa>
 80252e6:	2c04      	cmp	r4, #4
 80252e8:	bf08      	it	eq
 80252ea:	2407      	moveq	r4, #7
 80252ec:	e7f2      	b.n	80252d4 <dir_register+0x48>
	...

080252f0 <f_mount>:
 80252f0:	b530      	push	{r4, r5, lr}
 80252f2:	b085      	sub	sp, #20
 80252f4:	4615      	mov	r5, r2
 80252f6:	e9cd 1000 	strd	r1, r0, [sp]
 80252fa:	a803      	add	r0, sp, #12
 80252fc:	9103      	str	r1, [sp, #12]
 80252fe:	f7ff fa15 	bl	802472c <get_ldnumber>
 8025302:	1e01      	subs	r1, r0, #0
 8025304:	db20      	blt.n	8025348 <f_mount+0x58>
 8025306:	4c12      	ldr	r4, [pc, #72]	; (8025350 <f_mount+0x60>)
 8025308:	f854 0021 	ldr.w	r0, [r4, r1, lsl #2]
 802530c:	b160      	cbz	r0, 8025328 <f_mount+0x38>
 802530e:	4b11      	ldr	r3, [pc, #68]	; (8025354 <f_mount+0x64>)
 8025310:	681a      	ldr	r2, [r3, #0]
 8025312:	4290      	cmp	r0, r2
 8025314:	bf04      	itt	eq
 8025316:	2200      	moveq	r2, #0
 8025318:	601a      	streq	r2, [r3, #0]
 802531a:	691a      	ldr	r2, [r3, #16]
 802531c:	4290      	cmp	r0, r2
 802531e:	f04f 0200 	mov.w	r2, #0
 8025322:	bf08      	it	eq
 8025324:	611a      	streq	r2, [r3, #16]
 8025326:	7002      	strb	r2, [r0, #0]
 8025328:	9801      	ldr	r0, [sp, #4]
 802532a:	b108      	cbz	r0, 8025330 <f_mount+0x40>
 802532c:	2300      	movs	r3, #0
 802532e:	7003      	strb	r3, [r0, #0]
 8025330:	f844 0021 	str.w	r0, [r4, r1, lsl #2]
 8025334:	b130      	cbz	r0, 8025344 <f_mount+0x54>
 8025336:	2d01      	cmp	r5, #1
 8025338:	d108      	bne.n	802534c <f_mount+0x5c>
 802533a:	2200      	movs	r2, #0
 802533c:	a901      	add	r1, sp, #4
 802533e:	4668      	mov	r0, sp
 8025340:	f7ff face 	bl	80248e0 <find_volume>
 8025344:	b005      	add	sp, #20
 8025346:	bd30      	pop	{r4, r5, pc}
 8025348:	200b      	movs	r0, #11
 802534a:	e7fb      	b.n	8025344 <f_mount+0x54>
 802534c:	2000      	movs	r0, #0
 802534e:	e7f9      	b.n	8025344 <f_mount+0x54>
 8025350:	20000570 	.word	0x20000570
 8025354:	20000574 	.word	0x20000574

08025358 <f_open>:
 8025358:	e92d 43f0 	stmdb	sp!, {r4, r5, r6, r7, r8, r9, lr}
 802535c:	b091      	sub	sp, #68	; 0x44
 802535e:	4617      	mov	r7, r2
 8025360:	4604      	mov	r4, r0
 8025362:	9101      	str	r1, [sp, #4]
 8025364:	2800      	cmp	r0, #0
 8025366:	f000 80f7 	beq.w	8025558 <f_open+0x200>
 802536a:	f002 053f 	and.w	r5, r2, #63	; 0x3f
 802536e:	a903      	add	r1, sp, #12
 8025370:	a801      	add	r0, sp, #4
 8025372:	462a      	mov	r2, r5
 8025374:	f7ff fab4 	bl	80248e0 <find_volume>
 8025378:	4606      	mov	r6, r0
 802537a:	2800      	cmp	r0, #0
 802537c:	d15c      	bne.n	8025438 <f_open+0xe0>
 802537e:	9b03      	ldr	r3, [sp, #12]
 8025380:	a804      	add	r0, sp, #16
 8025382:	9901      	ldr	r1, [sp, #4]
 8025384:	9304      	str	r3, [sp, #16]
 8025386:	f7ff fec1 	bl	802510c <follow_path>
 802538a:	b958      	cbnz	r0, 80253a4 <f_open+0x4c>
 802538c:	f99d 303f 	ldrsb.w	r3, [sp, #63]	; 0x3f
 8025390:	2b00      	cmp	r3, #0
 8025392:	db58      	blt.n	8025446 <f_open+0xee>
 8025394:	f015 0f3e 	tst.w	r5, #62	; 0x3e
 8025398:	a804      	add	r0, sp, #16
 802539a:	bf14      	ite	ne
 802539c:	2101      	movne	r1, #1
 802539e:	2100      	moveq	r1, #0
 80253a0:	f7ff f90c 	bl	80245bc <chk_lock>
 80253a4:	f017 0f1c 	tst.w	r7, #28
 80253a8:	d06d      	beq.n	8025486 <f_open+0x12e>
 80253aa:	2800      	cmp	r0, #0
 80253ac:	d04d      	beq.n	802544a <f_open+0xf2>
 80253ae:	2804      	cmp	r0, #4
 80253b0:	d142      	bne.n	8025438 <f_open+0xe0>
 80253b2:	4b6a      	ldr	r3, [pc, #424]	; (802555c <f_open+0x204>)
 80253b4:	681a      	ldr	r2, [r3, #0]
 80253b6:	b11a      	cbz	r2, 80253c0 <f_open+0x68>
 80253b8:	691b      	ldr	r3, [r3, #16]
 80253ba:	2b00      	cmp	r3, #0
 80253bc:	f040 80c6 	bne.w	802554c <f_open+0x1f4>
 80253c0:	a804      	add	r0, sp, #16
 80253c2:	f7ff ff63 	bl	802528c <dir_register>
 80253c6:	2800      	cmp	r0, #0
 80253c8:	d136      	bne.n	8025438 <f_open+0xe0>
 80253ca:	f045 0508 	orr.w	r5, r5, #8
 80253ce:	f7fe fd65 	bl	8023e9c <get_fattime>
 80253d2:	4601      	mov	r1, r0
 80253d4:	9000      	str	r0, [sp, #0]
 80253d6:	980c      	ldr	r0, [sp, #48]	; 0x30
 80253d8:	300e      	adds	r0, #14
 80253da:	f7ff f8e1 	bl	80245a0 <st_dword>
 80253de:	980c      	ldr	r0, [sp, #48]	; 0x30
 80253e0:	9900      	ldr	r1, [sp, #0]
 80253e2:	3016      	adds	r0, #22
 80253e4:	f7ff f8dc 	bl	80245a0 <st_dword>
 80253e8:	9b0c      	ldr	r3, [sp, #48]	; 0x30
 80253ea:	2220      	movs	r2, #32
 80253ec:	f8dd 800c 	ldr.w	r8, [sp, #12]
 80253f0:	72da      	strb	r2, [r3, #11]
 80253f2:	990c      	ldr	r1, [sp, #48]	; 0x30
 80253f4:	f898 0000 	ldrb.w	r0, [r8]
 80253f8:	f7ff f9d3 	bl	80247a2 <ld_clust.isra.0>
 80253fc:	2200      	movs	r2, #0
 80253fe:	4607      	mov	r7, r0
 8025400:	4640      	mov	r0, r8
 8025402:	f7ff f9dd 	bl	80247c0 <st_clust.isra.0>
 8025406:	9b0c      	ldr	r3, [sp, #48]	; 0x30
 8025408:	2200      	movs	r2, #0
 802540a:	2101      	movs	r1, #1
 802540c:	771a      	strb	r2, [r3, #28]
 802540e:	775a      	strb	r2, [r3, #29]
 8025410:	779a      	strb	r2, [r3, #30]
 8025412:	77da      	strb	r2, [r3, #31]
 8025414:	9b03      	ldr	r3, [sp, #12]
 8025416:	70d9      	strb	r1, [r3, #3]
 8025418:	b307      	cbz	r7, 802545c <f_open+0x104>
 802541a:	4639      	mov	r1, r7
 802541c:	a804      	add	r0, sp, #16
 802541e:	f8d3 8030 	ldr.w	r8, [r3, #48]	; 0x30
 8025422:	f7ff fd3e 	bl	8024ea2 <remove_chain>
 8025426:	b938      	cbnz	r0, 8025438 <f_open+0xe0>
 8025428:	4641      	mov	r1, r8
 802542a:	9803      	ldr	r0, [sp, #12]
 802542c:	f7ff fa00 	bl	8024830 <move_window>
 8025430:	3f01      	subs	r7, #1
 8025432:	9b03      	ldr	r3, [sp, #12]
 8025434:	611f      	str	r7, [r3, #16]
 8025436:	b188      	cbz	r0, 802545c <f_open+0x104>
 8025438:	2300      	movs	r3, #0
 802543a:	4606      	mov	r6, r0
 802543c:	6023      	str	r3, [r4, #0]
 802543e:	4630      	mov	r0, r6
 8025440:	b011      	add	sp, #68	; 0x44
 8025442:	e8bd 83f0 	ldmia.w	sp!, {r4, r5, r6, r7, r8, r9, pc}
 8025446:	2006      	movs	r0, #6
 8025448:	e7ac      	b.n	80253a4 <f_open+0x4c>
 802544a:	f89d 3016 	ldrb.w	r3, [sp, #22]
 802544e:	f013 0f11 	tst.w	r3, #17
 8025452:	d122      	bne.n	802549a <f_open+0x142>
 8025454:	077b      	lsls	r3, r7, #29
 8025456:	d47b      	bmi.n	8025550 <f_open+0x1f8>
 8025458:	073f      	lsls	r7, r7, #28
 802545a:	d4b8      	bmi.n	80253ce <f_open+0x76>
 802545c:	0728      	lsls	r0, r5, #28
 802545e:	9b03      	ldr	r3, [sp, #12]
 8025460:	a804      	add	r0, sp, #16
 8025462:	6b1b      	ldr	r3, [r3, #48]	; 0x30
 8025464:	bf48      	it	mi
 8025466:	f045 0540 	orrmi.w	r5, r5, #64	; 0x40
 802546a:	6263      	str	r3, [r4, #36]	; 0x24
 802546c:	f015 0ffe 	tst.w	r5, #254	; 0xfe
 8025470:	9b0c      	ldr	r3, [sp, #48]	; 0x30
 8025472:	bf14      	ite	ne
 8025474:	2101      	movne	r1, #1
 8025476:	2100      	moveq	r1, #0
 8025478:	62a3      	str	r3, [r4, #40]	; 0x28
 802547a:	f7ff f8d9 	bl	8024630 <inc_lock>
 802547e:	6120      	str	r0, [r4, #16]
 8025480:	b968      	cbnz	r0, 802549e <f_open+0x146>
 8025482:	2002      	movs	r0, #2
 8025484:	e7d8      	b.n	8025438 <f_open+0xe0>
 8025486:	2800      	cmp	r0, #0
 8025488:	d1d6      	bne.n	8025438 <f_open+0xe0>
 802548a:	f89d 3016 	ldrb.w	r3, [sp, #22]
 802548e:	06d8      	lsls	r0, r3, #27
 8025490:	d460      	bmi.n	8025554 <f_open+0x1fc>
 8025492:	07ba      	lsls	r2, r7, #30
 8025494:	d5e2      	bpl.n	802545c <f_open+0x104>
 8025496:	07df      	lsls	r7, r3, #31
 8025498:	d5e0      	bpl.n	802545c <f_open+0x104>
 802549a:	2007      	movs	r0, #7
 802549c:	e7cc      	b.n	8025438 <f_open+0xe0>
 802549e:	9f03      	ldr	r7, [sp, #12]
 80254a0:	990c      	ldr	r1, [sp, #48]	; 0x30
 80254a2:	7838      	ldrb	r0, [r7, #0]
 80254a4:	f7ff f97d 	bl	80247a2 <ld_clust.isra.0>
 80254a8:	60a0      	str	r0, [r4, #8]
 80254aa:	f101 001c 	add.w	r0, r1, #28
 80254ae:	f7ff f86f 	bl	8024590 <ld_dword>
 80254b2:	88fb      	ldrh	r3, [r7, #6]
 80254b4:	2100      	movs	r1, #0
 80254b6:	6027      	str	r7, [r4, #0]
 80254b8:	f104 0730 	add.w	r7, r4, #48	; 0x30
 80254bc:	f44f 5280 	mov.w	r2, #4096	; 0x1000
 80254c0:	60e0      	str	r0, [r4, #12]
 80254c2:	62e1      	str	r1, [r4, #44]	; 0x2c
 80254c4:	4638      	mov	r0, r7
 80254c6:	80a3      	strh	r3, [r4, #4]
 80254c8:	7525      	strb	r5, [r4, #20]
 80254ca:	7561      	strb	r1, [r4, #21]
 80254cc:	6221      	str	r1, [r4, #32]
 80254ce:	61a1      	str	r1, [r4, #24]
 80254d0:	f7ff f86e 	bl	80245b0 <mem_set>
 80254d4:	06aa      	lsls	r2, r5, #26
 80254d6:	d5b2      	bpl.n	802543e <f_open+0xe6>
 80254d8:	68e5      	ldr	r5, [r4, #12]
 80254da:	2d00      	cmp	r5, #0
 80254dc:	d0af      	beq.n	802543e <f_open+0xe6>
 80254de:	9b03      	ldr	r3, [sp, #12]
 80254e0:	68a1      	ldr	r1, [r4, #8]
 80254e2:	895a      	ldrh	r2, [r3, #10]
 80254e4:	f8b3 800c 	ldrh.w	r8, [r3, #12]
 80254e8:	61a5      	str	r5, [r4, #24]
 80254ea:	fb08 f802 	mul.w	r8, r8, r2
 80254ee:	45a8      	cmp	r8, r5
 80254f0:	d31e      	bcc.n	8025530 <f_open+0x1d8>
 80254f2:	2000      	movs	r0, #0
 80254f4:	61e1      	str	r1, [r4, #28]
 80254f6:	2800      	cmp	r0, #0
 80254f8:	d19e      	bne.n	8025438 <f_open+0xe0>
 80254fa:	f8dd 900c 	ldr.w	r9, [sp, #12]
 80254fe:	f8b9 300c 	ldrh.w	r3, [r9, #12]
 8025502:	fbb5 f2f3 	udiv	r2, r5, r3
 8025506:	fb03 5512 	mls	r5, r3, r2, r5
 802550a:	2d00      	cmp	r5, #0
 802550c:	d097      	beq.n	802543e <f_open+0xe6>
 802550e:	4648      	mov	r0, r9
 8025510:	f7ff f8ee 	bl	80246f0 <clust2sect>
 8025514:	2800      	cmp	r0, #0
 8025516:	d0b4      	beq.n	8025482 <f_open+0x12a>
 8025518:	4402      	add	r2, r0
 802551a:	2301      	movs	r3, #1
 802551c:	4639      	mov	r1, r7
 802551e:	6222      	str	r2, [r4, #32]
 8025520:	f899 0001 	ldrb.w	r0, [r9, #1]
 8025524:	f7ff f80a 	bl	802453c <disk_read>
 8025528:	2800      	cmp	r0, #0
 802552a:	d088      	beq.n	802543e <f_open+0xe6>
 802552c:	2001      	movs	r0, #1
 802552e:	e783      	b.n	8025438 <f_open+0xe0>
 8025530:	6820      	ldr	r0, [r4, #0]
 8025532:	eba5 0508 	sub.w	r5, r5, r8
 8025536:	f7ff fbec 	bl	8024d12 <get_fat.isra.0>
 802553a:	2801      	cmp	r0, #1
 802553c:	4601      	mov	r1, r0
 802553e:	d903      	bls.n	8025548 <f_open+0x1f0>
 8025540:	1c43      	adds	r3, r0, #1
 8025542:	d1d4      	bne.n	80254ee <f_open+0x196>
 8025544:	2001      	movs	r0, #1
 8025546:	e7d5      	b.n	80254f4 <f_open+0x19c>
 8025548:	2002      	movs	r0, #2
 802554a:	e7d3      	b.n	80254f4 <f_open+0x19c>
 802554c:	2012      	movs	r0, #18
 802554e:	e773      	b.n	8025438 <f_open+0xe0>
 8025550:	2008      	movs	r0, #8
 8025552:	e771      	b.n	8025438 <f_open+0xe0>
 8025554:	2004      	movs	r0, #4
 8025556:	e76f      	b.n	8025438 <f_open+0xe0>
 8025558:	2609      	movs	r6, #9
 802555a:	e770      	b.n	802543e <f_open+0xe6>
 802555c:	20000574 	.word	0x20000574

08025560 <f_read>:
 8025560:	e92d 4ff0 	stmdb	sp!, {r4, r5, r6, r7, r8, r9, sl, fp, lr}
 8025564:	b087      	sub	sp, #28
 8025566:	4616      	mov	r6, r2
 8025568:	4689      	mov	r9, r1
 802556a:	4604      	mov	r4, r0
 802556c:	9301      	str	r3, [sp, #4]
 802556e:	2300      	movs	r3, #0
 8025570:	9a01      	ldr	r2, [sp, #4]
 8025572:	a905      	add	r1, sp, #20
 8025574:	6013      	str	r3, [r2, #0]
 8025576:	f7ff f8f1 	bl	802475c <validate>
 802557a:	4605      	mov	r5, r0
 802557c:	bb38      	cbnz	r0, 80255ce <f_read+0x6e>
 802557e:	7d65      	ldrb	r5, [r4, #21]
 8025580:	bb2d      	cbnz	r5, 80255ce <f_read+0x6e>
 8025582:	7d23      	ldrb	r3, [r4, #20]
 8025584:	f013 0301 	ands.w	r3, r3, #1
 8025588:	9302      	str	r3, [sp, #8]
 802558a:	f000 80a7 	beq.w	80256dc <f_read+0x17c>
 802558e:	68e2      	ldr	r2, [r4, #12]
 8025590:	f104 0b30 	add.w	fp, r4, #48	; 0x30
 8025594:	69a3      	ldr	r3, [r4, #24]
 8025596:	1ad2      	subs	r2, r2, r3
 8025598:	4296      	cmp	r6, r2
 802559a:	bf28      	it	cs
 802559c:	4616      	movcs	r6, r2
 802559e:	b1b6      	cbz	r6, 80255ce <f_read+0x6e>
 80255a0:	9805      	ldr	r0, [sp, #20]
 80255a2:	69a1      	ldr	r1, [r4, #24]
 80255a4:	8983      	ldrh	r3, [r0, #12]
 80255a6:	fbb1 f2f3 	udiv	r2, r1, r3
 80255aa:	fb03 1312 	mls	r3, r3, r2, r1
 80255ae:	2b00      	cmp	r3, #0
 80255b0:	f040 8081 	bne.w	80256b6 <f_read+0x156>
 80255b4:	f8b0 800a 	ldrh.w	r8, [r0, #10]
 80255b8:	f108 38ff 	add.w	r8, r8, #4294967295	; 0xffffffff
 80255bc:	ea18 0802 	ands.w	r8, r8, r2
 80255c0:	d11b      	bne.n	80255fa <f_read+0x9a>
 80255c2:	b941      	cbnz	r1, 80255d6 <f_read+0x76>
 80255c4:	68a0      	ldr	r0, [r4, #8]
 80255c6:	2801      	cmp	r0, #1
 80255c8:	d810      	bhi.n	80255ec <f_read+0x8c>
 80255ca:	2502      	movs	r5, #2
 80255cc:	7565      	strb	r5, [r4, #21]
 80255ce:	4628      	mov	r0, r5
 80255d0:	b007      	add	sp, #28
 80255d2:	e8bd 8ff0 	ldmia.w	sp!, {r4, r5, r6, r7, r8, r9, sl, fp, pc}
 80255d6:	6ae3      	ldr	r3, [r4, #44]	; 0x2c
 80255d8:	b11b      	cbz	r3, 80255e2 <f_read+0x82>
 80255da:	4620      	mov	r0, r4
 80255dc:	f7ff f893 	bl	8024706 <clmt_clust>
 80255e0:	e7f1      	b.n	80255c6 <f_read+0x66>
 80255e2:	69e1      	ldr	r1, [r4, #28]
 80255e4:	6820      	ldr	r0, [r4, #0]
 80255e6:	f7ff fb94 	bl	8024d12 <get_fat.isra.0>
 80255ea:	e7ec      	b.n	80255c6 <f_read+0x66>
 80255ec:	1c43      	adds	r3, r0, #1
 80255ee:	d103      	bne.n	80255f8 <f_read+0x98>
 80255f0:	2301      	movs	r3, #1
 80255f2:	9d02      	ldr	r5, [sp, #8]
 80255f4:	7563      	strb	r3, [r4, #21]
 80255f6:	e7ea      	b.n	80255ce <f_read+0x6e>
 80255f8:	61e0      	str	r0, [r4, #28]
 80255fa:	f8dd a014 	ldr.w	sl, [sp, #20]
 80255fe:	69e1      	ldr	r1, [r4, #28]
 8025600:	4650      	mov	r0, sl
 8025602:	f7ff f875 	bl	80246f0 <clust2sect>
 8025606:	2800      	cmp	r0, #0
 8025608:	d0df      	beq.n	80255ca <f_read+0x6a>
 802560a:	f8ba 300c 	ldrh.w	r3, [sl, #12]
 802560e:	eb08 0700 	add.w	r7, r8, r0
 8025612:	42b3      	cmp	r3, r6
 8025614:	d832      	bhi.n	802567c <f_read+0x11c>
 8025616:	f8ba 200a 	ldrh.w	r2, [sl, #10]
 802561a:	f89a 0001 	ldrb.w	r0, [sl, #1]
 802561e:	fbb6 f3f3 	udiv	r3, r6, r3
 8025622:	eb08 0103 	add.w	r1, r8, r3
 8025626:	4291      	cmp	r1, r2
 8025628:	4649      	mov	r1, r9
 802562a:	bf88      	it	hi
 802562c:	eba2 0308 	subhi.w	r3, r2, r8
 8025630:	463a      	mov	r2, r7
 8025632:	9303      	str	r3, [sp, #12]
 8025634:	f7fe ff82 	bl	802453c <disk_read>
 8025638:	2800      	cmp	r0, #0
 802563a:	d1d9      	bne.n	80255f0 <f_read+0x90>
 802563c:	f994 2014 	ldrsb.w	r2, [r4, #20]
 8025640:	9b03      	ldr	r3, [sp, #12]
 8025642:	2a00      	cmp	r2, #0
 8025644:	da0c      	bge.n	8025660 <f_read+0x100>
 8025646:	6a20      	ldr	r0, [r4, #32]
 8025648:	1bc0      	subs	r0, r0, r7
 802564a:	4298      	cmp	r0, r3
 802564c:	d208      	bcs.n	8025660 <f_read+0x100>
 802564e:	9a05      	ldr	r2, [sp, #20]
 8025650:	8992      	ldrh	r2, [r2, #12]
 8025652:	b12a      	cbz	r2, 8025660 <f_read+0x100>
 8025654:	4659      	mov	r1, fp
 8025656:	fb02 9000 	mla	r0, r2, r0, r9
 802565a:	f7ff f899 	bl	8024790 <mem_cpy.part.0>
 802565e:	9b03      	ldr	r3, [sp, #12]
 8025660:	9a05      	ldr	r2, [sp, #20]
 8025662:	8997      	ldrh	r7, [r2, #12]
 8025664:	435f      	muls	r7, r3
 8025666:	69a3      	ldr	r3, [r4, #24]
 8025668:	44b9      	add	r9, r7
 802566a:	9a01      	ldr	r2, [sp, #4]
 802566c:	1bf6      	subs	r6, r6, r7
 802566e:	443b      	add	r3, r7
 8025670:	61a3      	str	r3, [r4, #24]
 8025672:	9b01      	ldr	r3, [sp, #4]
 8025674:	681b      	ldr	r3, [r3, #0]
 8025676:	443b      	add	r3, r7
 8025678:	6013      	str	r3, [r2, #0]
 802567a:	e790      	b.n	802559e <f_read+0x3e>
 802567c:	6a22      	ldr	r2, [r4, #32]
 802567e:	42ba      	cmp	r2, r7
 8025680:	d018      	beq.n	80256b4 <f_read+0x154>
 8025682:	f994 3014 	ldrsb.w	r3, [r4, #20]
 8025686:	2b00      	cmp	r3, #0
 8025688:	da0b      	bge.n	80256a2 <f_read+0x142>
 802568a:	2301      	movs	r3, #1
 802568c:	4659      	mov	r1, fp
 802568e:	f89a 0001 	ldrb.w	r0, [sl, #1]
 8025692:	f7fe ff61 	bl	8024558 <disk_write>
 8025696:	2800      	cmp	r0, #0
 8025698:	d1aa      	bne.n	80255f0 <f_read+0x90>
 802569a:	7d23      	ldrb	r3, [r4, #20]
 802569c:	f003 037f 	and.w	r3, r3, #127	; 0x7f
 80256a0:	7523      	strb	r3, [r4, #20]
 80256a2:	9805      	ldr	r0, [sp, #20]
 80256a4:	2301      	movs	r3, #1
 80256a6:	463a      	mov	r2, r7
 80256a8:	4659      	mov	r1, fp
 80256aa:	7840      	ldrb	r0, [r0, #1]
 80256ac:	f7fe ff46 	bl	802453c <disk_read>
 80256b0:	2800      	cmp	r0, #0
 80256b2:	d19d      	bne.n	80255f0 <f_read+0x90>
 80256b4:	6227      	str	r7, [r4, #32]
 80256b6:	9b05      	ldr	r3, [sp, #20]
 80256b8:	899f      	ldrh	r7, [r3, #12]
 80256ba:	69a3      	ldr	r3, [r4, #24]
 80256bc:	fbb3 f1f7 	udiv	r1, r3, r7
 80256c0:	fb07 3111 	mls	r1, r7, r1, r3
 80256c4:	1a7f      	subs	r7, r7, r1
 80256c6:	42b7      	cmp	r7, r6
 80256c8:	bf28      	it	cs
 80256ca:	4637      	movcs	r7, r6
 80256cc:	2f00      	cmp	r7, #0
 80256ce:	d0ca      	beq.n	8025666 <f_read+0x106>
 80256d0:	463a      	mov	r2, r7
 80256d2:	4459      	add	r1, fp
 80256d4:	4648      	mov	r0, r9
 80256d6:	f7ff f85b 	bl	8024790 <mem_cpy.part.0>
 80256da:	e7c4      	b.n	8025666 <f_read+0x106>
 80256dc:	2507      	movs	r5, #7
 80256de:	e776      	b.n	80255ce <f_read+0x6e>

080256e0 <f_write>:
 80256e0:	e92d 4ff0 	stmdb	sp!, {r4, r5, r6, r7, r8, r9, sl, fp, lr}
 80256e4:	4699      	mov	r9, r3
 80256e6:	b085      	sub	sp, #20
 80256e8:	2300      	movs	r3, #0
 80256ea:	4688      	mov	r8, r1
 80256ec:	a903      	add	r1, sp, #12
 80256ee:	4604      	mov	r4, r0
 80256f0:	f8c9 3000 	str.w	r3, [r9]
 80256f4:	4616      	mov	r6, r2
 80256f6:	f7ff f831 	bl	802475c <validate>
 80256fa:	4605      	mov	r5, r0
 80256fc:	bb60      	cbnz	r0, 8025758 <f_write+0x78>
 80256fe:	7d65      	ldrb	r5, [r4, #21]
 8025700:	bb55      	cbnz	r5, 8025758 <f_write+0x78>
 8025702:	7d23      	ldrb	r3, [r4, #20]
 8025704:	079a      	lsls	r2, r3, #30
 8025706:	f140 80b8 	bpl.w	802587a <f_write+0x19a>
 802570a:	69a3      	ldr	r3, [r4, #24]
 802570c:	f104 0a30 	add.w	sl, r4, #48	; 0x30
 8025710:	42f3      	cmn	r3, r6
 8025712:	bf28      	it	cs
 8025714:	43de      	mvncs	r6, r3
 8025716:	b1de      	cbz	r6, 8025750 <f_write+0x70>
 8025718:	9803      	ldr	r0, [sp, #12]
 802571a:	69a1      	ldr	r1, [r4, #24]
 802571c:	8983      	ldrh	r3, [r0, #12]
 802571e:	fbb1 f2f3 	udiv	r2, r1, r3
 8025722:	fb03 1312 	mls	r3, r3, r2, r1
 8025726:	2b00      	cmp	r3, #0
 8025728:	f040 8091 	bne.w	802584e <f_write+0x16e>
 802572c:	8947      	ldrh	r7, [r0, #10]
 802572e:	3f01      	subs	r7, #1
 8025730:	4017      	ands	r7, r2
 8025732:	d124      	bne.n	802577e <f_write+0x9e>
 8025734:	b931      	cbnz	r1, 8025744 <f_write+0x64>
 8025736:	68a0      	ldr	r0, [r4, #8]
 8025738:	b9a0      	cbnz	r0, 8025764 <f_write+0x84>
 802573a:	4601      	mov	r1, r0
 802573c:	4620      	mov	r0, r4
 802573e:	f7ff fb58 	bl	8024df2 <create_chain>
 8025742:	e004      	b.n	802574e <f_write+0x6e>
 8025744:	6ae3      	ldr	r3, [r4, #44]	; 0x2c
 8025746:	b15b      	cbz	r3, 8025760 <f_write+0x80>
 8025748:	4620      	mov	r0, r4
 802574a:	f7fe ffdc 	bl	8024706 <clmt_clust>
 802574e:	b948      	cbnz	r0, 8025764 <f_write+0x84>
 8025750:	7d23      	ldrb	r3, [r4, #20]
 8025752:	f043 0340 	orr.w	r3, r3, #64	; 0x40
 8025756:	7523      	strb	r3, [r4, #20]
 8025758:	4628      	mov	r0, r5
 802575a:	b005      	add	sp, #20
 802575c:	e8bd 8ff0 	ldmia.w	sp!, {r4, r5, r6, r7, r8, r9, sl, fp, pc}
 8025760:	69e1      	ldr	r1, [r4, #28]
 8025762:	e7eb      	b.n	802573c <f_write+0x5c>
 8025764:	2801      	cmp	r0, #1
 8025766:	d102      	bne.n	802576e <f_write+0x8e>
 8025768:	2502      	movs	r5, #2
 802576a:	7565      	strb	r5, [r4, #21]
 802576c:	e7f4      	b.n	8025758 <f_write+0x78>
 802576e:	1c43      	adds	r3, r0, #1
 8025770:	d101      	bne.n	8025776 <f_write+0x96>
 8025772:	2501      	movs	r5, #1
 8025774:	e7f9      	b.n	802576a <f_write+0x8a>
 8025776:	68a3      	ldr	r3, [r4, #8]
 8025778:	61e0      	str	r0, [r4, #28]
 802577a:	b903      	cbnz	r3, 802577e <f_write+0x9e>
 802577c:	60a0      	str	r0, [r4, #8]
 802577e:	f994 3014 	ldrsb.w	r3, [r4, #20]
 8025782:	2b00      	cmp	r3, #0
 8025784:	da0c      	bge.n	80257a0 <f_write+0xc0>
 8025786:	9803      	ldr	r0, [sp, #12]
 8025788:	2301      	movs	r3, #1
 802578a:	6a22      	ldr	r2, [r4, #32]
 802578c:	4651      	mov	r1, sl
 802578e:	7840      	ldrb	r0, [r0, #1]
 8025790:	f7fe fee2 	bl	8024558 <disk_write>
 8025794:	2800      	cmp	r0, #0
 8025796:	d1ec      	bne.n	8025772 <f_write+0x92>
 8025798:	7d23      	ldrb	r3, [r4, #20]
 802579a:	f003 037f 	and.w	r3, r3, #127	; 0x7f
 802579e:	7523      	strb	r3, [r4, #20]
 80257a0:	f8dd b00c 	ldr.w	fp, [sp, #12]
 80257a4:	69e1      	ldr	r1, [r4, #28]
 80257a6:	4658      	mov	r0, fp
 80257a8:	f7fe ffa2 	bl	80246f0 <clust2sect>
 80257ac:	2800      	cmp	r0, #0
 80257ae:	d0db      	beq.n	8025768 <f_write+0x88>
 80257b0:	f8bb 300c 	ldrh.w	r3, [fp, #12]
 80257b4:	183a      	adds	r2, r7, r0
 80257b6:	42b3      	cmp	r3, r6
 80257b8:	d837      	bhi.n	802582a <f_write+0x14a>
 80257ba:	f8bb 100a 	ldrh.w	r1, [fp, #10]
 80257be:	fbb6 f3f3 	udiv	r3, r6, r3
 80257c2:	18f8      	adds	r0, r7, r3
 80257c4:	4288      	cmp	r0, r1
 80257c6:	f89b 0001 	ldrb.w	r0, [fp, #1]
 80257ca:	bf88      	it	hi
 80257cc:	1bcb      	subhi	r3, r1, r7
 80257ce:	4641      	mov	r1, r8
 80257d0:	e9cd 2300 	strd	r2, r3, [sp]
 80257d4:	f7fe fec0 	bl	8024558 <disk_write>
 80257d8:	2800      	cmp	r0, #0
 80257da:	d1ca      	bne.n	8025772 <f_write+0x92>
 80257dc:	6a21      	ldr	r1, [r4, #32]
 80257de:	9a00      	ldr	r2, [sp, #0]
 80257e0:	9b01      	ldr	r3, [sp, #4]
 80257e2:	1a89      	subs	r1, r1, r2
 80257e4:	4299      	cmp	r1, r3
 80257e6:	d20d      	bcs.n	8025804 <f_write+0x124>
 80257e8:	9a03      	ldr	r2, [sp, #12]
 80257ea:	8992      	ldrh	r2, [r2, #12]
 80257ec:	b132      	cbz	r2, 80257fc <f_write+0x11c>
 80257ee:	fb02 8101 	mla	r1, r2, r1, r8
 80257f2:	4650      	mov	r0, sl
 80257f4:	9300      	str	r3, [sp, #0]
 80257f6:	f7fe ffcb 	bl	8024790 <mem_cpy.part.0>
 80257fa:	9b00      	ldr	r3, [sp, #0]
 80257fc:	7d22      	ldrb	r2, [r4, #20]
 80257fe:	f002 027f 	and.w	r2, r2, #127	; 0x7f
 8025802:	7522      	strb	r2, [r4, #20]
 8025804:	9a03      	ldr	r2, [sp, #12]
 8025806:	8997      	ldrh	r7, [r2, #12]
 8025808:	435f      	muls	r7, r3
 802580a:	69a3      	ldr	r3, [r4, #24]
 802580c:	44b8      	add	r8, r7
 802580e:	68e2      	ldr	r2, [r4, #12]
 8025810:	1bf6      	subs	r6, r6, r7
 8025812:	443b      	add	r3, r7
 8025814:	61a3      	str	r3, [r4, #24]
 8025816:	429a      	cmp	r2, r3
 8025818:	bf2c      	ite	cs
 802581a:	60e2      	strcs	r2, [r4, #12]
 802581c:	60e3      	strcc	r3, [r4, #12]
 802581e:	f8d9 3000 	ldr.w	r3, [r9]
 8025822:	443b      	add	r3, r7
 8025824:	f8c9 3000 	str.w	r3, [r9]
 8025828:	e775      	b.n	8025716 <f_write+0x36>
 802582a:	6a23      	ldr	r3, [r4, #32]
 802582c:	4293      	cmp	r3, r2
 802582e:	d00d      	beq.n	802584c <f_write+0x16c>
 8025830:	68e1      	ldr	r1, [r4, #12]
 8025832:	69a3      	ldr	r3, [r4, #24]
 8025834:	4299      	cmp	r1, r3
 8025836:	d909      	bls.n	802584c <f_write+0x16c>
 8025838:	2301      	movs	r3, #1
 802583a:	4651      	mov	r1, sl
 802583c:	f89b 0001 	ldrb.w	r0, [fp, #1]
 8025840:	9200      	str	r2, [sp, #0]
 8025842:	f7fe fe7b 	bl	802453c <disk_read>
 8025846:	9a00      	ldr	r2, [sp, #0]
 8025848:	2800      	cmp	r0, #0
 802584a:	d192      	bne.n	8025772 <f_write+0x92>
 802584c:	6222      	str	r2, [r4, #32]
 802584e:	9b03      	ldr	r3, [sp, #12]
 8025850:	899f      	ldrh	r7, [r3, #12]
 8025852:	69a3      	ldr	r3, [r4, #24]
 8025854:	fbb3 f0f7 	udiv	r0, r3, r7
 8025858:	fb07 3010 	mls	r0, r7, r0, r3
 802585c:	1a3f      	subs	r7, r7, r0
 802585e:	42b7      	cmp	r7, r6
 8025860:	bf28      	it	cs
 8025862:	4637      	movcs	r7, r6
 8025864:	b127      	cbz	r7, 8025870 <f_write+0x190>
 8025866:	463a      	mov	r2, r7
 8025868:	4641      	mov	r1, r8
 802586a:	4450      	add	r0, sl
 802586c:	f7fe ff90 	bl	8024790 <mem_cpy.part.0>
 8025870:	7d23      	ldrb	r3, [r4, #20]
 8025872:	f063 037f 	orn	r3, r3, #127	; 0x7f
 8025876:	7523      	strb	r3, [r4, #20]
 8025878:	e7c7      	b.n	802580a <f_write+0x12a>
 802587a:	2507      	movs	r5, #7
 802587c:	e76c      	b.n	8025758 <f_write+0x78>

0802587e <f_sync>:
 802587e:	b5f7      	push	{r0, r1, r2, r4, r5, r6, r7, lr}
 8025880:	a901      	add	r1, sp, #4
 8025882:	4605      	mov	r5, r0
 8025884:	f7fe ff6a 	bl	802475c <validate>
 8025888:	4604      	mov	r4, r0
 802588a:	2800      	cmp	r0, #0
 802588c:	d13b      	bne.n	8025906 <f_sync+0x88>
 802588e:	7d2b      	ldrb	r3, [r5, #20]
 8025890:	f013 0440 	ands.w	r4, r3, #64	; 0x40
 8025894:	d037      	beq.n	8025906 <f_sync+0x88>
 8025896:	061b      	lsls	r3, r3, #24
 8025898:	d50c      	bpl.n	80258b4 <f_sync+0x36>
 802589a:	9801      	ldr	r0, [sp, #4]
 802589c:	2301      	movs	r3, #1
 802589e:	6a2a      	ldr	r2, [r5, #32]
 80258a0:	f105 0130 	add.w	r1, r5, #48	; 0x30
 80258a4:	7840      	ldrb	r0, [r0, #1]
 80258a6:	f7fe fe57 	bl	8024558 <disk_write>
 80258aa:	bb78      	cbnz	r0, 802590c <f_sync+0x8e>
 80258ac:	7d2b      	ldrb	r3, [r5, #20]
 80258ae:	f003 037f 	and.w	r3, r3, #127	; 0x7f
 80258b2:	752b      	strb	r3, [r5, #20]
 80258b4:	f7fe faf2 	bl	8023e9c <get_fattime>
 80258b8:	6a69      	ldr	r1, [r5, #36]	; 0x24
 80258ba:	4607      	mov	r7, r0
 80258bc:	9801      	ldr	r0, [sp, #4]
 80258be:	f7fe ffb7 	bl	8024830 <move_window>
 80258c2:	4604      	mov	r4, r0
 80258c4:	b9f8      	cbnz	r0, 8025906 <f_sync+0x88>
 80258c6:	6aae      	ldr	r6, [r5, #40]	; 0x28
 80258c8:	7af3      	ldrb	r3, [r6, #11]
 80258ca:	4631      	mov	r1, r6
 80258cc:	f043 0320 	orr.w	r3, r3, #32
 80258d0:	72f3      	strb	r3, [r6, #11]
 80258d2:	68aa      	ldr	r2, [r5, #8]
 80258d4:	6828      	ldr	r0, [r5, #0]
 80258d6:	f7fe ff73 	bl	80247c0 <st_clust.isra.0>
 80258da:	68e9      	ldr	r1, [r5, #12]
 80258dc:	f106 001c 	add.w	r0, r6, #28
 80258e0:	f7fe fe5e 	bl	80245a0 <st_dword>
 80258e4:	4639      	mov	r1, r7
 80258e6:	f106 0016 	add.w	r0, r6, #22
 80258ea:	f7fe fe59 	bl	80245a0 <st_dword>
 80258ee:	2301      	movs	r3, #1
 80258f0:	9801      	ldr	r0, [sp, #4]
 80258f2:	74b4      	strb	r4, [r6, #18]
 80258f4:	74f4      	strb	r4, [r6, #19]
 80258f6:	70c3      	strb	r3, [r0, #3]
 80258f8:	f7ff fb0b 	bl	8024f12 <sync_fs>
 80258fc:	7d2b      	ldrb	r3, [r5, #20]
 80258fe:	4604      	mov	r4, r0
 8025900:	f023 0340 	bic.w	r3, r3, #64	; 0x40
 8025904:	752b      	strb	r3, [r5, #20]
 8025906:	4620      	mov	r0, r4
 8025908:	b003      	add	sp, #12
 802590a:	bdf0      	pop	{r4, r5, r6, r7, pc}
 802590c:	2401      	movs	r4, #1
 802590e:	e7fa      	b.n	8025906 <f_sync+0x88>

08025910 <f_close>:
 8025910:	b513      	push	{r0, r1, r4, lr}
 8025912:	4604      	mov	r4, r0
 8025914:	f7ff ffb3 	bl	802587e <f_sync>
 8025918:	b948      	cbnz	r0, 802592e <f_close+0x1e>
 802591a:	a901      	add	r1, sp, #4
 802591c:	4620      	mov	r0, r4
 802591e:	f7fe ff1d 	bl	802475c <validate>
 8025922:	b920      	cbnz	r0, 802592e <f_close+0x1e>
 8025924:	6920      	ldr	r0, [r4, #16]
 8025926:	f7fe fec5 	bl	80246b4 <dec_lock>
 802592a:	b900      	cbnz	r0, 802592e <f_close+0x1e>
 802592c:	6020      	str	r0, [r4, #0]
 802592e:	b002      	add	sp, #8
 8025930:	bd10      	pop	{r4, pc}

08025932 <f_getfree>:
 8025932:	e92d 47ff 	stmdb	sp!, {r0, r1, r2, r3, r4, r5, r6, r7, r8, r9, sl, lr}
 8025936:	4688      	mov	r8, r1
 8025938:	9001      	str	r0, [sp, #4]
 802593a:	4615      	mov	r5, r2
 802593c:	a903      	add	r1, sp, #12
 802593e:	2200      	movs	r2, #0
 8025940:	a801      	add	r0, sp, #4
 8025942:	f7fe ffcd 	bl	80248e0 <find_volume>
 8025946:	4604      	mov	r4, r0
 8025948:	b948      	cbnz	r0, 802595e <f_getfree+0x2c>
 802594a:	9e03      	ldr	r6, [sp, #12]
 802594c:	e9d6 3905 	ldrd	r3, r9, [r6, #20]
 8025950:	602e      	str	r6, [r5, #0]
 8025952:	f1a9 0202 	sub.w	r2, r9, #2
 8025956:	4293      	cmp	r3, r2
 8025958:	d805      	bhi.n	8025966 <f_getfree+0x34>
 802595a:	f8c8 3000 	str.w	r3, [r8]
 802595e:	4620      	mov	r0, r4
 8025960:	b004      	add	sp, #16
 8025962:	e8bd 87f0 	ldmia.w	sp!, {r4, r5, r6, r7, r8, r9, sl, pc}
 8025966:	7833      	ldrb	r3, [r6, #0]
 8025968:	2b01      	cmp	r3, #1
 802596a:	d119      	bne.n	80259a0 <f_getfree+0x6e>
 802596c:	2702      	movs	r7, #2
 802596e:	4605      	mov	r5, r0
 8025970:	4639      	mov	r1, r7
 8025972:	4630      	mov	r0, r6
 8025974:	f7ff f9cd 	bl	8024d12 <get_fat.isra.0>
 8025978:	1c43      	adds	r3, r0, #1
 802597a:	d03c      	beq.n	80259f6 <f_getfree+0xc4>
 802597c:	2801      	cmp	r0, #1
 802597e:	d03c      	beq.n	80259fa <f_getfree+0xc8>
 8025980:	b900      	cbnz	r0, 8025984 <f_getfree+0x52>
 8025982:	3501      	adds	r5, #1
 8025984:	9b03      	ldr	r3, [sp, #12]
 8025986:	3701      	adds	r7, #1
 8025988:	699b      	ldr	r3, [r3, #24]
 802598a:	42bb      	cmp	r3, r7
 802598c:	d8f0      	bhi.n	8025970 <f_getfree+0x3e>
 802598e:	9b03      	ldr	r3, [sp, #12]
 8025990:	f8c8 5000 	str.w	r5, [r8]
 8025994:	791a      	ldrb	r2, [r3, #4]
 8025996:	615d      	str	r5, [r3, #20]
 8025998:	f042 0201 	orr.w	r2, r2, #1
 802599c:	711a      	strb	r2, [r3, #4]
 802599e:	e7de      	b.n	802595e <f_getfree+0x2c>
 80259a0:	6a71      	ldr	r1, [r6, #36]	; 0x24
 80259a2:	4607      	mov	r7, r0
 80259a4:	4606      	mov	r6, r0
 80259a6:	4605      	mov	r5, r0
 80259a8:	b957      	cbnz	r7, 80259c0 <f_getfree+0x8e>
 80259aa:	9803      	ldr	r0, [sp, #12]
 80259ac:	f101 0a01 	add.w	sl, r1, #1
 80259b0:	f7fe ff3e 	bl	8024830 <move_window>
 80259b4:	bb18      	cbnz	r0, 80259fe <f_getfree+0xcc>
 80259b6:	9b03      	ldr	r3, [sp, #12]
 80259b8:	4651      	mov	r1, sl
 80259ba:	f103 0634 	add.w	r6, r3, #52	; 0x34
 80259be:	899f      	ldrh	r7, [r3, #12]
 80259c0:	9b03      	ldr	r3, [sp, #12]
 80259c2:	781b      	ldrb	r3, [r3, #0]
 80259c4:	2b02      	cmp	r3, #2
 80259c6:	d10b      	bne.n	80259e0 <f_getfree+0xae>
 80259c8:	7872      	ldrb	r2, [r6, #1]
 80259ca:	3f02      	subs	r7, #2
 80259cc:	7833      	ldrb	r3, [r6, #0]
 80259ce:	3602      	adds	r6, #2
 80259d0:	ea53 2302 	orrs.w	r3, r3, r2, lsl #8
 80259d4:	bf08      	it	eq
 80259d6:	3501      	addeq	r5, #1
 80259d8:	f1b9 0901 	subs.w	r9, r9, #1
 80259dc:	d1e4      	bne.n	80259a8 <f_getfree+0x76>
 80259de:	e7d6      	b.n	802598e <f_getfree+0x5c>
 80259e0:	4630      	mov	r0, r6
 80259e2:	3f04      	subs	r7, #4
 80259e4:	f7fe fdd4 	bl	8024590 <ld_dword>
 80259e8:	f030 4370 	bics.w	r3, r0, #4026531840	; 0xf0000000
 80259ec:	f106 0604 	add.w	r6, r6, #4
 80259f0:	bf08      	it	eq
 80259f2:	3501      	addeq	r5, #1
 80259f4:	e7f0      	b.n	80259d8 <f_getfree+0xa6>
 80259f6:	2401      	movs	r4, #1
 80259f8:	e7c9      	b.n	802598e <f_getfree+0x5c>
 80259fa:	2402      	movs	r4, #2
 80259fc:	e7c7      	b.n	802598e <f_getfree+0x5c>
 80259fe:	4604      	mov	r4, r0
 8025a00:	e7c5      	b.n	802598e <f_getfree+0x5c>

08025a02 <f_gets>:
 8025a02:	e92d 41f3 	stmdb	sp!, {r0, r1, r4, r5, r6, r7, r8, lr}
 8025a06:	4604      	mov	r4, r0
 8025a08:	4690      	mov	r8, r2
 8025a0a:	4606      	mov	r6, r0
 8025a0c:	2500      	movs	r5, #0
 8025a0e:	1e4f      	subs	r7, r1, #1
 8025a10:	42bd      	cmp	r5, r7
 8025a12:	da12      	bge.n	8025a3a <f_gets+0x38>
 8025a14:	ab01      	add	r3, sp, #4
 8025a16:	2201      	movs	r2, #1
 8025a18:	4669      	mov	r1, sp
 8025a1a:	4640      	mov	r0, r8
 8025a1c:	f7ff fda0 	bl	8025560 <f_read>
 8025a20:	9b01      	ldr	r3, [sp, #4]
 8025a22:	2b01      	cmp	r3, #1
 8025a24:	d109      	bne.n	8025a3a <f_gets+0x38>
 8025a26:	f89d 3000 	ldrb.w	r3, [sp]
 8025a2a:	2b0d      	cmp	r3, #13
 8025a2c:	d0f0      	beq.n	8025a10 <f_gets+0xe>
 8025a2e:	2b0a      	cmp	r3, #10
 8025a30:	f105 0501 	add.w	r5, r5, #1
 8025a34:	f806 3b01 	strb.w	r3, [r6], #1
 8025a38:	d1ea      	bne.n	8025a10 <f_gets+0xe>
 8025a3a:	2300      	movs	r3, #0
 8025a3c:	429d      	cmp	r5, r3
 8025a3e:	7033      	strb	r3, [r6, #0]
 8025a40:	bf14      	ite	ne
 8025a42:	4620      	movne	r0, r4
 8025a44:	4618      	moveq	r0, r3
 8025a46:	b002      	add	sp, #8
 8025a48:	e8bd 81f0 	ldmia.w	sp!, {r4, r5, r6, r7, r8, pc}

08025a4c <FATFS_LinkDriverEx>:
 8025a4c:	4b0e      	ldr	r3, [pc, #56]	; (8025a88 <FATFS_LinkDriverEx+0x3c>)
 8025a4e:	b530      	push	{r4, r5, lr}
 8025a50:	7a5c      	ldrb	r4, [r3, #9]
 8025a52:	4605      	mov	r5, r0
 8025a54:	f004 00ff 	and.w	r0, r4, #255	; 0xff
 8025a58:	b9a4      	cbnz	r4, 8025a84 <FATFS_LinkDriverEx+0x38>
 8025a5a:	7a5c      	ldrb	r4, [r3, #9]
 8025a5c:	5518      	strb	r0, [r3, r4]
 8025a5e:	7a5c      	ldrb	r4, [r3, #9]
 8025a60:	eb03 0484 	add.w	r4, r3, r4, lsl #2
 8025a64:	6065      	str	r5, [r4, #4]
 8025a66:	7a5c      	ldrb	r4, [r3, #9]
 8025a68:	441c      	add	r4, r3
 8025a6a:	7222      	strb	r2, [r4, #8]
 8025a6c:	7a5a      	ldrb	r2, [r3, #9]
 8025a6e:	1c54      	adds	r4, r2, #1
 8025a70:	3230      	adds	r2, #48	; 0x30
 8025a72:	b2e4      	uxtb	r4, r4
 8025a74:	725c      	strb	r4, [r3, #9]
 8025a76:	233a      	movs	r3, #58	; 0x3a
 8025a78:	700a      	strb	r2, [r1, #0]
 8025a7a:	704b      	strb	r3, [r1, #1]
 8025a7c:	232f      	movs	r3, #47	; 0x2f
 8025a7e:	70c8      	strb	r0, [r1, #3]
 8025a80:	708b      	strb	r3, [r1, #2]
 8025a82:	bd30      	pop	{r4, r5, pc}
 8025a84:	2001      	movs	r0, #1
 8025a86:	e7fc      	b.n	8025a82 <FATFS_LinkDriverEx+0x36>
 8025a88:	20000598 	.word	0x20000598

08025a8c <FATFS_LinkDriver>:
 8025a8c:	2200      	movs	r2, #0
 8025a8e:	f7ff bfdd 	b.w	8025a4c <FATFS_LinkDriverEx>
	...

08025a94 <__errno>:
 8025a94:	4b01      	ldr	r3, [pc, #4]	; (8025a9c <__errno+0x8>)
 8025a96:	6818      	ldr	r0, [r3, #0]
 8025a98:	4770      	bx	lr
 8025a9a:	bf00      	nop
 8025a9c:	20000028 	.word	0x20000028

08025aa0 <__libc_init_array>:
 8025aa0:	b570      	push	{r4, r5, r6, lr}
 8025aa2:	4d0d      	ldr	r5, [pc, #52]	; (8025ad8 <__libc_init_array+0x38>)
 8025aa4:	4c0d      	ldr	r4, [pc, #52]	; (8025adc <__libc_init_array+0x3c>)
 8025aa6:	1b64      	subs	r4, r4, r5
 8025aa8:	10a4      	asrs	r4, r4, #2
 8025aaa:	2600      	movs	r6, #0
 8025aac:	42a6      	cmp	r6, r4
 8025aae:	d109      	bne.n	8025ac4 <__libc_init_array+0x24>
 8025ab0:	4d0b      	ldr	r5, [pc, #44]	; (8025ae0 <__libc_init_array+0x40>)
 8025ab2:	4c0c      	ldr	r4, [pc, #48]	; (8025ae4 <__libc_init_array+0x44>)
 8025ab4:	f001 f800 	bl	8026ab8 <_init>
 8025ab8:	1b64      	subs	r4, r4, r5
 8025aba:	10a4      	asrs	r4, r4, #2
 8025abc:	2600      	movs	r6, #0
 8025abe:	42a6      	cmp	r6, r4
 8025ac0:	d105      	bne.n	8025ace <__libc_init_array+0x2e>
 8025ac2:	bd70      	pop	{r4, r5, r6, pc}
 8025ac4:	f855 3b04 	ldr.w	r3, [r5], #4
 8025ac8:	4798      	blx	r3
 8025aca:	3601      	adds	r6, #1
 8025acc:	e7ee      	b.n	8025aac <__libc_init_array+0xc>
 8025ace:	f855 3b04 	ldr.w	r3, [r5], #4
 8025ad2:	4798      	blx	r3
 8025ad4:	3601      	adds	r6, #1
 8025ad6:	e7f2      	b.n	8025abe <__libc_init_array+0x1e>
 8025ad8:	08026d48 	.word	0x08026d48
 8025adc:	08026d48 	.word	0x08026d48
 8025ae0:	08026d48 	.word	0x08026d48
 8025ae4:	08026d4c 	.word	0x08026d4c

08025ae8 <memset>:
 8025ae8:	4402      	add	r2, r0
 8025aea:	4603      	mov	r3, r0
 8025aec:	4293      	cmp	r3, r2
 8025aee:	d100      	bne.n	8025af2 <memset+0xa>
 8025af0:	4770      	bx	lr
 8025af2:	f803 1b01 	strb.w	r1, [r3], #1
 8025af6:	e7f9      	b.n	8025aec <memset+0x4>

08025af8 <iprintf>:
 8025af8:	b40f      	push	{r0, r1, r2, r3}
 8025afa:	4b0a      	ldr	r3, [pc, #40]	; (8025b24 <iprintf+0x2c>)
 8025afc:	b513      	push	{r0, r1, r4, lr}
 8025afe:	681c      	ldr	r4, [r3, #0]
 8025b00:	b124      	cbz	r4, 8025b0c <iprintf+0x14>
 8025b02:	69a3      	ldr	r3, [r4, #24]
 8025b04:	b913      	cbnz	r3, 8025b0c <iprintf+0x14>
 8025b06:	4620      	mov	r0, r4
 8025b08:	f000 fa72 	bl	8025ff0 <__sinit>
 8025b0c:	ab05      	add	r3, sp, #20
 8025b0e:	9a04      	ldr	r2, [sp, #16]
 8025b10:	68a1      	ldr	r1, [r4, #8]
 8025b12:	9301      	str	r3, [sp, #4]
 8025b14:	4620      	mov	r0, r4
 8025b16:	f000 fc43 	bl	80263a0 <_vfiprintf_r>
 8025b1a:	b002      	add	sp, #8
 8025b1c:	e8bd 4010 	ldmia.w	sp!, {r4, lr}
 8025b20:	b004      	add	sp, #16
 8025b22:	4770      	bx	lr
 8025b24:	20000028 	.word	0x20000028

08025b28 <_puts_r>:
 8025b28:	b570      	push	{r4, r5, r6, lr}
 8025b2a:	460e      	mov	r6, r1
 8025b2c:	4605      	mov	r5, r0
 8025b2e:	b118      	cbz	r0, 8025b38 <_puts_r+0x10>
 8025b30:	6983      	ldr	r3, [r0, #24]
 8025b32:	b90b      	cbnz	r3, 8025b38 <_puts_r+0x10>
 8025b34:	f000 fa5c 	bl	8025ff0 <__sinit>
 8025b38:	69ab      	ldr	r3, [r5, #24]
 8025b3a:	68ac      	ldr	r4, [r5, #8]
 8025b3c:	b913      	cbnz	r3, 8025b44 <_puts_r+0x1c>
 8025b3e:	4628      	mov	r0, r5
 8025b40:	f000 fa56 	bl	8025ff0 <__sinit>
 8025b44:	4b2c      	ldr	r3, [pc, #176]	; (8025bf8 <_puts_r+0xd0>)
 8025b46:	429c      	cmp	r4, r3
 8025b48:	d120      	bne.n	8025b8c <_puts_r+0x64>
 8025b4a:	686c      	ldr	r4, [r5, #4]
 8025b4c:	6e63      	ldr	r3, [r4, #100]	; 0x64
 8025b4e:	07db      	lsls	r3, r3, #31
 8025b50:	d405      	bmi.n	8025b5e <_puts_r+0x36>
 8025b52:	89a3      	ldrh	r3, [r4, #12]
 8025b54:	0598      	lsls	r0, r3, #22
 8025b56:	d402      	bmi.n	8025b5e <_puts_r+0x36>
 8025b58:	6da0      	ldr	r0, [r4, #88]	; 0x58
 8025b5a:	f000 fae7 	bl	802612c <__retarget_lock_acquire_recursive>
 8025b5e:	89a3      	ldrh	r3, [r4, #12]
 8025b60:	0719      	lsls	r1, r3, #28
 8025b62:	d51d      	bpl.n	8025ba0 <_puts_r+0x78>
 8025b64:	6923      	ldr	r3, [r4, #16]
 8025b66:	b1db      	cbz	r3, 8025ba0 <_puts_r+0x78>
 8025b68:	3e01      	subs	r6, #1
 8025b6a:	68a3      	ldr	r3, [r4, #8]
 8025b6c:	f816 1f01 	ldrb.w	r1, [r6, #1]!
 8025b70:	3b01      	subs	r3, #1
 8025b72:	60a3      	str	r3, [r4, #8]
 8025b74:	bb39      	cbnz	r1, 8025bc6 <_puts_r+0x9e>
 8025b76:	2b00      	cmp	r3, #0
 8025b78:	da38      	bge.n	8025bec <_puts_r+0xc4>
 8025b7a:	4622      	mov	r2, r4
 8025b7c:	210a      	movs	r1, #10
 8025b7e:	4628      	mov	r0, r5
 8025b80:	f000 f85c 	bl	8025c3c <__swbuf_r>
 8025b84:	3001      	adds	r0, #1
 8025b86:	d011      	beq.n	8025bac <_puts_r+0x84>
 8025b88:	250a      	movs	r5, #10
 8025b8a:	e011      	b.n	8025bb0 <_puts_r+0x88>
 8025b8c:	4b1b      	ldr	r3, [pc, #108]	; (8025bfc <_puts_r+0xd4>)
 8025b8e:	429c      	cmp	r4, r3
 8025b90:	d101      	bne.n	8025b96 <_puts_r+0x6e>
 8025b92:	68ac      	ldr	r4, [r5, #8]
 8025b94:	e7da      	b.n	8025b4c <_puts_r+0x24>
 8025b96:	4b1a      	ldr	r3, [pc, #104]	; (8025c00 <_puts_r+0xd8>)
 8025b98:	429c      	cmp	r4, r3
 8025b9a:	bf08      	it	eq
 8025b9c:	68ec      	ldreq	r4, [r5, #12]
 8025b9e:	e7d5      	b.n	8025b4c <_puts_r+0x24>
 8025ba0:	4621      	mov	r1, r4
 8025ba2:	4628      	mov	r0, r5
 8025ba4:	f000 f89c 	bl	8025ce0 <__swsetup_r>
 8025ba8:	2800      	cmp	r0, #0
 8025baa:	d0dd      	beq.n	8025b68 <_puts_r+0x40>
 8025bac:	f04f 35ff 	mov.w	r5, #4294967295	; 0xffffffff
 8025bb0:	6e63      	ldr	r3, [r4, #100]	; 0x64
 8025bb2:	07da      	lsls	r2, r3, #31
 8025bb4:	d405      	bmi.n	8025bc2 <_puts_r+0x9a>
 8025bb6:	89a3      	ldrh	r3, [r4, #12]
 8025bb8:	059b      	lsls	r3, r3, #22
 8025bba:	d402      	bmi.n	8025bc2 <_puts_r+0x9a>
 8025bbc:	6da0      	ldr	r0, [r4, #88]	; 0x58
 8025bbe:	f000 fab6 	bl	802612e <__retarget_lock_release_recursive>
 8025bc2:	4628      	mov	r0, r5
 8025bc4:	bd70      	pop	{r4, r5, r6, pc}
 8025bc6:	2b00      	cmp	r3, #0
 8025bc8:	da04      	bge.n	8025bd4 <_puts_r+0xac>
 8025bca:	69a2      	ldr	r2, [r4, #24]
 8025bcc:	429a      	cmp	r2, r3
 8025bce:	dc06      	bgt.n	8025bde <_puts_r+0xb6>
 8025bd0:	290a      	cmp	r1, #10
 8025bd2:	d004      	beq.n	8025bde <_puts_r+0xb6>
 8025bd4:	6823      	ldr	r3, [r4, #0]
 8025bd6:	1c5a      	adds	r2, r3, #1
 8025bd8:	6022      	str	r2, [r4, #0]
 8025bda:	7019      	strb	r1, [r3, #0]
 8025bdc:	e7c5      	b.n	8025b6a <_puts_r+0x42>
 8025bde:	4622      	mov	r2, r4
 8025be0:	4628      	mov	r0, r5
 8025be2:	f000 f82b 	bl	8025c3c <__swbuf_r>
 8025be6:	3001      	adds	r0, #1
 8025be8:	d1bf      	bne.n	8025b6a <_puts_r+0x42>
 8025bea:	e7df      	b.n	8025bac <_puts_r+0x84>
 8025bec:	6823      	ldr	r3, [r4, #0]
 8025bee:	250a      	movs	r5, #10
 8025bf0:	1c5a      	adds	r2, r3, #1
 8025bf2:	6022      	str	r2, [r4, #0]
 8025bf4:	701d      	strb	r5, [r3, #0]
 8025bf6:	e7db      	b.n	8025bb0 <_puts_r+0x88>
 8025bf8:	08026ccc 	.word	0x08026ccc
 8025bfc:	08026cec 	.word	0x08026cec
 8025c00:	08026cac 	.word	0x08026cac

08025c04 <puts>:
 8025c04:	4b02      	ldr	r3, [pc, #8]	; (8025c10 <puts+0xc>)
 8025c06:	4601      	mov	r1, r0
 8025c08:	6818      	ldr	r0, [r3, #0]
 8025c0a:	f7ff bf8d 	b.w	8025b28 <_puts_r>
 8025c0e:	bf00      	nop
 8025c10:	20000028 	.word	0x20000028

08025c14 <strncpy>:
 8025c14:	b510      	push	{r4, lr}
 8025c16:	3901      	subs	r1, #1
 8025c18:	4603      	mov	r3, r0
 8025c1a:	b132      	cbz	r2, 8025c2a <strncpy+0x16>
 8025c1c:	f811 4f01 	ldrb.w	r4, [r1, #1]!
 8025c20:	f803 4b01 	strb.w	r4, [r3], #1
 8025c24:	3a01      	subs	r2, #1
 8025c26:	2c00      	cmp	r4, #0
 8025c28:	d1f7      	bne.n	8025c1a <strncpy+0x6>
 8025c2a:	441a      	add	r2, r3
 8025c2c:	2100      	movs	r1, #0
 8025c2e:	4293      	cmp	r3, r2
 8025c30:	d100      	bne.n	8025c34 <strncpy+0x20>
 8025c32:	bd10      	pop	{r4, pc}
 8025c34:	f803 1b01 	strb.w	r1, [r3], #1
 8025c38:	e7f9      	b.n	8025c2e <strncpy+0x1a>
	...

08025c3c <__swbuf_r>:
 8025c3c:	b5f8      	push	{r3, r4, r5, r6, r7, lr}
 8025c3e:	460e      	mov	r6, r1
 8025c40:	4614      	mov	r4, r2
 8025c42:	4605      	mov	r5, r0
 8025c44:	b118      	cbz	r0, 8025c4e <__swbuf_r+0x12>
 8025c46:	6983      	ldr	r3, [r0, #24]
 8025c48:	b90b      	cbnz	r3, 8025c4e <__swbuf_r+0x12>
 8025c4a:	f000 f9d1 	bl	8025ff0 <__sinit>
 8025c4e:	4b21      	ldr	r3, [pc, #132]	; (8025cd4 <__swbuf_r+0x98>)
 8025c50:	429c      	cmp	r4, r3
 8025c52:	d12b      	bne.n	8025cac <__swbuf_r+0x70>
 8025c54:	686c      	ldr	r4, [r5, #4]
 8025c56:	69a3      	ldr	r3, [r4, #24]
 8025c58:	60a3      	str	r3, [r4, #8]
 8025c5a:	89a3      	ldrh	r3, [r4, #12]
 8025c5c:	071a      	lsls	r2, r3, #28
 8025c5e:	d52f      	bpl.n	8025cc0 <__swbuf_r+0x84>
 8025c60:	6923      	ldr	r3, [r4, #16]
 8025c62:	b36b      	cbz	r3, 8025cc0 <__swbuf_r+0x84>
 8025c64:	6923      	ldr	r3, [r4, #16]
 8025c66:	6820      	ldr	r0, [r4, #0]
 8025c68:	1ac0      	subs	r0, r0, r3
 8025c6a:	6963      	ldr	r3, [r4, #20]
 8025c6c:	b2f6      	uxtb	r6, r6
 8025c6e:	4283      	cmp	r3, r0
 8025c70:	4637      	mov	r7, r6
 8025c72:	dc04      	bgt.n	8025c7e <__swbuf_r+0x42>
 8025c74:	4621      	mov	r1, r4
 8025c76:	4628      	mov	r0, r5
 8025c78:	f000 f926 	bl	8025ec8 <_fflush_r>
 8025c7c:	bb30      	cbnz	r0, 8025ccc <__swbuf_r+0x90>
 8025c7e:	68a3      	ldr	r3, [r4, #8]
 8025c80:	3b01      	subs	r3, #1
 8025c82:	60a3      	str	r3, [r4, #8]
 8025c84:	6823      	ldr	r3, [r4, #0]
 8025c86:	1c5a      	adds	r2, r3, #1
 8025c88:	6022      	str	r2, [r4, #0]
 8025c8a:	701e      	strb	r6, [r3, #0]
 8025c8c:	6963      	ldr	r3, [r4, #20]
 8025c8e:	3001      	adds	r0, #1
 8025c90:	4283      	cmp	r3, r0
 8025c92:	d004      	beq.n	8025c9e <__swbuf_r+0x62>
 8025c94:	89a3      	ldrh	r3, [r4, #12]
 8025c96:	07db      	lsls	r3, r3, #31
 8025c98:	d506      	bpl.n	8025ca8 <__swbuf_r+0x6c>
 8025c9a:	2e0a      	cmp	r6, #10
 8025c9c:	d104      	bne.n	8025ca8 <__swbuf_r+0x6c>
 8025c9e:	4621      	mov	r1, r4
 8025ca0:	4628      	mov	r0, r5
 8025ca2:	f000 f911 	bl	8025ec8 <_fflush_r>
 8025ca6:	b988      	cbnz	r0, 8025ccc <__swbuf_r+0x90>
 8025ca8:	4638      	mov	r0, r7
 8025caa:	bdf8      	pop	{r3, r4, r5, r6, r7, pc}
 8025cac:	4b0a      	ldr	r3, [pc, #40]	; (8025cd8 <__swbuf_r+0x9c>)
 8025cae:	429c      	cmp	r4, r3
 8025cb0:	d101      	bne.n	8025cb6 <__swbuf_r+0x7a>
 8025cb2:	68ac      	ldr	r4, [r5, #8]
 8025cb4:	e7cf      	b.n	8025c56 <__swbuf_r+0x1a>
 8025cb6:	4b09      	ldr	r3, [pc, #36]	; (8025cdc <__swbuf_r+0xa0>)
 8025cb8:	429c      	cmp	r4, r3
 8025cba:	bf08      	it	eq
 8025cbc:	68ec      	ldreq	r4, [r5, #12]
 8025cbe:	e7ca      	b.n	8025c56 <__swbuf_r+0x1a>
 8025cc0:	4621      	mov	r1, r4
 8025cc2:	4628      	mov	r0, r5
 8025cc4:	f000 f80c 	bl	8025ce0 <__swsetup_r>
 8025cc8:	2800      	cmp	r0, #0
 8025cca:	d0cb      	beq.n	8025c64 <__swbuf_r+0x28>
 8025ccc:	f04f 37ff 	mov.w	r7, #4294967295	; 0xffffffff
 8025cd0:	e7ea      	b.n	8025ca8 <__swbuf_r+0x6c>
 8025cd2:	bf00      	nop
 8025cd4:	08026ccc 	.word	0x08026ccc
 8025cd8:	08026cec 	.word	0x08026cec
 8025cdc:	08026cac 	.word	0x08026cac

08025ce0 <__swsetup_r>:
 8025ce0:	4b32      	ldr	r3, [pc, #200]	; (8025dac <__swsetup_r+0xcc>)
 8025ce2:	b570      	push	{r4, r5, r6, lr}
 8025ce4:	681d      	ldr	r5, [r3, #0]
 8025ce6:	4606      	mov	r6, r0
 8025ce8:	460c      	mov	r4, r1
 8025cea:	b125      	cbz	r5, 8025cf6 <__swsetup_r+0x16>
 8025cec:	69ab      	ldr	r3, [r5, #24]
 8025cee:	b913      	cbnz	r3, 8025cf6 <__swsetup_r+0x16>
 8025cf0:	4628      	mov	r0, r5
 8025cf2:	f000 f97d 	bl	8025ff0 <__sinit>
 8025cf6:	4b2e      	ldr	r3, [pc, #184]	; (8025db0 <__swsetup_r+0xd0>)
 8025cf8:	429c      	cmp	r4, r3
 8025cfa:	d10f      	bne.n	8025d1c <__swsetup_r+0x3c>
 8025cfc:	686c      	ldr	r4, [r5, #4]
 8025cfe:	89a3      	ldrh	r3, [r4, #12]
 8025d00:	f9b4 200c 	ldrsh.w	r2, [r4, #12]
 8025d04:	0719      	lsls	r1, r3, #28
 8025d06:	d42c      	bmi.n	8025d62 <__swsetup_r+0x82>
 8025d08:	06dd      	lsls	r5, r3, #27
 8025d0a:	d411      	bmi.n	8025d30 <__swsetup_r+0x50>
 8025d0c:	2309      	movs	r3, #9
 8025d0e:	6033      	str	r3, [r6, #0]
 8025d10:	f042 0340 	orr.w	r3, r2, #64	; 0x40
 8025d14:	81a3      	strh	r3, [r4, #12]
 8025d16:	f04f 30ff 	mov.w	r0, #4294967295	; 0xffffffff
 8025d1a:	e03e      	b.n	8025d9a <__swsetup_r+0xba>
 8025d1c:	4b25      	ldr	r3, [pc, #148]	; (8025db4 <__swsetup_r+0xd4>)
 8025d1e:	429c      	cmp	r4, r3
 8025d20:	d101      	bne.n	8025d26 <__swsetup_r+0x46>
 8025d22:	68ac      	ldr	r4, [r5, #8]
 8025d24:	e7eb      	b.n	8025cfe <__swsetup_r+0x1e>
 8025d26:	4b24      	ldr	r3, [pc, #144]	; (8025db8 <__swsetup_r+0xd8>)
 8025d28:	429c      	cmp	r4, r3
 8025d2a:	bf08      	it	eq
 8025d2c:	68ec      	ldreq	r4, [r5, #12]
 8025d2e:	e7e6      	b.n	8025cfe <__swsetup_r+0x1e>
 8025d30:	0758      	lsls	r0, r3, #29
 8025d32:	d512      	bpl.n	8025d5a <__swsetup_r+0x7a>
 8025d34:	6b61      	ldr	r1, [r4, #52]	; 0x34
 8025d36:	b141      	cbz	r1, 8025d4a <__swsetup_r+0x6a>
 8025d38:	f104 0344 	add.w	r3, r4, #68	; 0x44
 8025d3c:	4299      	cmp	r1, r3
 8025d3e:	d002      	beq.n	8025d46 <__swsetup_r+0x66>
 8025d40:	4630      	mov	r0, r6
 8025d42:	f000 fa59 	bl	80261f8 <_free_r>
 8025d46:	2300      	movs	r3, #0
 8025d48:	6363      	str	r3, [r4, #52]	; 0x34
 8025d4a:	89a3      	ldrh	r3, [r4, #12]
 8025d4c:	f023 0324 	bic.w	r3, r3, #36	; 0x24
 8025d50:	81a3      	strh	r3, [r4, #12]
 8025d52:	2300      	movs	r3, #0
 8025d54:	6063      	str	r3, [r4, #4]
 8025d56:	6923      	ldr	r3, [r4, #16]
 8025d58:	6023      	str	r3, [r4, #0]
 8025d5a:	89a3      	ldrh	r3, [r4, #12]
 8025d5c:	f043 0308 	orr.w	r3, r3, #8
 8025d60:	81a3      	strh	r3, [r4, #12]
 8025d62:	6923      	ldr	r3, [r4, #16]
 8025d64:	b94b      	cbnz	r3, 8025d7a <__swsetup_r+0x9a>
 8025d66:	89a3      	ldrh	r3, [r4, #12]
 8025d68:	f403 7320 	and.w	r3, r3, #640	; 0x280
 8025d6c:	f5b3 7f00 	cmp.w	r3, #512	; 0x200
 8025d70:	d003      	beq.n	8025d7a <__swsetup_r+0x9a>
 8025d72:	4621      	mov	r1, r4
 8025d74:	4630      	mov	r0, r6
 8025d76:	f000 f9ff 	bl	8026178 <__smakebuf_r>
 8025d7a:	89a0      	ldrh	r0, [r4, #12]
 8025d7c:	f9b4 200c 	ldrsh.w	r2, [r4, #12]
 8025d80:	f010 0301 	ands.w	r3, r0, #1
 8025d84:	d00a      	beq.n	8025d9c <__swsetup_r+0xbc>
 8025d86:	2300      	movs	r3, #0
 8025d88:	60a3      	str	r3, [r4, #8]
 8025d8a:	6963      	ldr	r3, [r4, #20]
 8025d8c:	425b      	negs	r3, r3
 8025d8e:	61a3      	str	r3, [r4, #24]
 8025d90:	6923      	ldr	r3, [r4, #16]
 8025d92:	b943      	cbnz	r3, 8025da6 <__swsetup_r+0xc6>
 8025d94:	f010 0080 	ands.w	r0, r0, #128	; 0x80
 8025d98:	d1ba      	bne.n	8025d10 <__swsetup_r+0x30>
 8025d9a:	bd70      	pop	{r4, r5, r6, pc}
 8025d9c:	0781      	lsls	r1, r0, #30
 8025d9e:	bf58      	it	pl
 8025da0:	6963      	ldrpl	r3, [r4, #20]
 8025da2:	60a3      	str	r3, [r4, #8]
 8025da4:	e7f4      	b.n	8025d90 <__swsetup_r+0xb0>
 8025da6:	2000      	movs	r0, #0
 8025da8:	e7f7      	b.n	8025d9a <__swsetup_r+0xba>
 8025daa:	bf00      	nop
 8025dac:	20000028 	.word	0x20000028
 8025db0:	08026ccc 	.word	0x08026ccc
 8025db4:	08026cec 	.word	0x08026cec
 8025db8:	08026cac 	.word	0x08026cac

08025dbc <__sflush_r>:
 8025dbc:	898a      	ldrh	r2, [r1, #12]
 8025dbe:	e92d 41f0 	stmdb	sp!, {r4, r5, r6, r7, r8, lr}
 8025dc2:	4605      	mov	r5, r0
 8025dc4:	0710      	lsls	r0, r2, #28
 8025dc6:	460c      	mov	r4, r1
 8025dc8:	d458      	bmi.n	8025e7c <__sflush_r+0xc0>
 8025dca:	684b      	ldr	r3, [r1, #4]
 8025dcc:	2b00      	cmp	r3, #0
 8025dce:	dc05      	bgt.n	8025ddc <__sflush_r+0x20>
 8025dd0:	6c0b      	ldr	r3, [r1, #64]	; 0x40
 8025dd2:	2b00      	cmp	r3, #0
 8025dd4:	dc02      	bgt.n	8025ddc <__sflush_r+0x20>
 8025dd6:	2000      	movs	r0, #0
 8025dd8:	e8bd 81f0 	ldmia.w	sp!, {r4, r5, r6, r7, r8, pc}
 8025ddc:	6ae6      	ldr	r6, [r4, #44]	; 0x2c
 8025dde:	2e00      	cmp	r6, #0
 8025de0:	d0f9      	beq.n	8025dd6 <__sflush_r+0x1a>
 8025de2:	2300      	movs	r3, #0
 8025de4:	f412 5280 	ands.w	r2, r2, #4096	; 0x1000
 8025de8:	682f      	ldr	r7, [r5, #0]
 8025dea:	602b      	str	r3, [r5, #0]
 8025dec:	d032      	beq.n	8025e54 <__sflush_r+0x98>
 8025dee:	6d60      	ldr	r0, [r4, #84]	; 0x54
 8025df0:	89a3      	ldrh	r3, [r4, #12]
 8025df2:	075a      	lsls	r2, r3, #29
 8025df4:	d505      	bpl.n	8025e02 <__sflush_r+0x46>
 8025df6:	6863      	ldr	r3, [r4, #4]
 8025df8:	1ac0      	subs	r0, r0, r3
 8025dfa:	6b63      	ldr	r3, [r4, #52]	; 0x34
 8025dfc:	b10b      	cbz	r3, 8025e02 <__sflush_r+0x46>
 8025dfe:	6c23      	ldr	r3, [r4, #64]	; 0x40
 8025e00:	1ac0      	subs	r0, r0, r3
 8025e02:	2300      	movs	r3, #0
 8025e04:	4602      	mov	r2, r0
 8025e06:	6ae6      	ldr	r6, [r4, #44]	; 0x2c
 8025e08:	6a21      	ldr	r1, [r4, #32]
 8025e0a:	4628      	mov	r0, r5
 8025e0c:	47b0      	blx	r6
 8025e0e:	1c43      	adds	r3, r0, #1
 8025e10:	89a3      	ldrh	r3, [r4, #12]
 8025e12:	d106      	bne.n	8025e22 <__sflush_r+0x66>
 8025e14:	6829      	ldr	r1, [r5, #0]
 8025e16:	291d      	cmp	r1, #29
 8025e18:	d82c      	bhi.n	8025e74 <__sflush_r+0xb8>
 8025e1a:	4a2a      	ldr	r2, [pc, #168]	; (8025ec4 <__sflush_r+0x108>)
 8025e1c:	40ca      	lsrs	r2, r1
 8025e1e:	07d6      	lsls	r6, r2, #31
 8025e20:	d528      	bpl.n	8025e74 <__sflush_r+0xb8>
 8025e22:	2200      	movs	r2, #0
 8025e24:	6062      	str	r2, [r4, #4]
 8025e26:	04d9      	lsls	r1, r3, #19
 8025e28:	6922      	ldr	r2, [r4, #16]
 8025e2a:	6022      	str	r2, [r4, #0]
 8025e2c:	d504      	bpl.n	8025e38 <__sflush_r+0x7c>
 8025e2e:	1c42      	adds	r2, r0, #1
 8025e30:	d101      	bne.n	8025e36 <__sflush_r+0x7a>
 8025e32:	682b      	ldr	r3, [r5, #0]
 8025e34:	b903      	cbnz	r3, 8025e38 <__sflush_r+0x7c>
 8025e36:	6560      	str	r0, [r4, #84]	; 0x54
 8025e38:	6b61      	ldr	r1, [r4, #52]	; 0x34
 8025e3a:	602f      	str	r7, [r5, #0]
 8025e3c:	2900      	cmp	r1, #0
 8025e3e:	d0ca      	beq.n	8025dd6 <__sflush_r+0x1a>
 8025e40:	f104 0344 	add.w	r3, r4, #68	; 0x44
 8025e44:	4299      	cmp	r1, r3
 8025e46:	d002      	beq.n	8025e4e <__sflush_r+0x92>
 8025e48:	4628      	mov	r0, r5
 8025e4a:	f000 f9d5 	bl	80261f8 <_free_r>
 8025e4e:	2000      	movs	r0, #0
 8025e50:	6360      	str	r0, [r4, #52]	; 0x34
 8025e52:	e7c1      	b.n	8025dd8 <__sflush_r+0x1c>
 8025e54:	6a21      	ldr	r1, [r4, #32]
 8025e56:	2301      	movs	r3, #1
 8025e58:	4628      	mov	r0, r5
 8025e5a:	47b0      	blx	r6
 8025e5c:	1c41      	adds	r1, r0, #1
 8025e5e:	d1c7      	bne.n	8025df0 <__sflush_r+0x34>
 8025e60:	682b      	ldr	r3, [r5, #0]
 8025e62:	2b00      	cmp	r3, #0
 8025e64:	d0c4      	beq.n	8025df0 <__sflush_r+0x34>
 8025e66:	2b1d      	cmp	r3, #29
 8025e68:	d001      	beq.n	8025e6e <__sflush_r+0xb2>
 8025e6a:	2b16      	cmp	r3, #22
 8025e6c:	d101      	bne.n	8025e72 <__sflush_r+0xb6>
 8025e6e:	602f      	str	r7, [r5, #0]
 8025e70:	e7b1      	b.n	8025dd6 <__sflush_r+0x1a>
 8025e72:	89a3      	ldrh	r3, [r4, #12]
 8025e74:	f043 0340 	orr.w	r3, r3, #64	; 0x40
 8025e78:	81a3      	strh	r3, [r4, #12]
 8025e7a:	e7ad      	b.n	8025dd8 <__sflush_r+0x1c>
 8025e7c:	690f      	ldr	r7, [r1, #16]
 8025e7e:	2f00      	cmp	r7, #0
 8025e80:	d0a9      	beq.n	8025dd6 <__sflush_r+0x1a>
 8025e82:	0793      	lsls	r3, r2, #30
 8025e84:	680e      	ldr	r6, [r1, #0]
 8025e86:	bf08      	it	eq
 8025e88:	694b      	ldreq	r3, [r1, #20]
 8025e8a:	600f      	str	r7, [r1, #0]
 8025e8c:	bf18      	it	ne
 8025e8e:	2300      	movne	r3, #0
 8025e90:	eba6 0807 	sub.w	r8, r6, r7
 8025e94:	608b      	str	r3, [r1, #8]
 8025e96:	f1b8 0f00 	cmp.w	r8, #0
 8025e9a:	dd9c      	ble.n	8025dd6 <__sflush_r+0x1a>
 8025e9c:	6a21      	ldr	r1, [r4, #32]
 8025e9e:	6aa6      	ldr	r6, [r4, #40]	; 0x28
 8025ea0:	4643      	mov	r3, r8
 8025ea2:	463a      	mov	r2, r7
 8025ea4:	4628      	mov	r0, r5
 8025ea6:	47b0      	blx	r6
 8025ea8:	2800      	cmp	r0, #0
 8025eaa:	dc06      	bgt.n	8025eba <__sflush_r+0xfe>
 8025eac:	89a3      	ldrh	r3, [r4, #12]
 8025eae:	f043 0340 	orr.w	r3, r3, #64	; 0x40
 8025eb2:	81a3      	strh	r3, [r4, #12]
 8025eb4:	f04f 30ff 	mov.w	r0, #4294967295	; 0xffffffff
 8025eb8:	e78e      	b.n	8025dd8 <__sflush_r+0x1c>
 8025eba:	4407      	add	r7, r0
 8025ebc:	eba8 0800 	sub.w	r8, r8, r0
 8025ec0:	e7e9      	b.n	8025e96 <__sflush_r+0xda>
 8025ec2:	bf00      	nop
 8025ec4:	20400001 	.word	0x20400001

08025ec8 <_fflush_r>:
 8025ec8:	b538      	push	{r3, r4, r5, lr}
 8025eca:	690b      	ldr	r3, [r1, #16]
 8025ecc:	4605      	mov	r5, r0
 8025ece:	460c      	mov	r4, r1
 8025ed0:	b913      	cbnz	r3, 8025ed8 <_fflush_r+0x10>
 8025ed2:	2500      	movs	r5, #0
 8025ed4:	4628      	mov	r0, r5
 8025ed6:	bd38      	pop	{r3, r4, r5, pc}
 8025ed8:	b118      	cbz	r0, 8025ee2 <_fflush_r+0x1a>
 8025eda:	6983      	ldr	r3, [r0, #24]
 8025edc:	b90b      	cbnz	r3, 8025ee2 <_fflush_r+0x1a>
 8025ede:	f000 f887 	bl	8025ff0 <__sinit>
 8025ee2:	4b14      	ldr	r3, [pc, #80]	; (8025f34 <_fflush_r+0x6c>)
 8025ee4:	429c      	cmp	r4, r3
 8025ee6:	d11b      	bne.n	8025f20 <_fflush_r+0x58>
 8025ee8:	686c      	ldr	r4, [r5, #4]
 8025eea:	f9b4 300c 	ldrsh.w	r3, [r4, #12]
 8025eee:	2b00      	cmp	r3, #0
 8025ef0:	d0ef      	beq.n	8025ed2 <_fflush_r+0xa>
 8025ef2:	6e62      	ldr	r2, [r4, #100]	; 0x64
 8025ef4:	07d0      	lsls	r0, r2, #31
 8025ef6:	d404      	bmi.n	8025f02 <_fflush_r+0x3a>
 8025ef8:	0599      	lsls	r1, r3, #22
 8025efa:	d402      	bmi.n	8025f02 <_fflush_r+0x3a>
 8025efc:	6da0      	ldr	r0, [r4, #88]	; 0x58
 8025efe:	f000 f915 	bl	802612c <__retarget_lock_acquire_recursive>
 8025f02:	4628      	mov	r0, r5
 8025f04:	4621      	mov	r1, r4
 8025f06:	f7ff ff59 	bl	8025dbc <__sflush_r>
 8025f0a:	6e63      	ldr	r3, [r4, #100]	; 0x64
 8025f0c:	07da      	lsls	r2, r3, #31
 8025f0e:	4605      	mov	r5, r0
 8025f10:	d4e0      	bmi.n	8025ed4 <_fflush_r+0xc>
 8025f12:	89a3      	ldrh	r3, [r4, #12]
 8025f14:	059b      	lsls	r3, r3, #22
 8025f16:	d4dd      	bmi.n	8025ed4 <_fflush_r+0xc>
 8025f18:	6da0      	ldr	r0, [r4, #88]	; 0x58
 8025f1a:	f000 f908 	bl	802612e <__retarget_lock_release_recursive>
 8025f1e:	e7d9      	b.n	8025ed4 <_fflush_r+0xc>
 8025f20:	4b05      	ldr	r3, [pc, #20]	; (8025f38 <_fflush_r+0x70>)
 8025f22:	429c      	cmp	r4, r3
 8025f24:	d101      	bne.n	8025f2a <_fflush_r+0x62>
 8025f26:	68ac      	ldr	r4, [r5, #8]
 8025f28:	e7df      	b.n	8025eea <_fflush_r+0x22>
 8025f2a:	4b04      	ldr	r3, [pc, #16]	; (8025f3c <_fflush_r+0x74>)
 8025f2c:	429c      	cmp	r4, r3
 8025f2e:	bf08      	it	eq
 8025f30:	68ec      	ldreq	r4, [r5, #12]
 8025f32:	e7da      	b.n	8025eea <_fflush_r+0x22>
 8025f34:	08026ccc 	.word	0x08026ccc
 8025f38:	08026cec 	.word	0x08026cec
 8025f3c:	08026cac 	.word	0x08026cac

08025f40 <std>:
 8025f40:	2300      	movs	r3, #0
 8025f42:	b510      	push	{r4, lr}
 8025f44:	4604      	mov	r4, r0
 8025f46:	e9c0 3300 	strd	r3, r3, [r0]
 8025f4a:	e9c0 3304 	strd	r3, r3, [r0, #16]
 8025f4e:	6083      	str	r3, [r0, #8]
 8025f50:	8181      	strh	r1, [r0, #12]
 8025f52:	6643      	str	r3, [r0, #100]	; 0x64
 8025f54:	81c2      	strh	r2, [r0, #14]
 8025f56:	6183      	str	r3, [r0, #24]
 8025f58:	4619      	mov	r1, r3
 8025f5a:	2208      	movs	r2, #8
 8025f5c:	305c      	adds	r0, #92	; 0x5c
 8025f5e:	f7ff fdc3 	bl	8025ae8 <memset>
 8025f62:	4b05      	ldr	r3, [pc, #20]	; (8025f78 <std+0x38>)
 8025f64:	6263      	str	r3, [r4, #36]	; 0x24
 8025f66:	4b05      	ldr	r3, [pc, #20]	; (8025f7c <std+0x3c>)
 8025f68:	62a3      	str	r3, [r4, #40]	; 0x28
 8025f6a:	4b05      	ldr	r3, [pc, #20]	; (8025f80 <std+0x40>)
 8025f6c:	62e3      	str	r3, [r4, #44]	; 0x2c
 8025f6e:	4b05      	ldr	r3, [pc, #20]	; (8025f84 <std+0x44>)
 8025f70:	6224      	str	r4, [r4, #32]
 8025f72:	6323      	str	r3, [r4, #48]	; 0x30
 8025f74:	bd10      	pop	{r4, pc}
 8025f76:	bf00      	nop
 8025f78:	08026949 	.word	0x08026949
 8025f7c:	0802696b 	.word	0x0802696b
 8025f80:	080269a3 	.word	0x080269a3
 8025f84:	080269c7 	.word	0x080269c7

08025f88 <_cleanup_r>:
 8025f88:	4901      	ldr	r1, [pc, #4]	; (8025f90 <_cleanup_r+0x8>)
 8025f8a:	f000 b8af 	b.w	80260ec <_fwalk_reent>
 8025f8e:	bf00      	nop
 8025f90:	08025ec9 	.word	0x08025ec9

08025f94 <__sfmoreglue>:
 8025f94:	b570      	push	{r4, r5, r6, lr}
 8025f96:	1e4a      	subs	r2, r1, #1
 8025f98:	2568      	movs	r5, #104	; 0x68
 8025f9a:	4355      	muls	r5, r2
 8025f9c:	460e      	mov	r6, r1
 8025f9e:	f105 0174 	add.w	r1, r5, #116	; 0x74
 8025fa2:	f000 f979 	bl	8026298 <_malloc_r>
 8025fa6:	4604      	mov	r4, r0
 8025fa8:	b140      	cbz	r0, 8025fbc <__sfmoreglue+0x28>
 8025faa:	2100      	movs	r1, #0
 8025fac:	e9c0 1600 	strd	r1, r6, [r0]
 8025fb0:	300c      	adds	r0, #12
 8025fb2:	60a0      	str	r0, [r4, #8]
 8025fb4:	f105 0268 	add.w	r2, r5, #104	; 0x68
 8025fb8:	f7ff fd96 	bl	8025ae8 <memset>
 8025fbc:	4620      	mov	r0, r4
 8025fbe:	bd70      	pop	{r4, r5, r6, pc}

08025fc0 <__sfp_lock_acquire>:
 8025fc0:	4801      	ldr	r0, [pc, #4]	; (8025fc8 <__sfp_lock_acquire+0x8>)
 8025fc2:	f000 b8b3 	b.w	802612c <__retarget_lock_acquire_recursive>
 8025fc6:	bf00      	nop
 8025fc8:	20002800 	.word	0x20002800

08025fcc <__sfp_lock_release>:
 8025fcc:	4801      	ldr	r0, [pc, #4]	; (8025fd4 <__sfp_lock_release+0x8>)
 8025fce:	f000 b8ae 	b.w	802612e <__retarget_lock_release_recursive>
 8025fd2:	bf00      	nop
 8025fd4:	20002800 	.word	0x20002800

08025fd8 <__sinit_lock_acquire>:
 8025fd8:	4801      	ldr	r0, [pc, #4]	; (8025fe0 <__sinit_lock_acquire+0x8>)
 8025fda:	f000 b8a7 	b.w	802612c <__retarget_lock_acquire_recursive>
 8025fde:	bf00      	nop
 8025fe0:	200027fb 	.word	0x200027fb

08025fe4 <__sinit_lock_release>:
 8025fe4:	4801      	ldr	r0, [pc, #4]	; (8025fec <__sinit_lock_release+0x8>)
 8025fe6:	f000 b8a2 	b.w	802612e <__retarget_lock_release_recursive>
 8025fea:	bf00      	nop
 8025fec:	200027fb 	.word	0x200027fb

08025ff0 <__sinit>:
 8025ff0:	b510      	push	{r4, lr}
 8025ff2:	4604      	mov	r4, r0
 8025ff4:	f7ff fff0 	bl	8025fd8 <__sinit_lock_acquire>
 8025ff8:	69a3      	ldr	r3, [r4, #24]
 8025ffa:	b11b      	cbz	r3, 8026004 <__sinit+0x14>
 8025ffc:	e8bd 4010 	ldmia.w	sp!, {r4, lr}
 8026000:	f7ff bff0 	b.w	8025fe4 <__sinit_lock_release>
 8026004:	e9c4 3312 	strd	r3, r3, [r4, #72]	; 0x48
 8026008:	6523      	str	r3, [r4, #80]	; 0x50
 802600a:	4b13      	ldr	r3, [pc, #76]	; (8026058 <__sinit+0x68>)
 802600c:	4a13      	ldr	r2, [pc, #76]	; (802605c <__sinit+0x6c>)
 802600e:	681b      	ldr	r3, [r3, #0]
 8026010:	62a2      	str	r2, [r4, #40]	; 0x28
 8026012:	42a3      	cmp	r3, r4
 8026014:	bf04      	itt	eq
 8026016:	2301      	moveq	r3, #1
 8026018:	61a3      	streq	r3, [r4, #24]
 802601a:	4620      	mov	r0, r4
 802601c:	f000 f820 	bl	8026060 <__sfp>
 8026020:	6060      	str	r0, [r4, #4]
 8026022:	4620      	mov	r0, r4
 8026024:	f000 f81c 	bl	8026060 <__sfp>
 8026028:	60a0      	str	r0, [r4, #8]
 802602a:	4620      	mov	r0, r4
 802602c:	f000 f818 	bl	8026060 <__sfp>
 8026030:	2200      	movs	r2, #0
 8026032:	60e0      	str	r0, [r4, #12]
 8026034:	2104      	movs	r1, #4
 8026036:	6860      	ldr	r0, [r4, #4]
 8026038:	f7ff ff82 	bl	8025f40 <std>
 802603c:	68a0      	ldr	r0, [r4, #8]
 802603e:	2201      	movs	r2, #1
 8026040:	2109      	movs	r1, #9
 8026042:	f7ff ff7d 	bl	8025f40 <std>
 8026046:	68e0      	ldr	r0, [r4, #12]
 8026048:	2202      	movs	r2, #2
 802604a:	2112      	movs	r1, #18
 802604c:	f7ff ff78 	bl	8025f40 <std>
 8026050:	2301      	movs	r3, #1
 8026052:	61a3      	str	r3, [r4, #24]
 8026054:	e7d2      	b.n	8025ffc <__sinit+0xc>
 8026056:	bf00      	nop
 8026058:	08026ca8 	.word	0x08026ca8
 802605c:	08025f89 	.word	0x08025f89

08026060 <__sfp>:
 8026060:	b5f8      	push	{r3, r4, r5, r6, r7, lr}
 8026062:	4607      	mov	r7, r0
 8026064:	f7ff ffac 	bl	8025fc0 <__sfp_lock_acquire>
 8026068:	4b1e      	ldr	r3, [pc, #120]	; (80260e4 <__sfp+0x84>)
 802606a:	681e      	ldr	r6, [r3, #0]
 802606c:	69b3      	ldr	r3, [r6, #24]
 802606e:	b913      	cbnz	r3, 8026076 <__sfp+0x16>
 8026070:	4630      	mov	r0, r6
 8026072:	f7ff ffbd 	bl	8025ff0 <__sinit>
 8026076:	3648      	adds	r6, #72	; 0x48
 8026078:	e9d6 3401 	ldrd	r3, r4, [r6, #4]
 802607c:	3b01      	subs	r3, #1
 802607e:	d503      	bpl.n	8026088 <__sfp+0x28>
 8026080:	6833      	ldr	r3, [r6, #0]
 8026082:	b30b      	cbz	r3, 80260c8 <__sfp+0x68>
 8026084:	6836      	ldr	r6, [r6, #0]
 8026086:	e7f7      	b.n	8026078 <__sfp+0x18>
 8026088:	f9b4 500c 	ldrsh.w	r5, [r4, #12]
 802608c:	b9d5      	cbnz	r5, 80260c4 <__sfp+0x64>
 802608e:	4b16      	ldr	r3, [pc, #88]	; (80260e8 <__sfp+0x88>)
 8026090:	60e3      	str	r3, [r4, #12]
 8026092:	f104 0058 	add.w	r0, r4, #88	; 0x58
 8026096:	6665      	str	r5, [r4, #100]	; 0x64
 8026098:	f000 f847 	bl	802612a <__retarget_lock_init_recursive>
 802609c:	f7ff ff96 	bl	8025fcc <__sfp_lock_release>
 80260a0:	e9c4 5501 	strd	r5, r5, [r4, #4]
 80260a4:	e9c4 5504 	strd	r5, r5, [r4, #16]
 80260a8:	6025      	str	r5, [r4, #0]
 80260aa:	61a5      	str	r5, [r4, #24]
 80260ac:	2208      	movs	r2, #8
 80260ae:	4629      	mov	r1, r5
 80260b0:	f104 005c 	add.w	r0, r4, #92	; 0x5c
 80260b4:	f7ff fd18 	bl	8025ae8 <memset>
 80260b8:	e9c4 550d 	strd	r5, r5, [r4, #52]	; 0x34
 80260bc:	e9c4 5512 	strd	r5, r5, [r4, #72]	; 0x48
 80260c0:	4620      	mov	r0, r4
 80260c2:	bdf8      	pop	{r3, r4, r5, r6, r7, pc}
 80260c4:	3468      	adds	r4, #104	; 0x68
 80260c6:	e7d9      	b.n	802607c <__sfp+0x1c>
 80260c8:	2104      	movs	r1, #4
 80260ca:	4638      	mov	r0, r7
 80260cc:	f7ff ff62 	bl	8025f94 <__sfmoreglue>
 80260d0:	4604      	mov	r4, r0
 80260d2:	6030      	str	r0, [r6, #0]
 80260d4:	2800      	cmp	r0, #0
 80260d6:	d1d5      	bne.n	8026084 <__sfp+0x24>
 80260d8:	f7ff ff78 	bl	8025fcc <__sfp_lock_release>
 80260dc:	230c      	movs	r3, #12
 80260de:	603b      	str	r3, [r7, #0]
 80260e0:	e7ee      	b.n	80260c0 <__sfp+0x60>
 80260e2:	bf00      	nop
 80260e4:	08026ca8 	.word	0x08026ca8
 80260e8:	ffff0001 	.word	0xffff0001

080260ec <_fwalk_reent>:
 80260ec:	e92d 43f8 	stmdb	sp!, {r3, r4, r5, r6, r7, r8, r9, lr}
 80260f0:	4606      	mov	r6, r0
 80260f2:	4688      	mov	r8, r1
 80260f4:	f100 0448 	add.w	r4, r0, #72	; 0x48
 80260f8:	2700      	movs	r7, #0
 80260fa:	e9d4 9501 	ldrd	r9, r5, [r4, #4]
 80260fe:	f1b9 0901 	subs.w	r9, r9, #1
 8026102:	d505      	bpl.n	8026110 <_fwalk_reent+0x24>
 8026104:	6824      	ldr	r4, [r4, #0]
 8026106:	2c00      	cmp	r4, #0
 8026108:	d1f7      	bne.n	80260fa <_fwalk_reent+0xe>
 802610a:	4638      	mov	r0, r7
 802610c:	e8bd 83f8 	ldmia.w	sp!, {r3, r4, r5, r6, r7, r8, r9, pc}
 8026110:	89ab      	ldrh	r3, [r5, #12]
 8026112:	2b01      	cmp	r3, #1
 8026114:	d907      	bls.n	8026126 <_fwalk_reent+0x3a>
 8026116:	f9b5 300e 	ldrsh.w	r3, [r5, #14]
 802611a:	3301      	adds	r3, #1
 802611c:	d003      	beq.n	8026126 <_fwalk_reent+0x3a>
 802611e:	4629      	mov	r1, r5
 8026120:	4630      	mov	r0, r6
 8026122:	47c0      	blx	r8
 8026124:	4307      	orrs	r7, r0
 8026126:	3568      	adds	r5, #104	; 0x68
 8026128:	e7e9      	b.n	80260fe <_fwalk_reent+0x12>

0802612a <__retarget_lock_init_recursive>:
 802612a:	4770      	bx	lr

0802612c <__retarget_lock_acquire_recursive>:
 802612c:	4770      	bx	lr

0802612e <__retarget_lock_release_recursive>:
 802612e:	4770      	bx	lr

08026130 <__swhatbuf_r>:
 8026130:	b570      	push	{r4, r5, r6, lr}
 8026132:	460e      	mov	r6, r1
 8026134:	f9b1 100e 	ldrsh.w	r1, [r1, #14]
 8026138:	2900      	cmp	r1, #0
 802613a:	b096      	sub	sp, #88	; 0x58
 802613c:	4614      	mov	r4, r2
 802613e:	461d      	mov	r5, r3
 8026140:	da07      	bge.n	8026152 <__swhatbuf_r+0x22>
 8026142:	2300      	movs	r3, #0
 8026144:	602b      	str	r3, [r5, #0]
 8026146:	89b3      	ldrh	r3, [r6, #12]
 8026148:	061a      	lsls	r2, r3, #24
 802614a:	d410      	bmi.n	802616e <__swhatbuf_r+0x3e>
 802614c:	f44f 6380 	mov.w	r3, #1024	; 0x400
 8026150:	e00e      	b.n	8026170 <__swhatbuf_r+0x40>
 8026152:	466a      	mov	r2, sp
 8026154:	f000 fc5e 	bl	8026a14 <_fstat_r>
 8026158:	2800      	cmp	r0, #0
 802615a:	dbf2      	blt.n	8026142 <__swhatbuf_r+0x12>
 802615c:	9a01      	ldr	r2, [sp, #4]
 802615e:	f402 4270 	and.w	r2, r2, #61440	; 0xf000
 8026162:	f5a2 5300 	sub.w	r3, r2, #8192	; 0x2000
 8026166:	425a      	negs	r2, r3
 8026168:	415a      	adcs	r2, r3
 802616a:	602a      	str	r2, [r5, #0]
 802616c:	e7ee      	b.n	802614c <__swhatbuf_r+0x1c>
 802616e:	2340      	movs	r3, #64	; 0x40
 8026170:	2000      	movs	r0, #0
 8026172:	6023      	str	r3, [r4, #0]
 8026174:	b016      	add	sp, #88	; 0x58
 8026176:	bd70      	pop	{r4, r5, r6, pc}

08026178 <__smakebuf_r>:
 8026178:	898b      	ldrh	r3, [r1, #12]
 802617a:	b573      	push	{r0, r1, r4, r5, r6, lr}
 802617c:	079d      	lsls	r5, r3, #30
 802617e:	4606      	mov	r6, r0
 8026180:	460c      	mov	r4, r1
 8026182:	d507      	bpl.n	8026194 <__smakebuf_r+0x1c>
 8026184:	f104 0347 	add.w	r3, r4, #71	; 0x47
 8026188:	6023      	str	r3, [r4, #0]
 802618a:	6123      	str	r3, [r4, #16]
 802618c:	2301      	movs	r3, #1
 802618e:	6163      	str	r3, [r4, #20]
 8026190:	b002      	add	sp, #8
 8026192:	bd70      	pop	{r4, r5, r6, pc}
 8026194:	ab01      	add	r3, sp, #4
 8026196:	466a      	mov	r2, sp
 8026198:	f7ff ffca 	bl	8026130 <__swhatbuf_r>
 802619c:	9900      	ldr	r1, [sp, #0]
 802619e:	4605      	mov	r5, r0
 80261a0:	4630      	mov	r0, r6
 80261a2:	f000 f879 	bl	8026298 <_malloc_r>
 80261a6:	b948      	cbnz	r0, 80261bc <__smakebuf_r+0x44>
 80261a8:	f9b4 300c 	ldrsh.w	r3, [r4, #12]
 80261ac:	059a      	lsls	r2, r3, #22
 80261ae:	d4ef      	bmi.n	8026190 <__smakebuf_r+0x18>
 80261b0:	f023 0303 	bic.w	r3, r3, #3
 80261b4:	f043 0302 	orr.w	r3, r3, #2
 80261b8:	81a3      	strh	r3, [r4, #12]
 80261ba:	e7e3      	b.n	8026184 <__smakebuf_r+0xc>
 80261bc:	4b0d      	ldr	r3, [pc, #52]	; (80261f4 <__smakebuf_r+0x7c>)
 80261be:	62b3      	str	r3, [r6, #40]	; 0x28
 80261c0:	89a3      	ldrh	r3, [r4, #12]
 80261c2:	6020      	str	r0, [r4, #0]
 80261c4:	f043 0380 	orr.w	r3, r3, #128	; 0x80
 80261c8:	81a3      	strh	r3, [r4, #12]
 80261ca:	9b00      	ldr	r3, [sp, #0]
 80261cc:	6163      	str	r3, [r4, #20]
 80261ce:	9b01      	ldr	r3, [sp, #4]
 80261d0:	6120      	str	r0, [r4, #16]
 80261d2:	b15b      	cbz	r3, 80261ec <__smakebuf_r+0x74>
 80261d4:	f9b4 100e 	ldrsh.w	r1, [r4, #14]
 80261d8:	4630      	mov	r0, r6
 80261da:	f000 fc2d 	bl	8026a38 <_isatty_r>
 80261de:	b128      	cbz	r0, 80261ec <__smakebuf_r+0x74>
 80261e0:	89a3      	ldrh	r3, [r4, #12]
 80261e2:	f023 0303 	bic.w	r3, r3, #3
 80261e6:	f043 0301 	orr.w	r3, r3, #1
 80261ea:	81a3      	strh	r3, [r4, #12]
 80261ec:	89a0      	ldrh	r0, [r4, #12]
 80261ee:	4305      	orrs	r5, r0
 80261f0:	81a5      	strh	r5, [r4, #12]
 80261f2:	e7cd      	b.n	8026190 <__smakebuf_r+0x18>
 80261f4:	08025f89 	.word	0x08025f89

080261f8 <_free_r>:
 80261f8:	b537      	push	{r0, r1, r2, r4, r5, lr}
 80261fa:	2900      	cmp	r1, #0
 80261fc:	d048      	beq.n	8026290 <_free_r+0x98>
 80261fe:	f851 3c04 	ldr.w	r3, [r1, #-4]
 8026202:	9001      	str	r0, [sp, #4]
 8026204:	2b00      	cmp	r3, #0
 8026206:	f1a1 0404 	sub.w	r4, r1, #4
 802620a:	bfb8      	it	lt
 802620c:	18e4      	addlt	r4, r4, r3
 802620e:	f000 fc35 	bl	8026a7c <__malloc_lock>
 8026212:	4a20      	ldr	r2, [pc, #128]	; (8026294 <_free_r+0x9c>)
 8026214:	9801      	ldr	r0, [sp, #4]
 8026216:	6813      	ldr	r3, [r2, #0]
 8026218:	4615      	mov	r5, r2
 802621a:	b933      	cbnz	r3, 802622a <_free_r+0x32>
 802621c:	6063      	str	r3, [r4, #4]
 802621e:	6014      	str	r4, [r2, #0]
 8026220:	b003      	add	sp, #12
 8026222:	e8bd 4030 	ldmia.w	sp!, {r4, r5, lr}
 8026226:	f000 bc2f 	b.w	8026a88 <__malloc_unlock>
 802622a:	42a3      	cmp	r3, r4
 802622c:	d90b      	bls.n	8026246 <_free_r+0x4e>
 802622e:	6821      	ldr	r1, [r4, #0]
 8026230:	1862      	adds	r2, r4, r1
 8026232:	4293      	cmp	r3, r2
 8026234:	bf04      	itt	eq
 8026236:	681a      	ldreq	r2, [r3, #0]
 8026238:	685b      	ldreq	r3, [r3, #4]
 802623a:	6063      	str	r3, [r4, #4]
 802623c:	bf04      	itt	eq
 802623e:	1852      	addeq	r2, r2, r1
 8026240:	6022      	streq	r2, [r4, #0]
 8026242:	602c      	str	r4, [r5, #0]
 8026244:	e7ec      	b.n	8026220 <_free_r+0x28>
 8026246:	461a      	mov	r2, r3
 8026248:	685b      	ldr	r3, [r3, #4]
 802624a:	b10b      	cbz	r3, 8026250 <_free_r+0x58>
 802624c:	42a3      	cmp	r3, r4
 802624e:	d9fa      	bls.n	8026246 <_free_r+0x4e>
 8026250:	6811      	ldr	r1, [r2, #0]
 8026252:	1855      	adds	r5, r2, r1
 8026254:	42a5      	cmp	r5, r4
 8026256:	d10b      	bne.n	8026270 <_free_r+0x78>
 8026258:	6824      	ldr	r4, [r4, #0]
 802625a:	4421      	add	r1, r4
 802625c:	1854      	adds	r4, r2, r1
 802625e:	42a3      	cmp	r3, r4
 8026260:	6011      	str	r1, [r2, #0]
 8026262:	d1dd      	bne.n	8026220 <_free_r+0x28>
 8026264:	681c      	ldr	r4, [r3, #0]
 8026266:	685b      	ldr	r3, [r3, #4]
 8026268:	6053      	str	r3, [r2, #4]
 802626a:	4421      	add	r1, r4
 802626c:	6011      	str	r1, [r2, #0]
 802626e:	e7d7      	b.n	8026220 <_free_r+0x28>
 8026270:	d902      	bls.n	8026278 <_free_r+0x80>
 8026272:	230c      	movs	r3, #12
 8026274:	6003      	str	r3, [r0, #0]
 8026276:	e7d3      	b.n	8026220 <_free_r+0x28>
 8026278:	6825      	ldr	r5, [r4, #0]
 802627a:	1961      	adds	r1, r4, r5
 802627c:	428b      	cmp	r3, r1
 802627e:	bf04      	itt	eq
 8026280:	6819      	ldreq	r1, [r3, #0]
 8026282:	685b      	ldreq	r3, [r3, #4]
 8026284:	6063      	str	r3, [r4, #4]
 8026286:	bf04      	itt	eq
 8026288:	1949      	addeq	r1, r1, r5
 802628a:	6021      	streq	r1, [r4, #0]
 802628c:	6054      	str	r4, [r2, #4]
 802628e:	e7c7      	b.n	8026220 <_free_r+0x28>
 8026290:	b003      	add	sp, #12
 8026292:	bd30      	pop	{r4, r5, pc}
 8026294:	200005a4 	.word	0x200005a4

08026298 <_malloc_r>:
 8026298:	b5f8      	push	{r3, r4, r5, r6, r7, lr}
 802629a:	1ccd      	adds	r5, r1, #3
 802629c:	f025 0503 	bic.w	r5, r5, #3
 80262a0:	3508      	adds	r5, #8
 80262a2:	2d0c      	cmp	r5, #12
 80262a4:	bf38      	it	cc
 80262a6:	250c      	movcc	r5, #12
 80262a8:	2d00      	cmp	r5, #0
 80262aa:	4606      	mov	r6, r0
 80262ac:	db01      	blt.n	80262b2 <_malloc_r+0x1a>
 80262ae:	42a9      	cmp	r1, r5
 80262b0:	d903      	bls.n	80262ba <_malloc_r+0x22>
 80262b2:	230c      	movs	r3, #12
 80262b4:	6033      	str	r3, [r6, #0]
 80262b6:	2000      	movs	r0, #0
 80262b8:	bdf8      	pop	{r3, r4, r5, r6, r7, pc}
 80262ba:	f000 fbdf 	bl	8026a7c <__malloc_lock>
 80262be:	4921      	ldr	r1, [pc, #132]	; (8026344 <_malloc_r+0xac>)
 80262c0:	680a      	ldr	r2, [r1, #0]
 80262c2:	4614      	mov	r4, r2
 80262c4:	b99c      	cbnz	r4, 80262ee <_malloc_r+0x56>
 80262c6:	4f20      	ldr	r7, [pc, #128]	; (8026348 <_malloc_r+0xb0>)
 80262c8:	683b      	ldr	r3, [r7, #0]
 80262ca:	b923      	cbnz	r3, 80262d6 <_malloc_r+0x3e>
 80262cc:	4621      	mov	r1, r4
 80262ce:	4630      	mov	r0, r6
 80262d0:	f000 fb2a 	bl	8026928 <_sbrk_r>
 80262d4:	6038      	str	r0, [r7, #0]
 80262d6:	4629      	mov	r1, r5
 80262d8:	4630      	mov	r0, r6
 80262da:	f000 fb25 	bl	8026928 <_sbrk_r>
 80262de:	1c43      	adds	r3, r0, #1
 80262e0:	d123      	bne.n	802632a <_malloc_r+0x92>
 80262e2:	230c      	movs	r3, #12
 80262e4:	6033      	str	r3, [r6, #0]
 80262e6:	4630      	mov	r0, r6
 80262e8:	f000 fbce 	bl	8026a88 <__malloc_unlock>
 80262ec:	e7e3      	b.n	80262b6 <_malloc_r+0x1e>
 80262ee:	6823      	ldr	r3, [r4, #0]
 80262f0:	1b5b      	subs	r3, r3, r5
 80262f2:	d417      	bmi.n	8026324 <_malloc_r+0x8c>
 80262f4:	2b0b      	cmp	r3, #11
 80262f6:	d903      	bls.n	8026300 <_malloc_r+0x68>
 80262f8:	6023      	str	r3, [r4, #0]
 80262fa:	441c      	add	r4, r3
 80262fc:	6025      	str	r5, [r4, #0]
 80262fe:	e004      	b.n	802630a <_malloc_r+0x72>
 8026300:	6863      	ldr	r3, [r4, #4]
 8026302:	42a2      	cmp	r2, r4
 8026304:	bf0c      	ite	eq
 8026306:	600b      	streq	r3, [r1, #0]
 8026308:	6053      	strne	r3, [r2, #4]
 802630a:	4630      	mov	r0, r6
 802630c:	f000 fbbc 	bl	8026a88 <__malloc_unlock>
 8026310:	f104 000b 	add.w	r0, r4, #11
 8026314:	1d23      	adds	r3, r4, #4
 8026316:	f020 0007 	bic.w	r0, r0, #7
 802631a:	1ac2      	subs	r2, r0, r3
 802631c:	d0cc      	beq.n	80262b8 <_malloc_r+0x20>
 802631e:	1a1b      	subs	r3, r3, r0
 8026320:	50a3      	str	r3, [r4, r2]
 8026322:	e7c9      	b.n	80262b8 <_malloc_r+0x20>
 8026324:	4622      	mov	r2, r4
 8026326:	6864      	ldr	r4, [r4, #4]
 8026328:	e7cc      	b.n	80262c4 <_malloc_r+0x2c>
 802632a:	1cc4      	adds	r4, r0, #3
 802632c:	f024 0403 	bic.w	r4, r4, #3
 8026330:	42a0      	cmp	r0, r4
 8026332:	d0e3      	beq.n	80262fc <_malloc_r+0x64>
 8026334:	1a21      	subs	r1, r4, r0
 8026336:	4630      	mov	r0, r6
 8026338:	f000 faf6 	bl	8026928 <_sbrk_r>
 802633c:	3001      	adds	r0, #1
 802633e:	d1dd      	bne.n	80262fc <_malloc_r+0x64>
 8026340:	e7cf      	b.n	80262e2 <_malloc_r+0x4a>
 8026342:	bf00      	nop
 8026344:	200005a4 	.word	0x200005a4
 8026348:	200005a8 	.word	0x200005a8

0802634c <__sfputc_r>:
 802634c:	6893      	ldr	r3, [r2, #8]
 802634e:	3b01      	subs	r3, #1
 8026350:	2b00      	cmp	r3, #0
 8026352:	b410      	push	{r4}
 8026354:	6093      	str	r3, [r2, #8]
 8026356:	da08      	bge.n	802636a <__sfputc_r+0x1e>
 8026358:	6994      	ldr	r4, [r2, #24]
 802635a:	42a3      	cmp	r3, r4
 802635c:	db01      	blt.n	8026362 <__sfputc_r+0x16>
 802635e:	290a      	cmp	r1, #10
 8026360:	d103      	bne.n	802636a <__sfputc_r+0x1e>
 8026362:	f85d 4b04 	ldr.w	r4, [sp], #4
 8026366:	f7ff bc69 	b.w	8025c3c <__swbuf_r>
 802636a:	6813      	ldr	r3, [r2, #0]
 802636c:	1c58      	adds	r0, r3, #1
 802636e:	6010      	str	r0, [r2, #0]
 8026370:	7019      	strb	r1, [r3, #0]
 8026372:	4608      	mov	r0, r1
 8026374:	f85d 4b04 	ldr.w	r4, [sp], #4
 8026378:	4770      	bx	lr

0802637a <__sfputs_r>:
 802637a:	b5f8      	push	{r3, r4, r5, r6, r7, lr}
 802637c:	4606      	mov	r6, r0
 802637e:	460f      	mov	r7, r1
 8026380:	4614      	mov	r4, r2
 8026382:	18d5      	adds	r5, r2, r3
 8026384:	42ac      	cmp	r4, r5
 8026386:	d101      	bne.n	802638c <__sfputs_r+0x12>
 8026388:	2000      	movs	r0, #0
 802638a:	e007      	b.n	802639c <__sfputs_r+0x22>
 802638c:	f814 1b01 	ldrb.w	r1, [r4], #1
 8026390:	463a      	mov	r2, r7
 8026392:	4630      	mov	r0, r6
 8026394:	f7ff ffda 	bl	802634c <__sfputc_r>
 8026398:	1c43      	adds	r3, r0, #1
 802639a:	d1f3      	bne.n	8026384 <__sfputs_r+0xa>
 802639c:	bdf8      	pop	{r3, r4, r5, r6, r7, pc}
	...

080263a0 <_vfiprintf_r>:
 80263a0:	e92d 4ff0 	stmdb	sp!, {r4, r5, r6, r7, r8, r9, sl, fp, lr}
 80263a4:	460d      	mov	r5, r1
 80263a6:	b09d      	sub	sp, #116	; 0x74
 80263a8:	4614      	mov	r4, r2
 80263aa:	4698      	mov	r8, r3
 80263ac:	4606      	mov	r6, r0
 80263ae:	b118      	cbz	r0, 80263b8 <_vfiprintf_r+0x18>
 80263b0:	6983      	ldr	r3, [r0, #24]
 80263b2:	b90b      	cbnz	r3, 80263b8 <_vfiprintf_r+0x18>
 80263b4:	f7ff fe1c 	bl	8025ff0 <__sinit>
 80263b8:	4b89      	ldr	r3, [pc, #548]	; (80265e0 <_vfiprintf_r+0x240>)
 80263ba:	429d      	cmp	r5, r3
 80263bc:	d11b      	bne.n	80263f6 <_vfiprintf_r+0x56>
 80263be:	6875      	ldr	r5, [r6, #4]
 80263c0:	6e6b      	ldr	r3, [r5, #100]	; 0x64
 80263c2:	07d9      	lsls	r1, r3, #31
 80263c4:	d405      	bmi.n	80263d2 <_vfiprintf_r+0x32>
 80263c6:	89ab      	ldrh	r3, [r5, #12]
 80263c8:	059a      	lsls	r2, r3, #22
 80263ca:	d402      	bmi.n	80263d2 <_vfiprintf_r+0x32>
 80263cc:	6da8      	ldr	r0, [r5, #88]	; 0x58
 80263ce:	f7ff fead 	bl	802612c <__retarget_lock_acquire_recursive>
 80263d2:	89ab      	ldrh	r3, [r5, #12]
 80263d4:	071b      	lsls	r3, r3, #28
 80263d6:	d501      	bpl.n	80263dc <_vfiprintf_r+0x3c>
 80263d8:	692b      	ldr	r3, [r5, #16]
 80263da:	b9eb      	cbnz	r3, 8026418 <_vfiprintf_r+0x78>
 80263dc:	4629      	mov	r1, r5
 80263de:	4630      	mov	r0, r6
 80263e0:	f7ff fc7e 	bl	8025ce0 <__swsetup_r>
 80263e4:	b1c0      	cbz	r0, 8026418 <_vfiprintf_r+0x78>
 80263e6:	6e6b      	ldr	r3, [r5, #100]	; 0x64
 80263e8:	07dc      	lsls	r4, r3, #31
 80263ea:	d50e      	bpl.n	802640a <_vfiprintf_r+0x6a>
 80263ec:	f04f 30ff 	mov.w	r0, #4294967295	; 0xffffffff
 80263f0:	b01d      	add	sp, #116	; 0x74
 80263f2:	e8bd 8ff0 	ldmia.w	sp!, {r4, r5, r6, r7, r8, r9, sl, fp, pc}
 80263f6:	4b7b      	ldr	r3, [pc, #492]	; (80265e4 <_vfiprintf_r+0x244>)
 80263f8:	429d      	cmp	r5, r3
 80263fa:	d101      	bne.n	8026400 <_vfiprintf_r+0x60>
 80263fc:	68b5      	ldr	r5, [r6, #8]
 80263fe:	e7df      	b.n	80263c0 <_vfiprintf_r+0x20>
 8026400:	4b79      	ldr	r3, [pc, #484]	; (80265e8 <_vfiprintf_r+0x248>)
 8026402:	429d      	cmp	r5, r3
 8026404:	bf08      	it	eq
 8026406:	68f5      	ldreq	r5, [r6, #12]
 8026408:	e7da      	b.n	80263c0 <_vfiprintf_r+0x20>
 802640a:	89ab      	ldrh	r3, [r5, #12]
 802640c:	0598      	lsls	r0, r3, #22
 802640e:	d4ed      	bmi.n	80263ec <_vfiprintf_r+0x4c>
 8026410:	6da8      	ldr	r0, [r5, #88]	; 0x58
 8026412:	f7ff fe8c 	bl	802612e <__retarget_lock_release_recursive>
 8026416:	e7e9      	b.n	80263ec <_vfiprintf_r+0x4c>
 8026418:	2300      	movs	r3, #0
 802641a:	9309      	str	r3, [sp, #36]	; 0x24
 802641c:	2320      	movs	r3, #32
 802641e:	f88d 3029 	strb.w	r3, [sp, #41]	; 0x29
 8026422:	f8cd 800c 	str.w	r8, [sp, #12]
 8026426:	2330      	movs	r3, #48	; 0x30
 8026428:	f8df 81c0 	ldr.w	r8, [pc, #448]	; 80265ec <_vfiprintf_r+0x24c>
 802642c:	f88d 302a 	strb.w	r3, [sp, #42]	; 0x2a
 8026430:	f04f 0901 	mov.w	r9, #1
 8026434:	4623      	mov	r3, r4
 8026436:	469a      	mov	sl, r3
 8026438:	f813 2b01 	ldrb.w	r2, [r3], #1
 802643c:	b10a      	cbz	r2, 8026442 <_vfiprintf_r+0xa2>
 802643e:	2a25      	cmp	r2, #37	; 0x25
 8026440:	d1f9      	bne.n	8026436 <_vfiprintf_r+0x96>
 8026442:	ebba 0b04 	subs.w	fp, sl, r4
 8026446:	d00b      	beq.n	8026460 <_vfiprintf_r+0xc0>
 8026448:	465b      	mov	r3, fp
 802644a:	4622      	mov	r2, r4
 802644c:	4629      	mov	r1, r5
 802644e:	4630      	mov	r0, r6
 8026450:	f7ff ff93 	bl	802637a <__sfputs_r>
 8026454:	3001      	adds	r0, #1
 8026456:	f000 80aa 	beq.w	80265ae <_vfiprintf_r+0x20e>
 802645a:	9a09      	ldr	r2, [sp, #36]	; 0x24
 802645c:	445a      	add	r2, fp
 802645e:	9209      	str	r2, [sp, #36]	; 0x24
 8026460:	f89a 3000 	ldrb.w	r3, [sl]
 8026464:	2b00      	cmp	r3, #0
 8026466:	f000 80a2 	beq.w	80265ae <_vfiprintf_r+0x20e>
 802646a:	2300      	movs	r3, #0
 802646c:	f04f 32ff 	mov.w	r2, #4294967295	; 0xffffffff
 8026470:	e9cd 2305 	strd	r2, r3, [sp, #20]
 8026474:	f10a 0a01 	add.w	sl, sl, #1
 8026478:	9304      	str	r3, [sp, #16]
 802647a:	9307      	str	r3, [sp, #28]
 802647c:	f88d 3053 	strb.w	r3, [sp, #83]	; 0x53
 8026480:	931a      	str	r3, [sp, #104]	; 0x68
 8026482:	4654      	mov	r4, sl
 8026484:	2205      	movs	r2, #5
 8026486:	f814 1b01 	ldrb.w	r1, [r4], #1
 802648a:	4858      	ldr	r0, [pc, #352]	; (80265ec <_vfiprintf_r+0x24c>)
 802648c:	f7fa f830 	bl	80204f0 <memchr>
 8026490:	9a04      	ldr	r2, [sp, #16]
 8026492:	b9d8      	cbnz	r0, 80264cc <_vfiprintf_r+0x12c>
 8026494:	06d1      	lsls	r1, r2, #27
 8026496:	bf44      	itt	mi
 8026498:	2320      	movmi	r3, #32
 802649a:	f88d 3053 	strbmi.w	r3, [sp, #83]	; 0x53
 802649e:	0713      	lsls	r3, r2, #28
 80264a0:	bf44      	itt	mi
 80264a2:	232b      	movmi	r3, #43	; 0x2b
 80264a4:	f88d 3053 	strbmi.w	r3, [sp, #83]	; 0x53
 80264a8:	f89a 3000 	ldrb.w	r3, [sl]
 80264ac:	2b2a      	cmp	r3, #42	; 0x2a
 80264ae:	d015      	beq.n	80264dc <_vfiprintf_r+0x13c>
 80264b0:	9a07      	ldr	r2, [sp, #28]
 80264b2:	4654      	mov	r4, sl
 80264b4:	2000      	movs	r0, #0
 80264b6:	f04f 0c0a 	mov.w	ip, #10
 80264ba:	4621      	mov	r1, r4
 80264bc:	f811 3b01 	ldrb.w	r3, [r1], #1
 80264c0:	3b30      	subs	r3, #48	; 0x30
 80264c2:	2b09      	cmp	r3, #9
 80264c4:	d94e      	bls.n	8026564 <_vfiprintf_r+0x1c4>
 80264c6:	b1b0      	cbz	r0, 80264f6 <_vfiprintf_r+0x156>
 80264c8:	9207      	str	r2, [sp, #28]
 80264ca:	e014      	b.n	80264f6 <_vfiprintf_r+0x156>
 80264cc:	eba0 0308 	sub.w	r3, r0, r8
 80264d0:	fa09 f303 	lsl.w	r3, r9, r3
 80264d4:	4313      	orrs	r3, r2
 80264d6:	9304      	str	r3, [sp, #16]
 80264d8:	46a2      	mov	sl, r4
 80264da:	e7d2      	b.n	8026482 <_vfiprintf_r+0xe2>
 80264dc:	9b03      	ldr	r3, [sp, #12]
 80264de:	1d19      	adds	r1, r3, #4
 80264e0:	681b      	ldr	r3, [r3, #0]
 80264e2:	9103      	str	r1, [sp, #12]
 80264e4:	2b00      	cmp	r3, #0
 80264e6:	bfbb      	ittet	lt
 80264e8:	425b      	neglt	r3, r3
 80264ea:	f042 0202 	orrlt.w	r2, r2, #2
 80264ee:	9307      	strge	r3, [sp, #28]
 80264f0:	9307      	strlt	r3, [sp, #28]
 80264f2:	bfb8      	it	lt
 80264f4:	9204      	strlt	r2, [sp, #16]
 80264f6:	7823      	ldrb	r3, [r4, #0]
 80264f8:	2b2e      	cmp	r3, #46	; 0x2e
 80264fa:	d10c      	bne.n	8026516 <_vfiprintf_r+0x176>
 80264fc:	7863      	ldrb	r3, [r4, #1]
 80264fe:	2b2a      	cmp	r3, #42	; 0x2a
 8026500:	d135      	bne.n	802656e <_vfiprintf_r+0x1ce>
 8026502:	9b03      	ldr	r3, [sp, #12]
 8026504:	1d1a      	adds	r2, r3, #4
 8026506:	681b      	ldr	r3, [r3, #0]
 8026508:	9203      	str	r2, [sp, #12]
 802650a:	2b00      	cmp	r3, #0
 802650c:	bfb8      	it	lt
 802650e:	f04f 33ff 	movlt.w	r3, #4294967295	; 0xffffffff
 8026512:	3402      	adds	r4, #2
 8026514:	9305      	str	r3, [sp, #20]
 8026516:	f8df a0e4 	ldr.w	sl, [pc, #228]	; 80265fc <_vfiprintf_r+0x25c>
 802651a:	7821      	ldrb	r1, [r4, #0]
 802651c:	2203      	movs	r2, #3
 802651e:	4650      	mov	r0, sl
 8026520:	f7f9 ffe6 	bl	80204f0 <memchr>
 8026524:	b140      	cbz	r0, 8026538 <_vfiprintf_r+0x198>
 8026526:	2340      	movs	r3, #64	; 0x40
 8026528:	eba0 000a 	sub.w	r0, r0, sl
 802652c:	fa03 f000 	lsl.w	r0, r3, r0
 8026530:	9b04      	ldr	r3, [sp, #16]
 8026532:	4303      	orrs	r3, r0
 8026534:	3401      	adds	r4, #1
 8026536:	9304      	str	r3, [sp, #16]
 8026538:	f814 1b01 	ldrb.w	r1, [r4], #1
 802653c:	482c      	ldr	r0, [pc, #176]	; (80265f0 <_vfiprintf_r+0x250>)
 802653e:	f88d 1028 	strb.w	r1, [sp, #40]	; 0x28
 8026542:	2206      	movs	r2, #6
 8026544:	f7f9 ffd4 	bl	80204f0 <memchr>
 8026548:	2800      	cmp	r0, #0
 802654a:	d03f      	beq.n	80265cc <_vfiprintf_r+0x22c>
 802654c:	4b29      	ldr	r3, [pc, #164]	; (80265f4 <_vfiprintf_r+0x254>)
 802654e:	bb1b      	cbnz	r3, 8026598 <_vfiprintf_r+0x1f8>
 8026550:	9b03      	ldr	r3, [sp, #12]
 8026552:	3307      	adds	r3, #7
 8026554:	f023 0307 	bic.w	r3, r3, #7
 8026558:	3308      	adds	r3, #8
 802655a:	9303      	str	r3, [sp, #12]
 802655c:	9b09      	ldr	r3, [sp, #36]	; 0x24
 802655e:	443b      	add	r3, r7
 8026560:	9309      	str	r3, [sp, #36]	; 0x24
 8026562:	e767      	b.n	8026434 <_vfiprintf_r+0x94>
 8026564:	fb0c 3202 	mla	r2, ip, r2, r3
 8026568:	460c      	mov	r4, r1
 802656a:	2001      	movs	r0, #1
 802656c:	e7a5      	b.n	80264ba <_vfiprintf_r+0x11a>
 802656e:	2300      	movs	r3, #0
 8026570:	3401      	adds	r4, #1
 8026572:	9305      	str	r3, [sp, #20]
 8026574:	4619      	mov	r1, r3
 8026576:	f04f 0c0a 	mov.w	ip, #10
 802657a:	4620      	mov	r0, r4
 802657c:	f810 2b01 	ldrb.w	r2, [r0], #1
 8026580:	3a30      	subs	r2, #48	; 0x30
 8026582:	2a09      	cmp	r2, #9
 8026584:	d903      	bls.n	802658e <_vfiprintf_r+0x1ee>
 8026586:	2b00      	cmp	r3, #0
 8026588:	d0c5      	beq.n	8026516 <_vfiprintf_r+0x176>
 802658a:	9105      	str	r1, [sp, #20]
 802658c:	e7c3      	b.n	8026516 <_vfiprintf_r+0x176>
 802658e:	fb0c 2101 	mla	r1, ip, r1, r2
 8026592:	4604      	mov	r4, r0
 8026594:	2301      	movs	r3, #1
 8026596:	e7f0      	b.n	802657a <_vfiprintf_r+0x1da>
 8026598:	ab03      	add	r3, sp, #12
 802659a:	9300      	str	r3, [sp, #0]
 802659c:	462a      	mov	r2, r5
 802659e:	4b16      	ldr	r3, [pc, #88]	; (80265f8 <_vfiprintf_r+0x258>)
 80265a0:	a904      	add	r1, sp, #16
 80265a2:	4630      	mov	r0, r6
 80265a4:	f3af 8000 	nop.w
 80265a8:	4607      	mov	r7, r0
 80265aa:	1c78      	adds	r0, r7, #1
 80265ac:	d1d6      	bne.n	802655c <_vfiprintf_r+0x1bc>
 80265ae:	6e6b      	ldr	r3, [r5, #100]	; 0x64
 80265b0:	07d9      	lsls	r1, r3, #31
 80265b2:	d405      	bmi.n	80265c0 <_vfiprintf_r+0x220>
 80265b4:	89ab      	ldrh	r3, [r5, #12]
 80265b6:	059a      	lsls	r2, r3, #22
 80265b8:	d402      	bmi.n	80265c0 <_vfiprintf_r+0x220>
 80265ba:	6da8      	ldr	r0, [r5, #88]	; 0x58
 80265bc:	f7ff fdb7 	bl	802612e <__retarget_lock_release_recursive>
 80265c0:	89ab      	ldrh	r3, [r5, #12]
 80265c2:	065b      	lsls	r3, r3, #25
 80265c4:	f53f af12 	bmi.w	80263ec <_vfiprintf_r+0x4c>
 80265c8:	9809      	ldr	r0, [sp, #36]	; 0x24
 80265ca:	e711      	b.n	80263f0 <_vfiprintf_r+0x50>
 80265cc:	ab03      	add	r3, sp, #12
 80265ce:	9300      	str	r3, [sp, #0]
 80265d0:	462a      	mov	r2, r5
 80265d2:	4b09      	ldr	r3, [pc, #36]	; (80265f8 <_vfiprintf_r+0x258>)
 80265d4:	a904      	add	r1, sp, #16
 80265d6:	4630      	mov	r0, r6
 80265d8:	f000 f880 	bl	80266dc <_printf_i>
 80265dc:	e7e4      	b.n	80265a8 <_vfiprintf_r+0x208>
 80265de:	bf00      	nop
 80265e0:	08026ccc 	.word	0x08026ccc
 80265e4:	08026cec 	.word	0x08026cec
 80265e8:	08026cac 	.word	0x08026cac
 80265ec:	08026d0c 	.word	0x08026d0c
 80265f0:	08026d16 	.word	0x08026d16
 80265f4:	00000000 	.word	0x00000000
 80265f8:	0802637b 	.word	0x0802637b
 80265fc:	08026d12 	.word	0x08026d12

08026600 <_printf_common>:
 8026600:	e92d 47f0 	stmdb	sp!, {r4, r5, r6, r7, r8, r9, sl, lr}
 8026604:	4616      	mov	r6, r2
 8026606:	4699      	mov	r9, r3
 8026608:	688a      	ldr	r2, [r1, #8]
 802660a:	690b      	ldr	r3, [r1, #16]
 802660c:	f8dd 8020 	ldr.w	r8, [sp, #32]
 8026610:	4293      	cmp	r3, r2
 8026612:	bfb8      	it	lt
 8026614:	4613      	movlt	r3, r2
 8026616:	6033      	str	r3, [r6, #0]
 8026618:	f891 2043 	ldrb.w	r2, [r1, #67]	; 0x43
 802661c:	4607      	mov	r7, r0
 802661e:	460c      	mov	r4, r1
 8026620:	b10a      	cbz	r2, 8026626 <_printf_common+0x26>
 8026622:	3301      	adds	r3, #1
 8026624:	6033      	str	r3, [r6, #0]
 8026626:	6823      	ldr	r3, [r4, #0]
 8026628:	0699      	lsls	r1, r3, #26
 802662a:	bf42      	ittt	mi
 802662c:	6833      	ldrmi	r3, [r6, #0]
 802662e:	3302      	addmi	r3, #2
 8026630:	6033      	strmi	r3, [r6, #0]
 8026632:	6825      	ldr	r5, [r4, #0]
 8026634:	f015 0506 	ands.w	r5, r5, #6
 8026638:	d106      	bne.n	8026648 <_printf_common+0x48>
 802663a:	f104 0a19 	add.w	sl, r4, #25
 802663e:	68e3      	ldr	r3, [r4, #12]
 8026640:	6832      	ldr	r2, [r6, #0]
 8026642:	1a9b      	subs	r3, r3, r2
 8026644:	42ab      	cmp	r3, r5
 8026646:	dc26      	bgt.n	8026696 <_printf_common+0x96>
 8026648:	f894 2043 	ldrb.w	r2, [r4, #67]	; 0x43
 802664c:	1e13      	subs	r3, r2, #0
 802664e:	6822      	ldr	r2, [r4, #0]
 8026650:	bf18      	it	ne
 8026652:	2301      	movne	r3, #1
 8026654:	0692      	lsls	r2, r2, #26
 8026656:	d42b      	bmi.n	80266b0 <_printf_common+0xb0>
 8026658:	f104 0243 	add.w	r2, r4, #67	; 0x43
 802665c:	4649      	mov	r1, r9
 802665e:	4638      	mov	r0, r7
 8026660:	47c0      	blx	r8
 8026662:	3001      	adds	r0, #1
 8026664:	d01e      	beq.n	80266a4 <_printf_common+0xa4>
 8026666:	6823      	ldr	r3, [r4, #0]
 8026668:	68e5      	ldr	r5, [r4, #12]
 802666a:	6832      	ldr	r2, [r6, #0]
 802666c:	f003 0306 	and.w	r3, r3, #6
 8026670:	2b04      	cmp	r3, #4
 8026672:	bf08      	it	eq
 8026674:	1aad      	subeq	r5, r5, r2
 8026676:	68a3      	ldr	r3, [r4, #8]
 8026678:	6922      	ldr	r2, [r4, #16]
 802667a:	bf0c      	ite	eq
 802667c:	ea25 75e5 	biceq.w	r5, r5, r5, asr #31
 8026680:	2500      	movne	r5, #0
 8026682:	4293      	cmp	r3, r2
 8026684:	bfc4      	itt	gt
 8026686:	1a9b      	subgt	r3, r3, r2
 8026688:	18ed      	addgt	r5, r5, r3
 802668a:	2600      	movs	r6, #0
 802668c:	341a      	adds	r4, #26
 802668e:	42b5      	cmp	r5, r6
 8026690:	d11a      	bne.n	80266c8 <_printf_common+0xc8>
 8026692:	2000      	movs	r0, #0
 8026694:	e008      	b.n	80266a8 <_printf_common+0xa8>
 8026696:	2301      	movs	r3, #1
 8026698:	4652      	mov	r2, sl
 802669a:	4649      	mov	r1, r9
 802669c:	4638      	mov	r0, r7
 802669e:	47c0      	blx	r8
 80266a0:	3001      	adds	r0, #1
 80266a2:	d103      	bne.n	80266ac <_printf_common+0xac>
 80266a4:	f04f 30ff 	mov.w	r0, #4294967295	; 0xffffffff
 80266a8:	e8bd 87f0 	ldmia.w	sp!, {r4, r5, r6, r7, r8, r9, sl, pc}
 80266ac:	3501      	adds	r5, #1
 80266ae:	e7c6      	b.n	802663e <_printf_common+0x3e>
 80266b0:	18e1      	adds	r1, r4, r3
 80266b2:	1c5a      	adds	r2, r3, #1
 80266b4:	2030      	movs	r0, #48	; 0x30
 80266b6:	f881 0043 	strb.w	r0, [r1, #67]	; 0x43
 80266ba:	4422      	add	r2, r4
 80266bc:	f894 1045 	ldrb.w	r1, [r4, #69]	; 0x45
 80266c0:	f882 1043 	strb.w	r1, [r2, #67]	; 0x43
 80266c4:	3302      	adds	r3, #2
 80266c6:	e7c7      	b.n	8026658 <_printf_common+0x58>
 80266c8:	2301      	movs	r3, #1
 80266ca:	4622      	mov	r2, r4
 80266cc:	4649      	mov	r1, r9
 80266ce:	4638      	mov	r0, r7
 80266d0:	47c0      	blx	r8
 80266d2:	3001      	adds	r0, #1
 80266d4:	d0e6      	beq.n	80266a4 <_printf_common+0xa4>
 80266d6:	3601      	adds	r6, #1
 80266d8:	e7d9      	b.n	802668e <_printf_common+0x8e>
	...

080266dc <_printf_i>:
 80266dc:	e92d 47ff 	stmdb	sp!, {r0, r1, r2, r3, r4, r5, r6, r7, r8, r9, sl, lr}
 80266e0:	460c      	mov	r4, r1
 80266e2:	4691      	mov	r9, r2
 80266e4:	7e27      	ldrb	r7, [r4, #24]
 80266e6:	990c      	ldr	r1, [sp, #48]	; 0x30
 80266e8:	2f78      	cmp	r7, #120	; 0x78
 80266ea:	4680      	mov	r8, r0
 80266ec:	469a      	mov	sl, r3
 80266ee:	f104 0243 	add.w	r2, r4, #67	; 0x43
 80266f2:	d807      	bhi.n	8026704 <_printf_i+0x28>
 80266f4:	2f62      	cmp	r7, #98	; 0x62
 80266f6:	d80a      	bhi.n	802670e <_printf_i+0x32>
 80266f8:	2f00      	cmp	r7, #0
 80266fa:	f000 80d8 	beq.w	80268ae <_printf_i+0x1d2>
 80266fe:	2f58      	cmp	r7, #88	; 0x58
 8026700:	f000 80a3 	beq.w	802684a <_printf_i+0x16e>
 8026704:	f104 0642 	add.w	r6, r4, #66	; 0x42
 8026708:	f884 7042 	strb.w	r7, [r4, #66]	; 0x42
 802670c:	e03a      	b.n	8026784 <_printf_i+0xa8>
 802670e:	f1a7 0363 	sub.w	r3, r7, #99	; 0x63
 8026712:	2b15      	cmp	r3, #21
 8026714:	d8f6      	bhi.n	8026704 <_printf_i+0x28>
 8026716:	a001      	add	r0, pc, #4	; (adr r0, 802671c <_printf_i+0x40>)
 8026718:	f850 f023 	ldr.w	pc, [r0, r3, lsl #2]
 802671c:	08026775 	.word	0x08026775
 8026720:	08026789 	.word	0x08026789
 8026724:	08026705 	.word	0x08026705
 8026728:	08026705 	.word	0x08026705
 802672c:	08026705 	.word	0x08026705
 8026730:	08026705 	.word	0x08026705
 8026734:	08026789 	.word	0x08026789
 8026738:	08026705 	.word	0x08026705
 802673c:	08026705 	.word	0x08026705
 8026740:	08026705 	.word	0x08026705
 8026744:	08026705 	.word	0x08026705
 8026748:	08026895 	.word	0x08026895
 802674c:	080267b9 	.word	0x080267b9
 8026750:	08026877 	.word	0x08026877
 8026754:	08026705 	.word	0x08026705
 8026758:	08026705 	.word	0x08026705
 802675c:	080268b7 	.word	0x080268b7
 8026760:	08026705 	.word	0x08026705
 8026764:	080267b9 	.word	0x080267b9
 8026768:	08026705 	.word	0x08026705
 802676c:	08026705 	.word	0x08026705
 8026770:	0802687f 	.word	0x0802687f
 8026774:	680b      	ldr	r3, [r1, #0]
 8026776:	1d1a      	adds	r2, r3, #4
 8026778:	681b      	ldr	r3, [r3, #0]
 802677a:	600a      	str	r2, [r1, #0]
 802677c:	f104 0642 	add.w	r6, r4, #66	; 0x42
 8026780:	f884 3042 	strb.w	r3, [r4, #66]	; 0x42
 8026784:	2301      	movs	r3, #1
 8026786:	e0a3      	b.n	80268d0 <_printf_i+0x1f4>
 8026788:	6825      	ldr	r5, [r4, #0]
 802678a:	6808      	ldr	r0, [r1, #0]
 802678c:	062e      	lsls	r6, r5, #24
 802678e:	f100 0304 	add.w	r3, r0, #4
 8026792:	d50a      	bpl.n	80267aa <_printf_i+0xce>
 8026794:	6805      	ldr	r5, [r0, #0]
 8026796:	600b      	str	r3, [r1, #0]
 8026798:	2d00      	cmp	r5, #0
 802679a:	da03      	bge.n	80267a4 <_printf_i+0xc8>
 802679c:	232d      	movs	r3, #45	; 0x2d
 802679e:	426d      	negs	r5, r5
 80267a0:	f884 3043 	strb.w	r3, [r4, #67]	; 0x43
 80267a4:	485e      	ldr	r0, [pc, #376]	; (8026920 <_printf_i+0x244>)
 80267a6:	230a      	movs	r3, #10
 80267a8:	e019      	b.n	80267de <_printf_i+0x102>
 80267aa:	f015 0f40 	tst.w	r5, #64	; 0x40
 80267ae:	6805      	ldr	r5, [r0, #0]
 80267b0:	600b      	str	r3, [r1, #0]
 80267b2:	bf18      	it	ne
 80267b4:	b22d      	sxthne	r5, r5
 80267b6:	e7ef      	b.n	8026798 <_printf_i+0xbc>
 80267b8:	680b      	ldr	r3, [r1, #0]
 80267ba:	6825      	ldr	r5, [r4, #0]
 80267bc:	1d18      	adds	r0, r3, #4
 80267be:	6008      	str	r0, [r1, #0]
 80267c0:	0628      	lsls	r0, r5, #24
 80267c2:	d501      	bpl.n	80267c8 <_printf_i+0xec>
 80267c4:	681d      	ldr	r5, [r3, #0]
 80267c6:	e002      	b.n	80267ce <_printf_i+0xf2>
 80267c8:	0669      	lsls	r1, r5, #25
 80267ca:	d5fb      	bpl.n	80267c4 <_printf_i+0xe8>
 80267cc:	881d      	ldrh	r5, [r3, #0]
 80267ce:	4854      	ldr	r0, [pc, #336]	; (8026920 <_printf_i+0x244>)
 80267d0:	2f6f      	cmp	r7, #111	; 0x6f
 80267d2:	bf0c      	ite	eq
 80267d4:	2308      	moveq	r3, #8
 80267d6:	230a      	movne	r3, #10
 80267d8:	2100      	movs	r1, #0
 80267da:	f884 1043 	strb.w	r1, [r4, #67]	; 0x43
 80267de:	6866      	ldr	r6, [r4, #4]
 80267e0:	60a6      	str	r6, [r4, #8]
 80267e2:	2e00      	cmp	r6, #0
 80267e4:	bfa2      	ittt	ge
 80267e6:	6821      	ldrge	r1, [r4, #0]
 80267e8:	f021 0104 	bicge.w	r1, r1, #4
 80267ec:	6021      	strge	r1, [r4, #0]
 80267ee:	b90d      	cbnz	r5, 80267f4 <_printf_i+0x118>
 80267f0:	2e00      	cmp	r6, #0
 80267f2:	d04d      	beq.n	8026890 <_printf_i+0x1b4>
 80267f4:	4616      	mov	r6, r2
 80267f6:	fbb5 f1f3 	udiv	r1, r5, r3
 80267fa:	fb03 5711 	mls	r7, r3, r1, r5
 80267fe:	5dc7      	ldrb	r7, [r0, r7]
 8026800:	f806 7d01 	strb.w	r7, [r6, #-1]!
 8026804:	462f      	mov	r7, r5
 8026806:	42bb      	cmp	r3, r7
 8026808:	460d      	mov	r5, r1
 802680a:	d9f4      	bls.n	80267f6 <_printf_i+0x11a>
 802680c:	2b08      	cmp	r3, #8
 802680e:	d10b      	bne.n	8026828 <_printf_i+0x14c>
 8026810:	6823      	ldr	r3, [r4, #0]
 8026812:	07df      	lsls	r7, r3, #31
 8026814:	d508      	bpl.n	8026828 <_printf_i+0x14c>
 8026816:	6923      	ldr	r3, [r4, #16]
 8026818:	6861      	ldr	r1, [r4, #4]
 802681a:	4299      	cmp	r1, r3
 802681c:	bfde      	ittt	le
 802681e:	2330      	movle	r3, #48	; 0x30
 8026820:	f806 3c01 	strble.w	r3, [r6, #-1]
 8026824:	f106 36ff 	addle.w	r6, r6, #4294967295	; 0xffffffff
 8026828:	1b92      	subs	r2, r2, r6
 802682a:	6122      	str	r2, [r4, #16]
 802682c:	f8cd a000 	str.w	sl, [sp]
 8026830:	464b      	mov	r3, r9
 8026832:	aa03      	add	r2, sp, #12
 8026834:	4621      	mov	r1, r4
 8026836:	4640      	mov	r0, r8
 8026838:	f7ff fee2 	bl	8026600 <_printf_common>
 802683c:	3001      	adds	r0, #1
 802683e:	d14c      	bne.n	80268da <_printf_i+0x1fe>
 8026840:	f04f 30ff 	mov.w	r0, #4294967295	; 0xffffffff
 8026844:	b004      	add	sp, #16
 8026846:	e8bd 87f0 	ldmia.w	sp!, {r4, r5, r6, r7, r8, r9, sl, pc}
 802684a:	4835      	ldr	r0, [pc, #212]	; (8026920 <_printf_i+0x244>)
 802684c:	f884 7045 	strb.w	r7, [r4, #69]	; 0x45
 8026850:	6823      	ldr	r3, [r4, #0]
 8026852:	680e      	ldr	r6, [r1, #0]
 8026854:	061f      	lsls	r7, r3, #24
 8026856:	f856 5b04 	ldr.w	r5, [r6], #4
 802685a:	600e      	str	r6, [r1, #0]
 802685c:	d514      	bpl.n	8026888 <_printf_i+0x1ac>
 802685e:	07d9      	lsls	r1, r3, #31
 8026860:	bf44      	itt	mi
 8026862:	f043 0320 	orrmi.w	r3, r3, #32
 8026866:	6023      	strmi	r3, [r4, #0]
 8026868:	b91d      	cbnz	r5, 8026872 <_printf_i+0x196>
 802686a:	6823      	ldr	r3, [r4, #0]
 802686c:	f023 0320 	bic.w	r3, r3, #32
 8026870:	6023      	str	r3, [r4, #0]
 8026872:	2310      	movs	r3, #16
 8026874:	e7b0      	b.n	80267d8 <_printf_i+0xfc>
 8026876:	6823      	ldr	r3, [r4, #0]
 8026878:	f043 0320 	orr.w	r3, r3, #32
 802687c:	6023      	str	r3, [r4, #0]
 802687e:	2378      	movs	r3, #120	; 0x78
 8026880:	4828      	ldr	r0, [pc, #160]	; (8026924 <_printf_i+0x248>)
 8026882:	f884 3045 	strb.w	r3, [r4, #69]	; 0x45
 8026886:	e7e3      	b.n	8026850 <_printf_i+0x174>
 8026888:	065e      	lsls	r6, r3, #25
 802688a:	bf48      	it	mi
 802688c:	b2ad      	uxthmi	r5, r5
 802688e:	e7e6      	b.n	802685e <_printf_i+0x182>
 8026890:	4616      	mov	r6, r2
 8026892:	e7bb      	b.n	802680c <_printf_i+0x130>
 8026894:	680b      	ldr	r3, [r1, #0]
 8026896:	6826      	ldr	r6, [r4, #0]
 8026898:	6960      	ldr	r0, [r4, #20]
 802689a:	1d1d      	adds	r5, r3, #4
 802689c:	600d      	str	r5, [r1, #0]
 802689e:	0635      	lsls	r5, r6, #24
 80268a0:	681b      	ldr	r3, [r3, #0]
 80268a2:	d501      	bpl.n	80268a8 <_printf_i+0x1cc>
 80268a4:	6018      	str	r0, [r3, #0]
 80268a6:	e002      	b.n	80268ae <_printf_i+0x1d2>
 80268a8:	0671      	lsls	r1, r6, #25
 80268aa:	d5fb      	bpl.n	80268a4 <_printf_i+0x1c8>
 80268ac:	8018      	strh	r0, [r3, #0]
 80268ae:	2300      	movs	r3, #0
 80268b0:	6123      	str	r3, [r4, #16]
 80268b2:	4616      	mov	r6, r2
 80268b4:	e7ba      	b.n	802682c <_printf_i+0x150>
 80268b6:	680b      	ldr	r3, [r1, #0]
 80268b8:	1d1a      	adds	r2, r3, #4
 80268ba:	600a      	str	r2, [r1, #0]
 80268bc:	681e      	ldr	r6, [r3, #0]
 80268be:	6862      	ldr	r2, [r4, #4]
 80268c0:	2100      	movs	r1, #0
 80268c2:	4630      	mov	r0, r6
 80268c4:	f7f9 fe14 	bl	80204f0 <memchr>
 80268c8:	b108      	cbz	r0, 80268ce <_printf_i+0x1f2>
 80268ca:	1b80      	subs	r0, r0, r6
 80268cc:	6060      	str	r0, [r4, #4]
 80268ce:	6863      	ldr	r3, [r4, #4]
 80268d0:	6123      	str	r3, [r4, #16]
 80268d2:	2300      	movs	r3, #0
 80268d4:	f884 3043 	strb.w	r3, [r4, #67]	; 0x43
 80268d8:	e7a8      	b.n	802682c <_printf_i+0x150>
 80268da:	6923      	ldr	r3, [r4, #16]
 80268dc:	4632      	mov	r2, r6
 80268de:	4649      	mov	r1, r9
 80268e0:	4640      	mov	r0, r8
 80268e2:	47d0      	blx	sl
 80268e4:	3001      	adds	r0, #1
 80268e6:	d0ab      	beq.n	8026840 <_printf_i+0x164>
 80268e8:	6823      	ldr	r3, [r4, #0]
 80268ea:	079b      	lsls	r3, r3, #30
 80268ec:	d413      	bmi.n	8026916 <_printf_i+0x23a>
 80268ee:	68e0      	ldr	r0, [r4, #12]
 80268f0:	9b03      	ldr	r3, [sp, #12]
 80268f2:	4298      	cmp	r0, r3
 80268f4:	bfb8      	it	lt
 80268f6:	4618      	movlt	r0, r3
 80268f8:	e7a4      	b.n	8026844 <_printf_i+0x168>
 80268fa:	2301      	movs	r3, #1
 80268fc:	4632      	mov	r2, r6
 80268fe:	4649      	mov	r1, r9
 8026900:	4640      	mov	r0, r8
 8026902:	47d0      	blx	sl
 8026904:	3001      	adds	r0, #1
 8026906:	d09b      	beq.n	8026840 <_printf_i+0x164>
 8026908:	3501      	adds	r5, #1
 802690a:	68e3      	ldr	r3, [r4, #12]
 802690c:	9903      	ldr	r1, [sp, #12]
 802690e:	1a5b      	subs	r3, r3, r1
 8026910:	42ab      	cmp	r3, r5
 8026912:	dcf2      	bgt.n	80268fa <_printf_i+0x21e>
 8026914:	e7eb      	b.n	80268ee <_printf_i+0x212>
 8026916:	2500      	movs	r5, #0
 8026918:	f104 0619 	add.w	r6, r4, #25
 802691c:	e7f5      	b.n	802690a <_printf_i+0x22e>
 802691e:	bf00      	nop
 8026920:	08026d1d 	.word	0x08026d1d
 8026924:	08026d2e 	.word	0x08026d2e

08026928 <_sbrk_r>:
 8026928:	b538      	push	{r3, r4, r5, lr}
 802692a:	4d06      	ldr	r5, [pc, #24]	; (8026944 <_sbrk_r+0x1c>)
 802692c:	2300      	movs	r3, #0
 802692e:	4604      	mov	r4, r0
 8026930:	4608      	mov	r0, r1
 8026932:	602b      	str	r3, [r5, #0]
 8026934:	f7fa fba4 	bl	8021080 <_sbrk>
 8026938:	1c43      	adds	r3, r0, #1
 802693a:	d102      	bne.n	8026942 <_sbrk_r+0x1a>
 802693c:	682b      	ldr	r3, [r5, #0]
 802693e:	b103      	cbz	r3, 8026942 <_sbrk_r+0x1a>
 8026940:	6023      	str	r3, [r4, #0]
 8026942:	bd38      	pop	{r3, r4, r5, pc}
 8026944:	20002804 	.word	0x20002804

08026948 <__sread>:
 8026948:	b510      	push	{r4, lr}
 802694a:	460c      	mov	r4, r1
 802694c:	f9b1 100e 	ldrsh.w	r1, [r1, #14]
 8026950:	f000 f8a0 	bl	8026a94 <_read_r>
 8026954:	2800      	cmp	r0, #0
 8026956:	bfab      	itete	ge
 8026958:	6d63      	ldrge	r3, [r4, #84]	; 0x54
 802695a:	89a3      	ldrhlt	r3, [r4, #12]
 802695c:	181b      	addge	r3, r3, r0
 802695e:	f423 5380 	biclt.w	r3, r3, #4096	; 0x1000
 8026962:	bfac      	ite	ge
 8026964:	6563      	strge	r3, [r4, #84]	; 0x54
 8026966:	81a3      	strhlt	r3, [r4, #12]
 8026968:	bd10      	pop	{r4, pc}

0802696a <__swrite>:
 802696a:	e92d 41f0 	stmdb	sp!, {r4, r5, r6, r7, r8, lr}
 802696e:	461f      	mov	r7, r3
 8026970:	898b      	ldrh	r3, [r1, #12]
 8026972:	05db      	lsls	r3, r3, #23
 8026974:	4605      	mov	r5, r0
 8026976:	460c      	mov	r4, r1
 8026978:	4616      	mov	r6, r2
 802697a:	d505      	bpl.n	8026988 <__swrite+0x1e>
 802697c:	f9b1 100e 	ldrsh.w	r1, [r1, #14]
 8026980:	2302      	movs	r3, #2
 8026982:	2200      	movs	r2, #0
 8026984:	f000 f868 	bl	8026a58 <_lseek_r>
 8026988:	89a3      	ldrh	r3, [r4, #12]
 802698a:	f9b4 100e 	ldrsh.w	r1, [r4, #14]
 802698e:	f423 5380 	bic.w	r3, r3, #4096	; 0x1000
 8026992:	81a3      	strh	r3, [r4, #12]
 8026994:	4632      	mov	r2, r6
 8026996:	463b      	mov	r3, r7
 8026998:	4628      	mov	r0, r5
 802699a:	e8bd 41f0 	ldmia.w	sp!, {r4, r5, r6, r7, r8, lr}
 802699e:	f000 b817 	b.w	80269d0 <_write_r>

080269a2 <__sseek>:
 80269a2:	b510      	push	{r4, lr}
 80269a4:	460c      	mov	r4, r1
 80269a6:	f9b1 100e 	ldrsh.w	r1, [r1, #14]
 80269aa:	f000 f855 	bl	8026a58 <_lseek_r>
 80269ae:	1c43      	adds	r3, r0, #1
 80269b0:	89a3      	ldrh	r3, [r4, #12]
 80269b2:	bf15      	itete	ne
 80269b4:	6560      	strne	r0, [r4, #84]	; 0x54
 80269b6:	f423 5380 	biceq.w	r3, r3, #4096	; 0x1000
 80269ba:	f443 5380 	orrne.w	r3, r3, #4096	; 0x1000
 80269be:	81a3      	strheq	r3, [r4, #12]
 80269c0:	bf18      	it	ne
 80269c2:	81a3      	strhne	r3, [r4, #12]
 80269c4:	bd10      	pop	{r4, pc}

080269c6 <__sclose>:
 80269c6:	f9b1 100e 	ldrsh.w	r1, [r1, #14]
 80269ca:	f000 b813 	b.w	80269f4 <_close_r>
	...

080269d0 <_write_r>:
 80269d0:	b538      	push	{r3, r4, r5, lr}
 80269d2:	4d07      	ldr	r5, [pc, #28]	; (80269f0 <_write_r+0x20>)
 80269d4:	4604      	mov	r4, r0
 80269d6:	4608      	mov	r0, r1
 80269d8:	4611      	mov	r1, r2
 80269da:	2200      	movs	r2, #0
 80269dc:	602a      	str	r2, [r5, #0]
 80269de:	461a      	mov	r2, r3
 80269e0:	f7fa fb35 	bl	802104e <_write>
 80269e4:	1c43      	adds	r3, r0, #1
 80269e6:	d102      	bne.n	80269ee <_write_r+0x1e>
 80269e8:	682b      	ldr	r3, [r5, #0]
 80269ea:	b103      	cbz	r3, 80269ee <_write_r+0x1e>
 80269ec:	6023      	str	r3, [r4, #0]
 80269ee:	bd38      	pop	{r3, r4, r5, pc}
 80269f0:	20002804 	.word	0x20002804

080269f4 <_close_r>:
 80269f4:	b538      	push	{r3, r4, r5, lr}
 80269f6:	4d06      	ldr	r5, [pc, #24]	; (8026a10 <_close_r+0x1c>)
 80269f8:	2300      	movs	r3, #0
 80269fa:	4604      	mov	r4, r0
 80269fc:	4608      	mov	r0, r1
 80269fe:	602b      	str	r3, [r5, #0]
 8026a00:	f7fa fb32 	bl	8021068 <_close>
 8026a04:	1c43      	adds	r3, r0, #1
 8026a06:	d102      	bne.n	8026a0e <_close_r+0x1a>
 8026a08:	682b      	ldr	r3, [r5, #0]
 8026a0a:	b103      	cbz	r3, 8026a0e <_close_r+0x1a>
 8026a0c:	6023      	str	r3, [r4, #0]
 8026a0e:	bd38      	pop	{r3, r4, r5, pc}
 8026a10:	20002804 	.word	0x20002804

08026a14 <_fstat_r>:
 8026a14:	b538      	push	{r3, r4, r5, lr}
 8026a16:	4d07      	ldr	r5, [pc, #28]	; (8026a34 <_fstat_r+0x20>)
 8026a18:	2300      	movs	r3, #0
 8026a1a:	4604      	mov	r4, r0
 8026a1c:	4608      	mov	r0, r1
 8026a1e:	4611      	mov	r1, r2
 8026a20:	602b      	str	r3, [r5, #0]
 8026a22:	f7fa fb24 	bl	802106e <_fstat>
 8026a26:	1c43      	adds	r3, r0, #1
 8026a28:	d102      	bne.n	8026a30 <_fstat_r+0x1c>
 8026a2a:	682b      	ldr	r3, [r5, #0]
 8026a2c:	b103      	cbz	r3, 8026a30 <_fstat_r+0x1c>
 8026a2e:	6023      	str	r3, [r4, #0]
 8026a30:	bd38      	pop	{r3, r4, r5, pc}
 8026a32:	bf00      	nop
 8026a34:	20002804 	.word	0x20002804

08026a38 <_isatty_r>:
 8026a38:	b538      	push	{r3, r4, r5, lr}
 8026a3a:	4d06      	ldr	r5, [pc, #24]	; (8026a54 <_isatty_r+0x1c>)
 8026a3c:	2300      	movs	r3, #0
 8026a3e:	4604      	mov	r4, r0
 8026a40:	4608      	mov	r0, r1
 8026a42:	602b      	str	r3, [r5, #0]
 8026a44:	f7fa fb18 	bl	8021078 <_isatty>
 8026a48:	1c43      	adds	r3, r0, #1
 8026a4a:	d102      	bne.n	8026a52 <_isatty_r+0x1a>
 8026a4c:	682b      	ldr	r3, [r5, #0]
 8026a4e:	b103      	cbz	r3, 8026a52 <_isatty_r+0x1a>
 8026a50:	6023      	str	r3, [r4, #0]
 8026a52:	bd38      	pop	{r3, r4, r5, pc}
 8026a54:	20002804 	.word	0x20002804

08026a58 <_lseek_r>:
 8026a58:	b538      	push	{r3, r4, r5, lr}
 8026a5a:	4d07      	ldr	r5, [pc, #28]	; (8026a78 <_lseek_r+0x20>)
 8026a5c:	4604      	mov	r4, r0
 8026a5e:	4608      	mov	r0, r1
 8026a60:	4611      	mov	r1, r2
 8026a62:	2200      	movs	r2, #0
 8026a64:	602a      	str	r2, [r5, #0]
 8026a66:	461a      	mov	r2, r3
 8026a68:	f7fa fb08 	bl	802107c <_lseek>
 8026a6c:	1c43      	adds	r3, r0, #1
 8026a6e:	d102      	bne.n	8026a76 <_lseek_r+0x1e>
 8026a70:	682b      	ldr	r3, [r5, #0]
 8026a72:	b103      	cbz	r3, 8026a76 <_lseek_r+0x1e>
 8026a74:	6023      	str	r3, [r4, #0]
 8026a76:	bd38      	pop	{r3, r4, r5, pc}
 8026a78:	20002804 	.word	0x20002804

08026a7c <__malloc_lock>:
 8026a7c:	4801      	ldr	r0, [pc, #4]	; (8026a84 <__malloc_lock+0x8>)
 8026a7e:	f7ff bb55 	b.w	802612c <__retarget_lock_acquire_recursive>
 8026a82:	bf00      	nop
 8026a84:	200027fc 	.word	0x200027fc

08026a88 <__malloc_unlock>:
 8026a88:	4801      	ldr	r0, [pc, #4]	; (8026a90 <__malloc_unlock+0x8>)
 8026a8a:	f7ff bb50 	b.w	802612e <__retarget_lock_release_recursive>
 8026a8e:	bf00      	nop
 8026a90:	200027fc 	.word	0x200027fc

08026a94 <_read_r>:
 8026a94:	b538      	push	{r3, r4, r5, lr}
 8026a96:	4d07      	ldr	r5, [pc, #28]	; (8026ab4 <_read_r+0x20>)
 8026a98:	4604      	mov	r4, r0
 8026a9a:	4608      	mov	r0, r1
 8026a9c:	4611      	mov	r1, r2
 8026a9e:	2200      	movs	r2, #0
 8026aa0:	602a      	str	r2, [r5, #0]
 8026aa2:	461a      	mov	r2, r3
 8026aa4:	f7fa fac6 	bl	8021034 <_read>
 8026aa8:	1c43      	adds	r3, r0, #1
 8026aaa:	d102      	bne.n	8026ab2 <_read_r+0x1e>
 8026aac:	682b      	ldr	r3, [r5, #0]
 8026aae:	b103      	cbz	r3, 8026ab2 <_read_r+0x1e>
 8026ab0:	6023      	str	r3, [r4, #0]
 8026ab2:	bd38      	pop	{r3, r4, r5, pc}
 8026ab4:	20002804 	.word	0x20002804

08026ab8 <_init>:
 8026ab8:	b5f8      	push	{r3, r4, r5, r6, r7, lr}
 8026aba:	bf00      	nop
 8026abc:	bcf8      	pop	{r3, r4, r5, r6, r7}
 8026abe:	bc08      	pop	{r3}
 8026ac0:	469e      	mov	lr, r3
 8026ac2:	4770      	bx	lr

08026ac4 <_fini>:
 8026ac4:	b5f8      	push	{r3, r4, r5, r6, r7, lr}
 8026ac6:	bf00      	nop
 8026ac8:	bcf8      	pop	{r3, r4, r5, r6, r7}
 8026aca:	bc08      	pop	{r3}
 8026acc:	469e      	mov	lr, r3
 8026ace:	4770      	bx	lr
